 tbb_debug

 Timestamp is 5e38d0cd (Tue Feb  4 10:02:53 2020)

 Preferred load address is 0000000180000000

 Start         Length     Name                   Class
 0001:00000000 00000190H .text$di                CODE
 0001:00000190 000533a0H .text$mn                CODE
 0001:00053530 00000020H .text$mn$00             CODE
 0001:00053550 00001ff0H .text$x                 CODE
 0001:00055540 00000057H .text$yd                CODE
 0002:00000000 00000428H .idata$5                DATA
 0002:00000428 00000010H .00cfg                  DATA
 0002:00000438 00000008H .CRT$XCA                DATA
 0002:00000440 00000040H .CRT$XCU                DATA
 0002:00000480 00000008H .CRT$XCZ                DATA
 0002:00000488 00000008H .CRT$XIA                DATA
 0002:00000490 00000008H .CRT$XIC                DATA
 0002:00000498 00000008H .CRT$XIZ                DATA
 0002:000004a0 00000008H .CRT$XLA                DATA
 0002:000004a8 00000008H .CRT$XLZ                DATA
 0002:000004b0 00000008H .CRT$XPA                DATA
 0002:000004b8 00000008H .CRT$XPZ                DATA
 0002:000004c0 00000008H .CRT$XTA                DATA
 0002:000004c8 00000008H .CRT$XTZ                DATA
 0002:000004d0 00000000H .gfids$y                DATA
 0002:000004d0 0001e7c0H .rdata                  DATA
 0002:0001ec90 00000030H .rdata$T                DATA
 0002:0001ecc0 00001e54H .rdata$r                DATA
 0002:00020b14 000003c4H .rdata$zzzdbg           DATA
 0002:00020ed8 00000008H .rtc$IAA                DATA
 0002:00020ee0 00000118H .rtc$IMZ                DATA
 0002:00020ff8 00000008H .rtc$IZZ                DATA
 0002:00021000 00000008H .rtc$TAA                DATA
 0002:00021008 00000118H .rtc$TMZ                DATA
 0002:00021120 00000008H .rtc$TZZ                DATA
 0002:00021128 00000004H .tls                    DATA
 0002:0002112c 00000004H .tls$                   DATA
 0002:00021130 00000010H .tls$ZZZ                DATA
 0002:00021140 00007300H .xdata                  DATA
 0002:00028440 00000590H .xdata$x                DATA
 0002:000289d0 00004268H .edata                  DATA
 0002:0002cc38 00000050H .idata$2                DATA
 0002:0002cc88 00000018H .idata$3                DATA
 0002:0002cca0 00000428H .idata$4                DATA
 0002:0002d0c8 00000a28H .idata$6                DATA
 0003:00000000 000026d0H .data                   DATA
 0003:000026d0 00000c00H .data$r                 DATA
 0003:000032d0 00001f88H .bss                    DATA
 0004:00000000 0000750cH .pdata                  DATA
 0005:00000000 000000a0H .rsrc$01                DATA
 0005:000000a0 00000560H .rsrc$02                DATA

  Address         Publics by Value              Rva+Base               Lib:Object

 0000:00000000       __hybrid_code_map_count    0000000000000000     <absolute>
 0000:00000000       __guard_fids_table         0000000000000000     <absolute>
 0000:00000000       __guard_iat_table          0000000000000000     <absolute>
 0000:00000000       __guard_longjmp_count      0000000000000000     <absolute>
 0000:00000000       __guard_iat_count          0000000000000000     <absolute>
 0000:00000000       __guard_fids_count         0000000000000000     <absolute>
 0000:00000000       __hybrid_auxiliary_iat     0000000000000000     <absolute>
 0000:00000000       __hybrid_code_map          0000000000000000     <absolute>
 0000:00000000       __guard_longjmp_table      0000000000000000     <absolute>
 0000:00000000       __dynamic_value_reloc_table 0000000000000000     <absolute>
 0000:00000000       __enclave_config           0000000000000000     <absolute>
 0000:00000000       __volatile_metadata        0000000000000000     <absolute>
 0000:00000100       __guard_flags              0000000000000100     <absolute>
 0000:00000000       __ImageBase                0000000180000000     <linker-defined>
 0001:00000190       __TBB_machine_fetchadd1    0000000180001190     atomic_support.obj
 0001:00000198       __TBB_machine_fetchstore1  0000000180001198     atomic_support.obj
 0001:000001a0       __TBB_machine_cmpswp1      00000001800011a0     atomic_support.obj
 0001:000001a8       __TBB_machine_fetchadd2    00000001800011a8     atomic_support.obj
 0001:000001b8       __TBB_machine_fetchstore2  00000001800011b8     atomic_support.obj
 0001:000001c0       __TBB_machine_cmpswp2      00000001800011c0     atomic_support.obj
 0001:000001d0       __TBB_machine_pause        00000001800011d0     atomic_support.obj
 0001:000001e0       __TBB_get_cpu_ctl_env      00000001800011e0     intel64_misc.obj
 0001:000001e8       __TBB_set_cpu_ctl_env      00000001800011e8     intel64_misc.obj
 0001:000001f0       __TBB_machine_try_lock_elided 00000001800011f0     itsx.obj
 0001:00000200       __TBB_machine_unlock_elided 0000000180001200     itsx.obj
 0001:00000208       __TBB_machine_begin_transaction 0000000180001208     itsx.obj
 0001:00000218       __TBB_machine_end_transaction 0000000180001218     itsx.obj
 0001:00000220       __TBB_machine_transaction_conflict_abort 0000000180001220     itsx.obj
 0001:00000228       __TBB_machine_is_in_transaction 0000000180001228     itsx.obj
 0001:00000240       ?internal_grow_predicate@hash_map_segment_base@internal@tbb@@QEBA_NXZ 0000000180001240 f   concurrent_hash_map.obj
 0001:000002b0       ??$__TBB_load_with_acquire@_J@internal@tbb@@YA_JAED_J@Z 00000001800012b0 f i concurrent_hash_map.obj
 0001:000002e0       ??$to_bits_ref@$$CD_K@?$atomic_impl@_K@internal@tbb@@CAAEA_JAED_K@Z 00000001800012e0 f i concurrent_hash_map.obj
 0001:00000320       ??$to_value@_K@?$atomic_impl@_K@internal@tbb@@CA_K_J@Z 0000000180001320 f i concurrent_hash_map.obj
 0001:00000380       ??0?$converter@_K@?$atomic_impl@_K@internal@tbb@@QEAA@XZ 0000000180001380 f i concurrent_hash_map.obj
 0001:00000390       ??0?$ptr_converter@PED_K@?$atomic_impl@_K@internal@tbb@@QEAA@PED_K@Z 0000000180001390 f i concurrent_hash_map.obj
 0001:000003b0       ??B?$atomic_impl@_K@internal@tbb@@QEDA_KXZ 00000001800013b0 f i concurrent_hash_map.obj
 0001:00000400       ?__empty_global_delete@@YAXPEAX@Z 0000000180001400 f i concurrent_hash_map.obj
 0001:00000410       ?__empty_global_delete@@YAXPEAX_K@Z 0000000180001410 f i concurrent_hash_map.obj
 0001:00000410       ?__global_delete@@YAXPEAX_K@Z 0000000180001410 f i concurrent_hash_map.obj
 0001:00000420       ?load_with_acquire@?$machine_load_store@_J$07@internal@tbb@@SA_JAED_J@Z 0000000180001420 f i concurrent_hash_map.obj
 0001:00000530       ??0concurrent_queue_base_v3@internal@tbb@@IEAA@_K@Z 0000000180001530 f   concurrent_queue.obj
 0001:000007e0       ??1concurrent_queue_base_v3@internal@tbb@@MEAA@XZ 00000001800017e0 f   concurrent_queue.obj
 0001:000008c0       ?internal_push@concurrent_queue_base_v3@internal@tbb@@IEAAXPEBX@Z 00000001800018c0 f   concurrent_queue.obj
 0001:00000910       ?internal_pop@concurrent_queue_base_v3@internal@tbb@@IEAAXPEAX@Z 0000000180001910 f   concurrent_queue.obj
 0001:00000bc0       ?internal_abort@concurrent_queue_base_v3@internal@tbb@@IEAAXXZ 0000000180001bc0 f   concurrent_queue.obj
 0001:00000c30       ?internal_push_if_not_full@concurrent_queue_base_v3@internal@tbb@@IEAA_NPEBX@Z 0000000180001c30 f   concurrent_queue.obj
 0001:00000c80       ?internal_pop_if_present@concurrent_queue_base_v3@internal@tbb@@IEAA_NPEAX@Z 0000000180001c80 f   concurrent_queue.obj
 0001:00000d90       ?internal_size@concurrent_queue_base_v3@internal@tbb@@IEBA_JXZ 0000000180001d90 f   concurrent_queue.obj
 0001:00000e40       ?internal_empty@concurrent_queue_base_v3@internal@tbb@@IEBA_NXZ 0000000180001e40 f   concurrent_queue.obj
 0001:00000f10       ?internal_set_capacity@concurrent_queue_base_v3@internal@tbb@@IEAAX_J_K@Z 0000000180001f10 f   concurrent_queue.obj
 0001:00000f80       ?internal_finish_clear@concurrent_queue_base_v3@internal@tbb@@IEAAXXZ 0000000180001f80 f   concurrent_queue.obj
 0001:000010a0       ?internal_throw_exception@concurrent_queue_base_v3@internal@tbb@@IEBAXXZ 00000001800020a0 f   concurrent_queue.obj
 0001:000010e0       ?assign@concurrent_queue_base_v3@internal@tbb@@IEAAXAEBV123@@Z 00000001800020e0 f   concurrent_queue.obj
 0001:00001130       ?internal_insert_item@concurrent_queue_base_v3@internal@tbb@@IEAAXPEBXW4copy_specifics@123@@Z 0000000180002130 f   concurrent_queue.obj
 0001:00001460       ?internal_insert_if_not_full@concurrent_queue_base_v3@internal@tbb@@IEAA_NPEBXW4copy_specifics@123@@Z 0000000180002460 f   concurrent_queue.obj
 0001:00001580       ?internal_assign@concurrent_queue_base_v3@internal@tbb@@IEAAXAEBV123@W4copy_specifics@123@@Z 0000000180002580 f   concurrent_queue.obj
 0001:00001750       ?move_content@concurrent_queue_base_v8@internal@tbb@@IEAAXAEAV123@@Z 0000000180002750 f   concurrent_queue.obj
 0001:000017a0       ?internal_push_move_if_not_full@concurrent_queue_base_v8@internal@tbb@@IEAA_NPEBX@Z 00000001800027a0 f   concurrent_queue.obj
 0001:000017f0       ?internal_push_move@concurrent_queue_base_v8@internal@tbb@@IEAAXPEBX@Z 00000001800027f0 f   concurrent_queue.obj
 0001:00001840       ?initialize@concurrent_queue_iterator_base_v3@internal@tbb@@AEAAXAEBVconcurrent_queue_base_v3@23@_K@Z 0000000180002840 f   concurrent_queue.obj
 0001:00001900       ??0concurrent_queue_iterator_base_v3@internal@tbb@@IEAA@AEBVconcurrent_queue_base_v3@12@@Z 0000000180002900 f   concurrent_queue.obj
 0001:00001950       ??0concurrent_queue_iterator_base_v3@internal@tbb@@IEAA@AEBVconcurrent_queue_base_v3@12@_K@Z 0000000180002950 f   concurrent_queue.obj
 0001:000019a0       ?assign@concurrent_queue_iterator_base_v3@internal@tbb@@IEAAXAEBV123@@Z 00000001800029a0 f   concurrent_queue.obj
 0001:00001a90       ?advance@concurrent_queue_iterator_base_v3@internal@tbb@@IEAAXXZ 0000000180002a90 f   concurrent_queue.obj
 0001:00001c20       ??1concurrent_queue_iterator_base_v3@internal@tbb@@IEAA@XZ 0000000180002c20 f   concurrent_queue.obj
 0001:00001c90       ?push@micro_queue@internal@tbb@@QEAAXPEBX_KAEAVconcurrent_queue_base_v3@23@W4copy_specifics@423@@Z 0000000180002c90 f   concurrent_queue.obj
 0001:00001ff0       ?abort_push@micro_queue@internal@tbb@@QEAAX_KAEAVconcurrent_queue_base_v3@23@@Z 0000000180002ff0 f   concurrent_queue.obj
 0001:00002050       ?pop@micro_queue@internal@tbb@@QEAA_NPEAX_KAEAVconcurrent_queue_base_v3@23@@Z 0000000180003050 f   concurrent_queue.obj
 0001:000022d0       ?assign@micro_queue@internal@tbb@@QEAAAEAU123@AEBU123@AEAVconcurrent_queue_base_v3@23@W4copy_specifics@423@@Z 00000001800032d0 f   concurrent_queue.obj
 0001:000027b0       ?make_copy@micro_queue@internal@tbb@@QEAAPEAUpage@concurrent_queue_base_v3@23@AEAV523@PEBU4523@_K2AEA_KW4copy_specifics@523@@Z 00000001800037b0 f   concurrent_queue.obj
 0001:00002910       ?make_invalid@micro_queue@internal@tbb@@QEAAX_K@Z 0000000180003910 f   concurrent_queue.obj
 0001:00002a00       ??$__TBB_load_relaxed@I@internal@tbb@@YAIAEDI@Z 0000000180003a00 f i concurrent_queue.obj
 0001:00002a30       ??$__TBB_load_relaxed@_K@internal@tbb@@YA_KAED_K@Z 0000000180003a30 f i concurrent_queue.obj
 0001:00002a60       ??$__TBB_load_with_acquire@C@internal@tbb@@YACAEDC@Z 0000000180003a60 f i concurrent_queue.obj
 0001:00002a90       ??$__TBB_load_with_acquire@H@internal@tbb@@YAHAEDH@Z 0000000180003a90 f i concurrent_queue.obj
 0001:00002ac0       ??$__TBB_store_relaxed@IH@internal@tbb@@YAXAECIH@Z 0000000180003ac0 f i concurrent_queue.obj
 0001:00002b00       ??$__TBB_store_relaxed@II@internal@tbb@@YAXAECII@Z 0000000180003b00 f i concurrent_queue.obj
 0001:00002b40       ??$__TBB_store_relaxed@_KH@internal@tbb@@YAXAEC_KH@Z 0000000180003b40 f i concurrent_queue.obj
 0001:00002b80       ??$__TBB_store_with_release@CC@internal@tbb@@YAXAECCC@Z 0000000180003b80 f i concurrent_queue.obj
 0001:00002bc0       ??$__TBB_store_with_release@HH@internal@tbb@@YAXAECHH@Z 0000000180003bc0 f i concurrent_queue.obj
 0001:00002c00       ??$__TBB_store_with_release@_J_J@internal@tbb@@YAXAEC_J_J@Z 0000000180003c00 f i concurrent_queue.obj
 0001:00002c40       ??$compare_and_swap@$0A@@?$atomic_impl@_K@internal@tbb@@QEAA_K_K0@Z 0000000180003c40 f i concurrent_queue.obj
 0001:00002cb0       ??$fetch_and_add@$0A@@?$atomic_impl_with_arithmetic@IID@internal@tbb@@QEAAII@Z 0000000180003cb0 f i concurrent_queue.obj
 0001:00002cf0       ??$fetch_and_add@$0A@@?$atomic_impl_with_arithmetic@_K_KD@internal@tbb@@QEAA_K_K@Z 0000000180003cf0 f i concurrent_queue.obj
 0001:00002d30       ??$is_aligned@$$BY07Umicro_queue@internal@tbb@@@internal@tbb@@YA_NPEAY07Umicro_queue@01@_K@Z 0000000180003d30 f i concurrent_queue.obj
 0001:00002d90       ??$is_aligned@U?$atomic@_K@tbb@@@internal@tbb@@YA_NPEAU?$atomic@_K@1@_K@Z 0000000180003d90 f i concurrent_queue.obj
 0001:00002df0       ??$is_aligned@Vconcurrent_queue_rep@internal@tbb@@@internal@tbb@@YA_NPEAVconcurrent_queue_rep@01@_K@Z 0000000180003df0 f i concurrent_queue.obj
 0001:00002e50       ??$is_power_of_two@_K@internal@tbb@@YA_N_K@Z 0000000180003e50 f i concurrent_queue.obj
 0001:00002eb0       ??$modulo_power_of_two@_K_K@internal@tbb@@YA_K_K0@Z 0000000180003eb0 f i concurrent_queue.obj
 0001:00002f20       ??$notify@Upredicate_leq@internal@tbb@@@concurrent_monitor@internal@tbb@@QEAAXAEBUpredicate_leq@12@@Z 0000000180003f20 f i concurrent_queue.obj
 0001:00002f60       ??$notify_relaxed@Upredicate_leq@internal@tbb@@@concurrent_monitor@internal@tbb@@QEAAXAEBUpredicate_leq@12@@Z 0000000180003f60 f i concurrent_queue.obj
 0001:000031a0       ??$punned_cast@PEAVbinary_semaphore@internal@tbb@@$$CBV?$aligned_space@Vbinary_semaphore@internal@tbb@@$00@3@@internal@tbb@@YAPEAVbinary_semaphore@01@PEBV?$aligned_space@Vbinary_semaphore@internal@tbb@@$00@1@@Z 00000001800041a0 f i concurrent_queue.obj
 0001:000031e0       ??$spin_wait_until_eq@U?$atomic@_K@tbb@@_K@internal@tbb@@YAXAEDU?$atomic@_K@1@_K@Z 00000001800041e0 f i concurrent_queue.obj
 0001:00003240       ??$spin_wait_while_eq@U?$atomic@_K@tbb@@_K@internal@tbb@@YAXAEDU?$atomic@_K@1@_K@Z 0000000180004240 f i concurrent_queue.obj
 0001:000032a0       ??$suppress_unused_warning@E@internal@tbb@@YAXAEBE@Z 00000001800042a0 f i concurrent_queue.obj
 0001:000032b0       ??$to_bits@I@?$atomic_impl@I@internal@tbb@@CAHI@Z 00000001800042b0 f i concurrent_queue.obj
 0001:000032f0       ??$to_bits@PEAUpage@concurrent_queue_base_v3@internal@tbb@@@?$atomic_impl@PEAUpage@concurrent_queue_base_v3@internal@tbb@@@internal@tbb@@CA_JPEAUpage@concurrent_queue_base_v3@12@@Z 00000001800042f0 f i concurrent_queue.obj
 0001:00003330       ??$to_bits@_K@?$atomic_impl@_K@internal@tbb@@CA_J_K@Z 0000000180004330 f i concurrent_queue.obj
 0001:00003370       ??$to_bits@_N@?$atomic_impl@_N@internal@tbb@@CAC_N@Z 0000000180004370 f i concurrent_queue.obj
 0001:000033b0       ??$to_bits_ref@$$CDI@?$atomic_impl@I@internal@tbb@@CAAEAHAEDI@Z 00000001800043b0 f i concurrent_queue.obj
 0001:000033f0       ??$to_bits_ref@$$CD_N@?$atomic_impl@_N@internal@tbb@@CAAEACAED_N@Z 00000001800043f0 f i concurrent_queue.obj
 0001:00003430       ??$to_bits_ref@I@?$atomic_impl@I@internal@tbb@@CAAEAHAEAI@Z 0000000180004430 f i concurrent_queue.obj
 0001:00003470       ??$to_bits_ref@PEAUpage@concurrent_queue_base_v3@internal@tbb@@@?$atomic_impl@PEAUpage@concurrent_queue_base_v3@internal@tbb@@@internal@tbb@@CAAEA_JAEAPEAUpage@concurrent_queue_base_v3@12@@Z 0000000180004470 f i concurrent_queue.obj
 0001:000034b0       ??$to_bits_ref@SEAUpage@concurrent_queue_base_v3@internal@tbb@@@?$atomic_impl@PEAUpage@concurrent_queue_base_v3@internal@tbb@@@internal@tbb@@CAAEA_JAEDSEAUpage@concurrent_queue_base_v3@12@@Z 00000001800044b0 f i concurrent_queue.obj
 0001:000034f0       ??$to_bits_ref@_K@?$atomic_impl@_K@internal@tbb@@CAAEA_JAEA_K@Z 00000001800044f0 f i concurrent_queue.obj
 0001:00003530       ??$to_bits_ref@_N@?$atomic_impl@_N@internal@tbb@@CAAEACAEA_N@Z 0000000180004530 f i concurrent_queue.obj
 0001:00003570       ??$to_value@I@?$atomic_impl@I@internal@tbb@@CAIH@Z 0000000180004570 f i concurrent_queue.obj
 0001:000035c0       ??$to_value@PEAUpage@concurrent_queue_base_v3@internal@tbb@@@?$atomic_impl@PEAUpage@concurrent_queue_base_v3@internal@tbb@@@internal@tbb@@CAPEAUpage@concurrent_queue_base_v3@12@_J@Z 00000001800045c0 f i concurrent_queue.obj
 0001:00003620       ??$to_value@_N@?$atomic_impl@_N@internal@tbb@@CA_NC@Z 0000000180004620 f i concurrent_queue.obj
 0001:00003670       ??0?$cache_aligned_allocator@Vconcurrent_queue_iterator_rep@internal@tbb@@@tbb@@QEAA@XZ 0000000180004670 f i concurrent_queue.obj
 0001:00003680       ??0?$cache_aligned_allocator@Vconcurrent_queue_rep@internal@tbb@@@tbb@@QEAA@XZ 0000000180004680 f i concurrent_queue.obj
 0001:00003690       ??0?$converter@I@?$atomic_impl@I@internal@tbb@@QEAA@I@Z 0000000180004690 f i concurrent_queue.obj
 0001:000036b0       ??0?$converter@I@?$atomic_impl@I@internal@tbb@@QEAA@XZ 00000001800046b0 f i concurrent_queue.obj
 0001:000036c0       ??0?$converter@PEAUpage@concurrent_queue_base_v3@internal@tbb@@@?$atomic_impl@PEAUpage@concurrent_queue_base_v3@internal@tbb@@@internal@tbb@@QEAA@PEAUpage@concurrent_queue_base_v3@23@@Z 00000001800046c0 f i concurrent_queue.obj
 0001:000036e0       ??0?$converter@PEAUpage@concurrent_queue_base_v3@internal@tbb@@@?$atomic_impl@PEAUpage@concurrent_queue_base_v3@internal@tbb@@@internal@tbb@@QEAA@XZ 00000001800046e0 f i concurrent_queue.obj
 0001:000036f0       ??0?$converter@_K@?$atomic_impl@_K@internal@tbb@@QEAA@_K@Z 00000001800046f0 f i concurrent_queue.obj
 0001:00003710       ??0?$converter@_N@?$atomic_impl@_N@internal@tbb@@QEAA@XZ 0000000180004710 f i concurrent_queue.obj
 0001:00003720       ??0?$converter@_N@?$atomic_impl@_N@internal@tbb@@QEAA@_N@Z 0000000180004720 f i concurrent_queue.obj
 0001:00003740       ??0?$ptr_converter@PEAI@?$atomic_impl@I@internal@tbb@@QEAA@PEAI@Z 0000000180004740 f i concurrent_queue.obj
 0001:00003760       ??0?$ptr_converter@PEAPEAUpage@concurrent_queue_base_v3@internal@tbb@@@?$atomic_impl@PEAUpage@concurrent_queue_base_v3@internal@tbb@@@internal@tbb@@QEAA@PEAPEAUpage@concurrent_queue_base_v3@23@@Z 0000000180004760 f i concurrent_queue.obj
 0001:00003780       ??0?$ptr_converter@PEA_K@?$atomic_impl@_K@internal@tbb@@QEAA@PEA_K@Z 0000000180004780 f i concurrent_queue.obj
 0001:000037a0       ??0?$ptr_converter@PEA_N@?$atomic_impl@_N@internal@tbb@@QEAA@PEA_N@Z 00000001800047a0 f i concurrent_queue.obj
 0001:000037c0       ??0?$ptr_converter@PEDI@?$atomic_impl@I@internal@tbb@@QEAA@PEDI@Z 00000001800047c0 f i concurrent_queue.obj
 0001:000037e0       ??0?$ptr_converter@PEDSEAUpage@concurrent_queue_base_v3@internal@tbb@@@?$atomic_impl@PEAUpage@concurrent_queue_base_v3@internal@tbb@@@internal@tbb@@QEAA@PEDSEAUpage@concurrent_queue_base_v3@23@@Z 00000001800047e0 f i concurrent_queue.obj
 0001:00003800       ??0?$ptr_converter@PED_N@?$atomic_impl@_N@internal@tbb@@QEAA@PED_N@Z 0000000180004800 f i concurrent_queue.obj
 0001:00003820       ??0atomic_backoff@internal@tbb@@QEAA@XZ 0000000180004820 f i concurrent_queue.obj
 0001:00003840       ??0atomic_backoff@internal@tbb@@QEAA@_N@Z 0000000180004840 f i concurrent_queue.obj
 0001:00003890       ??0circular_doubly_linked_list_with_sentinel@internal@tbb@@QEAA@XZ 0000000180004890 f i concurrent_queue.obj
 0001:000038e0       ??0concurrent_monitor@internal@tbb@@QEAA@XZ 00000001800048e0 f i concurrent_queue.obj
 0001:00003950       ??0concurrent_queue_iterator_rep@internal@tbb@@QEAA@AEBVconcurrent_queue_base_v3@12@_K@Z 0000000180004950 f i concurrent_queue.obj
 0001:00003a20       ??0micro_queue_pop_finalizer@internal@tbb@@QEAA@AEAUmicro_queue@12@AEAVconcurrent_queue_base_v3@12@_KPEAUpage@412@@Z 0000000180004a20 f i concurrent_queue.obj
 0001:00003a80       ??0node_t@circular_doubly_linked_list_with_sentinel@internal@tbb@@QEAA@XZ 0000000180004a80 f i concurrent_queue.obj
 0001:00003ab0       ??0predicate_leq@internal@tbb@@QEAA@_K@Z 0000000180004ab0 f i concurrent_queue.obj
 0001:00003ad0       ??0scoped_lock@spin_mutex@tbb@@QEAA@AEAV12@@Z 0000000180004ad0 f i concurrent_queue.obj
 0001:00003b40       ??0spin_mutex@tbb@@QEAA@XZ 0000000180004b40 f i concurrent_queue.obj
 0001:00003b80       ??0thread_context@concurrent_monitor@internal@tbb@@QEAA@XZ 0000000180004b80 f i concurrent_queue.obj
 0001:00003c00       ??1binary_semaphore@internal@tbb@@QEAA@XZ 0000000180004c00 f i concurrent_queue.obj
 0001:00003c40       ??1circular_doubly_linked_list_with_sentinel@internal@tbb@@QEAA@XZ 0000000180004c40 f i concurrent_queue.obj
 0001:00003cc0       ??1micro_queue_pop_finalizer@internal@tbb@@QEAA@XZ 0000000180004cc0 f i concurrent_queue.obj
 0001:00003de0       ??1scoped_lock@spin_mutex@tbb@@QEAA@XZ 0000000180004de0 f i concurrent_queue.obj
 0001:00003e30       ??1thread_context@concurrent_monitor@internal@tbb@@QEAA@XZ 0000000180004e30 f i concurrent_queue.obj
 0001:00003eb0       ??2@YAPEAX_KPEAX@Z         0000000180004eb0 f i concurrent_queue.obj
 0001:00003ed0       ??4?$atomic@I@tbb@@QEAAAEAU01@AEBU01@@Z 0000000180004ed0 f i concurrent_queue.obj
 0001:00003f20       ??4?$atomic@PEAUpage@concurrent_queue_base_v3@internal@tbb@@@tbb@@QEAAPEAUpage@concurrent_queue_base_v3@internal@1@PEAU2341@@Z 0000000180004f20 f i concurrent_queue.obj
 0001:00003f60       ??4?$atomic@_K@tbb@@QEAAAEAU01@AEBU01@@Z 0000000180004f60 f i concurrent_queue.obj
 0001:00003fb0       ??4?$atomic@_K@tbb@@QEAA_K_K@Z 0000000180004fb0 f i concurrent_queue.obj
 0001:00003ff0       ??4?$atomic@_N@tbb@@QEAA_N_N@Z 0000000180004ff0 f i concurrent_queue.obj
 0001:00004030       ??B?$atomic_impl@I@internal@tbb@@QEDAIXZ 0000000180005030 f i concurrent_queue.obj
 0001:00004070       ??B?$atomic_impl@PEAUpage@concurrent_queue_base_v3@internal@tbb@@@internal@tbb@@QEDAPEAUpage@concurrent_queue_base_v3@12@XZ 0000000180005070 f i concurrent_queue.obj
 0001:000040c0       ??B?$atomic_impl@_N@internal@tbb@@QEDA_NXZ 00000001800050c0 f i concurrent_queue.obj
 0001:00004110       ??E?$atomic_impl_with_arithmetic@IID@internal@tbb@@QEAAIXZ 0000000180005110 f i concurrent_queue.obj
 0001:00004150       ??E?$atomic_impl_with_arithmetic@_K_KD@internal@tbb@@QEAA_KH@Z 0000000180005150 f i concurrent_queue.obj
 0001:00004190       ??E?$atomic_impl_with_arithmetic@_K_KD@internal@tbb@@QEAA_KXZ 0000000180005190 f i concurrent_queue.obj
 0001:000041d0       ??F?$atomic_impl_with_arithmetic@_K_KD@internal@tbb@@QEAA_KH@Z 00000001800051d0 f i concurrent_queue.obj
 0001:00004210       ??F?$atomic_impl_with_arithmetic@_K_KD@internal@tbb@@QEAA_KXZ 0000000180005210 f i concurrent_queue.obj
 0001:00004250       ??Rpredicate_leq@internal@tbb@@QEBA_N_K@Z 0000000180005250 f i concurrent_queue.obj
 0001:000042a0       ??Y?$atomic_impl_with_arithmetic@_K_KD@internal@tbb@@QEAA_K_K@Z 00000001800052a0 f i concurrent_queue.obj
 0001:000042e0       ??_Gbinary_semaphore@internal@tbb@@QEAAPEAXI@Z 00000001800052e0 f i concurrent_queue.obj
 0001:00004340       ??_Gconcurrent_queue_base_v3@internal@tbb@@MEAAPEAXI@Z 0000000180005340 f i concurrent_queue.obj
 0001:00004340       ??_Econcurrent_queue_base_v3@internal@tbb@@MEAAPEAXI@Z 0000000180005340 f i concurrent_queue.obj
 0001:000043a0       ?P@binary_semaphore@internal@tbb@@QEAAXXZ 00000001800053a0 f i concurrent_queue.obj
 0001:000043e0       ?V@binary_semaphore@internal@tbb@@QEAAXXZ 00000001800053e0 f i concurrent_queue.obj
 0001:00004420       ?__TBB_store_relaxed@internal@tbb@@YAXAEC_K_K@Z 0000000180005420 f i concurrent_queue.obj
 0001:00004460       ?abort_all@concurrent_monitor@internal@tbb@@QEAAXXZ 0000000180005460 f i concurrent_queue.obj
 0001:000044a0       ?add@circular_doubly_linked_list_with_sentinel@internal@tbb@@QEAAXPEAUnode_t@123@@Z 00000001800054a0 f i concurrent_queue.obj
 0001:00004530       ?allocate@?$cache_aligned_allocator@Vconcurrent_queue_iterator_rep@internal@tbb@@@tbb@@QEAAPEAVconcurrent_queue_iterator_rep@internal@2@_KPEBX@Z 0000000180005530 f i concurrent_queue.obj
 0001:00004580       ?allocate@?$cache_aligned_allocator@Vconcurrent_queue_rep@internal@tbb@@@tbb@@QEAAPEAVconcurrent_queue_rep@internal@2@_KPEBX@Z 0000000180005580 f i concurrent_queue.obj
 0001:000045d0       ?atomic_fence@tbb@@YAXXZ   00000001800055d0 f i concurrent_queue.obj
 0001:000045e0       ?begin@?$aligned_space@Vbinary_semaphore@internal@tbb@@$00@tbb@@QEBAPEAVbinary_semaphore@internal@2@XZ 00000001800055e0 f i concurrent_queue.obj
 0001:00004610       ?choose@concurrent_queue_rep@internal@tbb@@QEAAAEAUmicro_queue@23@_K@Z 0000000180005610 f i concurrent_queue.obj
 0001:00004660       ?clear@circular_doubly_linked_list_with_sentinel@internal@tbb@@QEAAXXZ 0000000180005660 f i concurrent_queue.obj
 0001:000046c0       ?commit_wait@concurrent_monitor@internal@tbb@@QEAA_NAEAVthread_context@123@@Z 00000001800056c0 f i concurrent_queue.obj
 0001:000047d0       ?compare_and_swap@?$atomic_impl@_K@internal@tbb@@QEAA_K_K0@Z 00000001800057d0 f i concurrent_queue.obj
 0001:00004820       ?compare_and_swap@?$atomic_traits@$07$0A@@internal@tbb@@SA_JPECX_J1@Z 0000000180005820 f i concurrent_queue.obj
 0001:00004870       ?deallocate@?$cache_aligned_allocator@Vconcurrent_queue_iterator_rep@internal@tbb@@@tbb@@QEAAXPEAVconcurrent_queue_iterator_rep@internal@2@_K@Z 0000000180005870 f i concurrent_queue.obj
 0001:000048b0       ?deallocate@?$cache_aligned_allocator@Vconcurrent_queue_rep@internal@tbb@@@tbb@@QEAAXPEAVconcurrent_queue_rep@internal@2@_K@Z 00000001800058b0 f i concurrent_queue.obj
 0001:000048f0       ?empty@circular_doubly_linked_list_with_sentinel@internal@tbb@@QEBA_NXZ 00000001800058f0 f i concurrent_queue.obj
 0001:00004940       ?end@circular_doubly_linked_list_with_sentinel@internal@tbb@@QEBAPEBUnode_t@123@XZ 0000000180005940 f i concurrent_queue.obj
 0001:00004960       ?fetch_and_add@?$atomic_impl_with_arithmetic@IID@internal@tbb@@QEAAII@Z 0000000180005960 f i concurrent_queue.obj
 0001:000049a0       ?fetch_and_add@?$atomic_impl_with_arithmetic@_K_KD@internal@tbb@@QEAA_K_K@Z 00000001800059a0 f i concurrent_queue.obj
 0001:000049e0       ?fetch_and_add@?$atomic_traits@$03$0A@@internal@tbb@@SAHPECXH@Z 00000001800059e0 f i concurrent_queue.obj
 0001:00004a20       ?fetch_and_add@?$atomic_traits@$07$0A@@internal@tbb@@SA_JPECX_J@Z 0000000180005a20 f i concurrent_queue.obj
 0001:00004a60       ?front@circular_doubly_linked_list_with_sentinel@internal@tbb@@QEBAPEAUnode_t@123@XZ 0000000180005a60 f i concurrent_queue.obj
 0001:00004a80       ?get_item@concurrent_queue_iterator_rep@internal@tbb@@QEAA_NAEAPEAX_K@Z 0000000180005a80 f i concurrent_queue.obj
 0001:00004bd0       ?index@concurrent_queue_rep@internal@tbb@@SA_K_K@Z 0000000180005bd0 f i concurrent_queue.obj
 0001:00004bf0       ?last@circular_doubly_linked_list_with_sentinel@internal@tbb@@QEBAPEAUnode_t@123@XZ 0000000180005bf0 f i concurrent_queue.obj
 0001:00004c10       ?load@?$machine_load_store_relaxed@I$03@internal@tbb@@SAIAEDI@Z 0000000180005c10 f i concurrent_queue.obj
 0001:00004c20       ?load@?$machine_load_store_relaxed@_K$07@internal@tbb@@SA_KAED_K@Z 0000000180005c20 f i concurrent_queue.obj
 0001:00004c30       ?load_with_acquire@?$machine_load_store@C$00@internal@tbb@@SACAEDC@Z 0000000180005c30 f i concurrent_queue.obj
 0001:00004c70       ?load_with_acquire@?$machine_load_store@H$03@internal@tbb@@SAHAEDH@Z 0000000180005c70 f i concurrent_queue.obj
 0001:00004cb0       ?pause@atomic_backoff@internal@tbb@@QEAAXXZ 0000000180005cb0 f i concurrent_queue.obj
 0001:00004d10       ?remove@circular_doubly_linked_list_with_sentinel@internal@tbb@@QEAAXAEAUnode_t@123@@Z 0000000180005d10 f i concurrent_queue.obj
 0001:00004db0       ?semaphore@thread_context@concurrent_monitor@internal@tbb@@QEAAAEAVbinary_semaphore@34@XZ 0000000180005db0 f i concurrent_queue.obj
 0001:00004df0       ?size@circular_doubly_linked_list_with_sentinel@internal@tbb@@QEBA_KXZ 0000000180005df0 f i concurrent_queue.obj
 0001:00004e00       ?store@?$machine_load_store_relaxed@I$03@internal@tbb@@SAXAECII@Z 0000000180005e00 f i concurrent_queue.obj
 0001:00004e20       ?store@?$machine_load_store_relaxed@_K$07@internal@tbb@@SAXAEC_K_K@Z 0000000180005e20 f i concurrent_queue.obj
 0001:00004e40       ?store_with_release@?$atomic_impl@I@internal@tbb@@IEAAII@Z 0000000180005e40 f i concurrent_queue.obj
 0001:00004ea0       ?store_with_release@?$atomic_impl@PEAUpage@concurrent_queue_base_v3@internal@tbb@@@internal@tbb@@IEAAPEAUpage@concurrent_queue_base_v3@23@PEAU4523@@Z 0000000180005ea0 f i concurrent_queue.obj
 0001:00004f00       ?store_with_release@?$atomic_impl@_K@internal@tbb@@IEAA_K_K@Z 0000000180005f00 f i concurrent_queue.obj
 0001:00004f60       ?store_with_release@?$atomic_impl@_N@internal@tbb@@IEAA_N_N@Z 0000000180005f60 f i concurrent_queue.obj
 0001:00004fc0       ?store_with_release@?$machine_load_store@C$00@internal@tbb@@SAXAECCC@Z 0000000180005fc0 f i concurrent_queue.obj
 0001:00004fe0       ?store_with_release@?$machine_load_store@H$03@internal@tbb@@SAXAECHH@Z 0000000180005fe0 f i concurrent_queue.obj
 0001:00005000       ?store_with_release@?$machine_load_store@_J$07@internal@tbb@@SAXAEC_J_J@Z 0000000180006000 f i concurrent_queue.obj
 0001:00005020       ?throw_exception@internal@tbb@@YAXW4exception_id@12@@Z 0000000180006020 f i concurrent_queue.obj
 0001:00005050       ?to_thread_context@concurrent_monitor@internal@tbb@@AEAAPEAVthread_context@123@PEAUnode_t@circular_doubly_linked_list_with_sentinel@23@@Z 0000000180006050 f i concurrent_queue.obj
 0001:00005170       ??1concurrent_vector_base_v3@internal@tbb@@IEAA@XZ 0000000180006170 f   concurrent_vector.obj
 0001:000052d0       ?internal_reserve@concurrent_vector_base_v3@internal@tbb@@IEAAX_K00@Z 00000001800062d0 f   concurrent_vector.obj
 0001:00005400       ?internal_capacity@concurrent_vector_base_v3@internal@tbb@@IEBA_KXZ 0000000180006400 f   concurrent_vector.obj
 0001:00005440       ?internal_grow@concurrent_vector_base_v3@internal@tbb@@IEAAX_K00P6AXPEAXPEBX0@Z2@Z 0000000180006440 f   concurrent_vector.obj
 0001:00005680       ?internal_grow_by@concurrent_vector_base_v3@internal@tbb@@IEAA_K_K0P6AXPEAXPEBX0@Z2@Z 0000000180006680 f   concurrent_vector.obj
 0001:00005720       ?internal_push_back@concurrent_vector_base_v3@internal@tbb@@IEAAPEAX_KAEA_K@Z 0000000180006720 f   concurrent_vector.obj
 0001:00005850       ?internal_clear@concurrent_vector_base_v3@internal@tbb@@IEAA_KP6AXPEAX_K@Z@Z 0000000180006850 f   concurrent_vector.obj
 0001:00005a10       ?internal_compact@concurrent_vector_base_v3@internal@tbb@@IEAAPEAX_KPEAXP6AX10@ZP6AX1PEBX0@Z@Z 0000000180006a10 f   concurrent_vector.obj
 0001:00006130       ?internal_copy@concurrent_vector_base_v3@internal@tbb@@IEAAXAEBV123@_KP6AXPEAXPEBX1@Z@Z 0000000180007130 f   concurrent_vector.obj
 0001:000063c0       ?internal_assign@concurrent_vector_base_v3@internal@tbb@@IEAAXAEBV123@_KP6AXPEAX1@ZP6AX2PEBX1@Z5@Z 00000001800073c0 f   concurrent_vector.obj
 0001:000069b0       ?internal_throw_exception@concurrent_vector_base_v3@internal@tbb@@IEBAX_K@Z 00000001800079b0 f   concurrent_vector.obj
 0001:00006a60       ?internal_swap@concurrent_vector_base_v3@internal@tbb@@IEAAXAEAV123@@Z 0000000180007a60 f   concurrent_vector.obj
 0001:00006c30       ?internal_resize@concurrent_vector_base_v3@internal@tbb@@IEAAX_K00PEBXP6AXPEAX0@ZP6AX210@Z@Z 0000000180007c30 f   concurrent_vector.obj
 0001:00006e90       ?internal_grow_to_at_least_with_result@concurrent_vector_base_v3@internal@tbb@@IEAA_K_K0P6AXPEAXPEBX0@Z2@Z 0000000180007e90 f   concurrent_vector.obj
 0001:00007180       ?internal_grow_to_at_least@concurrent_vector_base_v3@internal@tbb@@IEAAX_K0P6AXPEAXPEBX0@Z2@Z 0000000180008180 f   concurrent_vector.obj
 0001:000071e0       ?enable_segment@helper@concurrent_vector_base_v3@internal@tbb@@SA_KAEAV234@_K1_N@Z 00000001800081e0 f   concurrent_vector.obj
 0001:00007560       ?extend_segment_table@helper@concurrent_vector_base_v3@internal@tbb@@SAXAEAV234@_K@Z 0000000180008560 f   concurrent_vector.obj
 0001:00007840       ?cleanup@helper@concurrent_vector_base_v3@internal@tbb@@QEAAXXZ 0000000180008840 f   concurrent_vector.obj
 0001:00007c60       ??$?9Usegment_allocated@concurrent_vector_base_v3@internal@tbb@@@internal@tbb@@YA_NAEBVsegment_value_t@concurrent_vector_base_v3@01@Usegment_allocated@301@@Z 0000000180008c60 f i concurrent_vector.obj
 0001:00007cc0       ??$?9Usegment_not_used@concurrent_vector_base_v3@internal@tbb@@@internal@tbb@@YA_NAEBVsegment_value_t@concurrent_vector_base_v3@01@Usegment_not_used@301@@Z 0000000180008cc0 f i concurrent_vector.obj
 0001:00007d20       ??$_Adl_verify_range1@PEAVsegment_t@concurrent_vector_base_v3@internal@tbb@@PEAV1234@@std@@YAXAEBQEAVsegment_t@concurrent_vector_base_v3@internal@tbb@@0U?$integral_constant@_N$00@0@@Z 0000000180008d20 f i concurrent_vector.obj
 0001:00007d70       ??$_Adl_verify_range@PEAVsegment_t@concurrent_vector_base_v3@internal@tbb@@PEAV1234@@std@@YAXAEBQEAVsegment_t@concurrent_vector_base_v3@internal@tbb@@0@Z 0000000180008d70 f i concurrent_vector.obj
 0001:00007dc0       ??$_Construct_in_place@Vsegment_t@concurrent_vector_base_v3@internal@tbb@@AEBV1234@@std@@YAXAEAVsegment_t@concurrent_vector_base_v3@internal@tbb@@AEBV1234@@Z 0000000180008dc0 f i concurrent_vector.obj
 0001:00007e20       ??$_Copy_unchecked1@PEAVsegment_t@concurrent_vector_base_v3@internal@tbb@@PEAV1234@@std@@YAPEAVsegment_t@concurrent_vector_base_v3@internal@tbb@@PEAV1234@00U_General_ptr_iterator_tag@0@@Z 0000000180008e20 f i concurrent_vector.obj
 0001:00007ea0       ??$_Copy_unchecked@PEAVsegment_t@concurrent_vector_base_v3@internal@tbb@@PEAV1234@@std@@YAPEAVsegment_t@concurrent_vector_base_v3@internal@tbb@@PEAV1234@00@Z 0000000180008ea0 f i concurrent_vector.obj
 0001:00007f00       ??$_Destroy_in_place@Vsegment_t@concurrent_vector_base_v3@internal@tbb@@@std@@YAXAEAVsegment_t@concurrent_vector_base_v3@internal@tbb@@@Z 0000000180008f00 f i concurrent_vector.obj
 0001:00007f30       ??$_Destroy_range1@PEAVsegment_t@concurrent_vector_base_v3@internal@tbb@@@std@@YAXPEAVsegment_t@concurrent_vector_base_v3@internal@tbb@@0U?$integral_constant@_N$0A@@0@@Z 0000000180008f30 f i concurrent_vector.obj
 0001:00007f90       ??$_Destroy_range@PEAVsegment_t@concurrent_vector_base_v3@internal@tbb@@@std@@YAXPEAVsegment_t@concurrent_vector_base_v3@internal@tbb@@0@Z 0000000180008f90 f i concurrent_vector.obj
 0001:00007fd0       ??$_Emplace_back@AEBVsegment_t@concurrent_vector_base_v3@internal@tbb@@@?$_Uninitialized_backout@PEAVsegment_t@concurrent_vector_base_v3@internal@tbb@@@std@@QEAAXAEBVsegment_t@concurrent_vector_base_v3@internal@tbb@@@Z 0000000180008fd0 f i concurrent_vector.obj
 0001:00008030       ??$_Fill_memset_is_safe@PEAVsegment_t@concurrent_vector_base_v3@internal@tbb@@V1234@@std@@YA?AU?$integral_constant@_N$0A@@0@AEBQEAVsegment_t@concurrent_vector_base_v3@internal@tbb@@AEBV2345@@Z 0000000180009030 f i concurrent_vector.obj
 0001:00008070       ??$_Fill_n_unchecked2@PEAVsegment_t@concurrent_vector_base_v3@internal@tbb@@_KV1234@@std@@YAPEAVsegment_t@concurrent_vector_base_v3@internal@tbb@@PEAV1234@_KAEBV1234@U?$integral_constant@_N$0A@@0@@Z 0000000180009070 f i concurrent_vector.obj
 0001:000080e0       ??$_Get_unwrapped@Vsegment_t@concurrent_vector_base_v3@internal@tbb@@@std@@YAPEAVsegment_t@concurrent_vector_base_v3@internal@tbb@@QEAV1234@@Z 00000001800090e0 f i concurrent_vector.obj
 0001:000080f0       ??$_Get_unwrapped_n@V?$_Array_iterator@Vsegment_t@concurrent_vector_base_v3@internal@tbb@@$0EA@@std@@_J$0A@@std@@YAPEAVsegment_t@concurrent_vector_base_v3@internal@tbb@@AEBV?$_Array_iterator@Vsegment_t@concurrent_vector_base_v3@internal@tbb@@$0EA@@0@_J@Z 00000001800090f0 f i concurrent_vector.obj
 0001:000081e0       ??$_Get_unwrapped_n@Vsegment_t@concurrent_vector_base_v3@internal@tbb@@_J$0A@@std@@YAPEAVsegment_t@concurrent_vector_base_v3@internal@tbb@@QEAV1234@_J@Z 00000001800091e0 f i concurrent_vector.obj
 0001:00008200       ??$_Get_unwrapped_n@Vsegment_t@concurrent_vector_base_v3@internal@tbb@@_K$0A@@std@@YAPEAVsegment_t@concurrent_vector_base_v3@internal@tbb@@QEAV1234@_K@Z 0000000180009200 f i concurrent_vector.obj
 0001:00008220       ??$_Idl_distance1@PEAVsegment_t@concurrent_vector_base_v3@internal@tbb@@PEAV1234@@std@@YA_JAEBQEAVsegment_t@concurrent_vector_base_v3@internal@tbb@@0Urandom_access_iterator_tag@0@@Z 0000000180009220 f i concurrent_vector.obj
 0001:00008250       ??$_Idl_distance@PEAVsegment_t@concurrent_vector_base_v3@internal@tbb@@PEAV1234@@std@@YA_JAEBQEAVsegment_t@concurrent_vector_base_v3@internal@tbb@@0@Z 0000000180009250 f i concurrent_vector.obj
 0001:00008290       ??$_Ptr_copy_cat@Vsegment_t@concurrent_vector_base_v3@internal@tbb@@V1234@@std@@YA?AU_General_ptr_iterator_tag@0@AEBQEAVsegment_t@concurrent_vector_base_v3@internal@tbb@@0@Z 0000000180009290 f i concurrent_vector.obj
 0001:000082d0       ??$_Seek_wrapped@V?$_Array_iterator@Vsegment_t@concurrent_vector_base_v3@internal@tbb@@$0EA@@std@@PEAVsegment_t@concurrent_vector_base_v3@internal@tbb@@$0A@@std@@YAXAEAV?$_Array_iterator@Vsegment_t@concurrent_vector_base_v3@internal@tbb@@$0EA@@0@AEBQEAVsegment_t@concurrent_vector_base_v3@internal@tbb@@@Z 00000001800092d0 f i concurrent_vector.obj
 0001:00008310       ??$_Seek_wrapped@Vsegment_t@concurrent_vector_base_v3@internal@tbb@@@std@@YAXAEAPEAVsegment_t@concurrent_vector_base_v3@internal@tbb@@QEAV1234@@Z 0000000180009310 f i concurrent_vector.obj
 0001:00008330       ??$_Uninitialized_fill_n_unchecked1@PEAVsegment_t@concurrent_vector_base_v3@internal@tbb@@_KV1234@@std@@YAPEAVsegment_t@concurrent_vector_base_v3@internal@tbb@@QEAV1234@_KAEBV1234@U?$integral_constant@_N$0A@@0@@Z 0000000180009330 f i concurrent_vector.obj
 0001:000083e0       ??$_Verify_range@Vsegment_t@concurrent_vector_base_v3@internal@tbb@@@std@@YAXQEBVsegment_t@concurrent_vector_base_v3@internal@tbb@@0@Z 00000001800093e0 f i concurrent_vector.obj
 0001:00008490       ??$__TBB_load_relaxed@_J@internal@tbb@@YA_JAED_J@Z 0000000180009490 f i concurrent_vector.obj
 0001:000084c0       ??$__TBB_store_relaxed@_J_J@internal@tbb@@YAXAEC_J_J@Z 00000001800094c0 f i concurrent_vector.obj
 0001:00008500       ??$addressof@Vsegment_t@concurrent_vector_base_v3@internal@tbb@@@std@@YAPEAVsegment_t@concurrent_vector_base_v3@internal@tbb@@AEAV1234@@Z 0000000180009500 f i concurrent_vector.obj
 0001:00008510       ??$apply@Udestroy_body@helper@concurrent_vector_base_v3@internal@tbb@@@helper@concurrent_vector_base_v3@internal@tbb@@QEAA_KAEBUdestroy_body@0123@@Z 0000000180009510 f i concurrent_vector.obj
 0001:00008680       ??$apply@Uinit_body@helper@concurrent_vector_base_v3@internal@tbb@@@helper@concurrent_vector_base_v3@internal@tbb@@QEAA_KAEBUinit_body@0123@@Z 0000000180009680 f i concurrent_vector.obj
 0001:000087f0       ??$apply@Usafe_init_body@helper@concurrent_vector_base_v3@internal@tbb@@@helper@concurrent_vector_base_v3@internal@tbb@@QEAA_KAEBUsafe_init_body@0123@@Z 00000001800097f0 f i concurrent_vector.obj
 0001:00008960       ??$compare_and_swap@$0A@@?$atomic_impl@PEAVsegment_t@concurrent_vector_base_v3@internal@tbb@@@internal@tbb@@QEAAPEAVsegment_t@concurrent_vector_base_v3@12@PEAV3412@0@Z 0000000180009960 f i concurrent_vector.obj
 0001:000089d0       ??$copy@PEAVsegment_t@concurrent_vector_base_v3@internal@tbb@@PEAV1234@@std@@YAPEAVsegment_t@concurrent_vector_base_v3@internal@tbb@@PEAV1234@00@Z 00000001800099d0 f i concurrent_vector.obj
 0001:00008a90       ??$copy@PEAVsegment_t@concurrent_vector_base_v3@internal@tbb@@V1234@$0EA@@std@@YAPEAVsegment_t@concurrent_vector_base_v3@internal@tbb@@PEAV1234@0AEAY0EA@V1234@@Z 0000000180009a90 f i concurrent_vector.obj
 0001:00008b20       ??$copy@PEAVsegment_t@concurrent_vector_base_v3@internal@tbb@@V?$_Array_iterator@Vsegment_t@concurrent_vector_base_v3@internal@tbb@@$0EA@@std@@@std@@YA?AV?$_Array_iterator@Vsegment_t@concurrent_vector_base_v3@internal@tbb@@$0EA@@0@PEAVsegment_t@concurrent_vector_base_v3@internal@tbb@@0V10@@Z 0000000180009b20 f i concurrent_vector.obj
 0001:00008c20       ??$fetch_and_add@$00@?$atomic_impl_with_arithmetic@_K_KD@internal@tbb@@QEAA_K_K@Z 0000000180009c20 f i concurrent_vector.obj
 0001:00008c60       ??$fetch_and_increment@$00@?$atomic_impl_with_arithmetic@_K_KD@internal@tbb@@QEAA_KXZ 0000000180009c60 f i concurrent_vector.obj
 0001:00008ca0       ??$fill_n@PEAVsegment_t@concurrent_vector_base_v3@internal@tbb@@_KV1234@@std@@YAPEAVsegment_t@concurrent_vector_base_v3@internal@tbb@@PEAV1234@_KAEBV1234@@Z 0000000180009ca0 f i concurrent_vector.obj
 0001:00008d50       ??$forward@AEBVsegment_t@concurrent_vector_base_v3@internal@tbb@@@std@@YAAEBVsegment_t@concurrent_vector_base_v3@internal@tbb@@AEBV1234@@Z 0000000180009d50 f i concurrent_vector.obj
 0001:00008d60       ??$load@$00@?$atomic_impl@PEAVsegment_t@concurrent_vector_base_v3@internal@tbb@@@internal@tbb@@QEBAPEAVsegment_t@concurrent_vector_base_v3@12@XZ 0000000180009d60 f i concurrent_vector.obj
 0001:00008db0       ??$load@$00@?$atomic_impl@PEAX@internal@tbb@@QEBAPEAXXZ 0000000180009db0 f i concurrent_vector.obj
 0001:00008e00       ??$load@$00@?$atomic_impl@_K@internal@tbb@@QEBA_KXZ 0000000180009e00 f i concurrent_vector.obj
 0001:00008e50       ??$load@$00@segment_t@concurrent_vector_base_v3@internal@tbb@@QEBA?AVsegment_value_t@123@XZ 0000000180009e50 f i concurrent_vector.obj
 0001:00008ea0       ??$load@$02@?$atomic_impl@PEAVsegment_t@concurrent_vector_base_v3@internal@tbb@@@internal@tbb@@QEBAPEAVsegment_t@concurrent_vector_base_v3@12@XZ 0000000180009ea0 f i concurrent_vector.obj
 0001:00008ef0       ??$load@$02@?$atomic_impl@PEAX@internal@tbb@@QEBAPEAXXZ 0000000180009ef0 f i concurrent_vector.obj
 0001:00008f40       ??$load@$02@?$atomic_impl@_K@internal@tbb@@QEBA_KXZ 0000000180009f40 f i concurrent_vector.obj
 0001:00008f90       ??$load@$02@segment_t@concurrent_vector_base_v3@internal@tbb@@QEBA?AVsegment_value_t@123@XZ 0000000180009f90 f i concurrent_vector.obj
 0001:00008fe0       ??$load@$02PEAVsegment_t@concurrent_vector_base_v3@internal@tbb@@@tbb@@YAPEAVsegment_t@concurrent_vector_base_v3@internal@0@AEBU?$atomic@PEAVsegment_t@concurrent_vector_base_v3@internal@tbb@@@0@@Z 0000000180009fe0 f i concurrent_vector.obj
 0001:00009010       ??$load@$02PEAX@tbb@@YAPEAXAEBU?$atomic@PEAX@0@@Z 000000018000a010 f i concurrent_vector.obj
 0001:00009040       ??$load@$02_K@tbb@@YA_KAEBU?$atomic@_K@0@@Z 000000018000a040 f i concurrent_vector.obj
 0001:00009070       ??$load@_J@?$atomic_load_store_traits@$00@internal@tbb@@SA_JAED_J@Z 000000018000a070 f i concurrent_vector.obj
 0001:000090a0       ??$load@_J@?$atomic_load_store_traits@$02@internal@tbb@@SA_JAED_J@Z 000000018000a0a0 f i concurrent_vector.obj
 0001:000090d0       ??$pointer@D@segment_value_t@concurrent_vector_base_v3@internal@tbb@@QEBAPEADXZ 000000018000a0d0 f i concurrent_vector.obj
 0001:000090e0       ??$pointer@X@segment_value_t@concurrent_vector_base_v3@internal@tbb@@QEBAPEAXXZ 000000018000a0e0 f i concurrent_vector.obj
 0001:000090f0       ??$publish_segment@PEAX@helper@concurrent_vector_base_v3@internal@tbb@@SAXAEAVsegment_t@123@PEAX@Z 000000018000a0f0 f i concurrent_vector.obj
 0001:00009140       ??$publish_segment@Usegment_allocation_failed@concurrent_vector_base_v3@internal@tbb@@@helper@concurrent_vector_base_v3@internal@tbb@@SAXAEAVsegment_t@123@Usegment_allocation_failed@123@@Z 000000018000a140 f i concurrent_vector.obj
 0001:00009190       ??$publish_segment@Usegment_not_used@concurrent_vector_base_v3@internal@tbb@@@helper@concurrent_vector_base_v3@internal@tbb@@SAXAEAVsegment_t@123@Usegment_not_used@123@@Z 000000018000a190 f i concurrent_vector.obj
 0001:000091e0       ??$spin_wait_while@Usegment_not_used_predicate@helper@concurrent_vector_base_v3@internal@tbb@@@internal@tbb@@YAXUsegment_not_used_predicate@helper@concurrent_vector_base_v3@01@@Z 000000018000a1e0 f i concurrent_vector.obj
 0001:00009240       ??$spin_wait_while_eq@U?$atomic@PEAVsegment_t@concurrent_vector_base_v3@internal@tbb@@@tbb@@PEAVsegment_t@concurrent_vector_base_v3@internal@2@@internal@tbb@@YAXAEDU?$atomic@PEAVsegment_t@concurrent_vector_base_v3@internal@tbb@@@1@PEAVsegment_t@concurrent_vector_base_v3@01@@Z 000000018000a240 f i concurrent_vector.obj
 0001:000092a0       ??$store@$01@?$atomic_impl@PEAX@internal@tbb@@QEAAXPEAX@Z 000000018000a2a0 f i concurrent_vector.obj
 0001:00009300       ??$store@$01@?$atomic_impl@_K@internal@tbb@@QEAAX_K@Z 000000018000a300 f i concurrent_vector.obj
 0001:00009360       ??$store@$01@segment_t@concurrent_vector_base_v3@internal@tbb@@QEAAXPEAX@Z 000000018000a360 f i concurrent_vector.obj
 0001:000093f0       ??$store@$01@segment_t@concurrent_vector_base_v3@internal@tbb@@QEAAXUsegment_allocation_failed@123@@Z 000000018000a3f0 f i concurrent_vector.obj
 0001:00009470       ??$store@$01@segment_t@concurrent_vector_base_v3@internal@tbb@@QEAAXUsegment_not_used@123@@Z 000000018000a470 f i concurrent_vector.obj
 0001:000094b0       ??$store@$02@?$atomic_impl@PEAVsegment_t@concurrent_vector_base_v3@internal@tbb@@@internal@tbb@@QEAAXPEAVsegment_t@concurrent_vector_base_v3@12@@Z 000000018000a4b0 f i concurrent_vector.obj
 0001:00009510       ??$store@$02@?$atomic_impl@PEAX@internal@tbb@@QEAAXPEAX@Z 000000018000a510 f i concurrent_vector.obj
 0001:00009570       ??$store@$02@?$atomic_impl@_K@internal@tbb@@QEAAX_K@Z 000000018000a570 f i concurrent_vector.obj
 0001:000095d0       ??$store@$02@segment_t@concurrent_vector_base_v3@internal@tbb@@QEAAXPEAX@Z 000000018000a5d0 f i concurrent_vector.obj
 0001:00009660       ??$store@$02@segment_t@concurrent_vector_base_v3@internal@tbb@@QEAAXUsegment_not_used@123@@Z 000000018000a660 f i concurrent_vector.obj
 0001:000096a0       ??$store@$02PEAVsegment_t@concurrent_vector_base_v3@internal@tbb@@@tbb@@YAXAEAU?$atomic@PEAVsegment_t@concurrent_vector_base_v3@internal@tbb@@@0@PEAVsegment_t@concurrent_vector_base_v3@internal@0@@Z 000000018000a6a0 f i concurrent_vector.obj
 0001:000096e0       ??$store@$02PEAX@tbb@@YAXAEAU?$atomic@PEAX@0@PEAX@Z 000000018000a6e0 f i concurrent_vector.obj
 0001:00009720       ??$store@$02_K@tbb@@YAXAEAU?$atomic@_K@0@_K@Z 000000018000a720 f i concurrent_vector.obj
 0001:00009760       ??$store@_J@?$atomic_load_store_traits@$01@internal@tbb@@SAXAEC_J_J@Z 000000018000a760 f i concurrent_vector.obj
 0001:000097a0       ??$store@_J@?$atomic_load_store_traits@$02@internal@tbb@@SAXAEC_J_J@Z 000000018000a7a0 f i concurrent_vector.obj
 0001:000097e0       ??$swap@$02PEAVsegment_t@concurrent_vector_base_v3@internal@tbb@@@internal@tbb@@YAXAEAU?$atomic@PEAVsegment_t@concurrent_vector_base_v3@internal@tbb@@@1@0@Z 000000018000a7e0 f i concurrent_vector.obj
 0001:00009840       ??$swap@$02PEAX@internal@tbb@@YAXAEAU?$atomic@PEAX@1@0@Z 000000018000a840 f i concurrent_vector.obj
 0001:000098a0       ??$swap@$02_K@internal@tbb@@YAXAEAU?$atomic@_K@1@0@Z 000000018000a8a0 f i concurrent_vector.obj
 0001:00009900       ??$to_bits@PEAVsegment_t@concurrent_vector_base_v3@internal@tbb@@@?$atomic_impl@PEAVsegment_t@concurrent_vector_base_v3@internal@tbb@@@internal@tbb@@CA_JPEAVsegment_t@concurrent_vector_base_v3@12@@Z 000000018000a900 f i concurrent_vector.obj
 0001:00009940       ??$to_bits@PEAX@?$atomic_impl@PEAX@internal@tbb@@CA_JPEAX@Z 000000018000a940 f i concurrent_vector.obj
 0001:00009980       ??$to_bits_ref@$$CB_K@?$atomic_impl@_K@internal@tbb@@CAAEA_JAEB_K@Z 000000018000a980 f i concurrent_vector.obj
 0001:000099c0       ??$to_bits_ref@PEAVsegment_t@concurrent_vector_base_v3@internal@tbb@@@?$atomic_impl@PEAVsegment_t@concurrent_vector_base_v3@internal@tbb@@@internal@tbb@@CAAEA_JAEAPEAVsegment_t@concurrent_vector_base_v3@12@@Z 000000018000a9c0 f i concurrent_vector.obj
 0001:00009a00       ??$to_bits_ref@PEAX@?$atomic_impl@PEAX@internal@tbb@@CAAEA_JAEAPEAX@Z 000000018000aa00 f i concurrent_vector.obj
 0001:00009a40       ??$to_bits_ref@QEAVsegment_t@concurrent_vector_base_v3@internal@tbb@@@?$atomic_impl@PEAVsegment_t@concurrent_vector_base_v3@internal@tbb@@@internal@tbb@@CAAEA_JAEBQEAVsegment_t@concurrent_vector_base_v3@12@@Z 000000018000aa40 f i concurrent_vector.obj
 0001:00009a80       ??$to_bits_ref@QEAX@?$atomic_impl@PEAX@internal@tbb@@CAAEA_JAEBQEAX@Z 000000018000aa80 f i concurrent_vector.obj
 0001:00009ac0       ??$to_bits_ref@SEAVsegment_t@concurrent_vector_base_v3@internal@tbb@@@?$atomic_impl@PEAVsegment_t@concurrent_vector_base_v3@internal@tbb@@@internal@tbb@@CAAEA_JAEDSEAVsegment_t@concurrent_vector_base_v3@12@@Z 000000018000aac0 f i concurrent_vector.obj
 0001:00009b00       ??$to_value@PEAVsegment_t@concurrent_vector_base_v3@internal@tbb@@@?$atomic_impl@PEAVsegment_t@concurrent_vector_base_v3@internal@tbb@@@internal@tbb@@CAPEAVsegment_t@concurrent_vector_base_v3@12@_J@Z 000000018000ab00 f i concurrent_vector.obj
 0001:00009b60       ??$to_value@PEAX@?$atomic_impl@PEAX@internal@tbb@@CAPEAX_J@Z 000000018000ab60 f i concurrent_vector.obj
 0001:00009bc0       ??$uninitialized_fill_n@PEAVsegment_t@concurrent_vector_base_v3@internal@tbb@@_KV1234@@std@@YAPEAVsegment_t@concurrent_vector_base_v3@internal@tbb@@PEAV1234@_KAEBV1234@@Z 000000018000abc0 f i concurrent_vector.obj
 0001:00009c70       ??0?$_Array_const_iterator@Vsegment_t@concurrent_vector_base_v3@internal@tbb@@$0EA@@std@@QEAA@PEBVsegment_t@concurrent_vector_base_v3@internal@tbb@@_K@Z 000000018000ac70 f i concurrent_vector.obj
 0001:00009cd0       ??0?$_Array_iterator@Vsegment_t@concurrent_vector_base_v3@internal@tbb@@$0EA@@std@@QEAA@PEAVsegment_t@concurrent_vector_base_v3@internal@tbb@@_K@Z 000000018000acd0 f i concurrent_vector.obj
 0001:00009d20       ??0?$_Uninitialized_backout@PEAVsegment_t@concurrent_vector_base_v3@internal@tbb@@@std@@QEAA@PEAVsegment_t@concurrent_vector_base_v3@internal@tbb@@@Z 000000018000ad20 f i concurrent_vector.obj
 0001:00009d50       ??0?$converter@PEAVsegment_t@concurrent_vector_base_v3@internal@tbb@@@?$atomic_impl@PEAVsegment_t@concurrent_vector_base_v3@internal@tbb@@@internal@tbb@@QEAA@PEAVsegment_t@concurrent_vector_base_v3@23@@Z 000000018000ad50 f i concurrent_vector.obj
 0001:00009d70       ??0?$converter@PEAVsegment_t@concurrent_vector_base_v3@internal@tbb@@@?$atomic_impl@PEAVsegment_t@concurrent_vector_base_v3@internal@tbb@@@internal@tbb@@QEAA@XZ 000000018000ad70 f i concurrent_vector.obj
 0001:00009d80       ??0?$converter@PEAX@?$atomic_impl@PEAX@internal@tbb@@QEAA@PEAX@Z 000000018000ad80 f i concurrent_vector.obj
 0001:00009da0       ??0?$converter@PEAX@?$atomic_impl@PEAX@internal@tbb@@QEAA@XZ 000000018000ada0 f i concurrent_vector.obj
 0001:00009db0       ??0?$ptr_converter@PEAPEAVsegment_t@concurrent_vector_base_v3@internal@tbb@@@?$atomic_impl@PEAVsegment_t@concurrent_vector_base_v3@internal@tbb@@@internal@tbb@@QEAA@PEAPEAVsegment_t@concurrent_vector_base_v3@23@@Z 000000018000adb0 f i concurrent_vector.obj
 0001:00009dd0       ??0?$ptr_converter@PEAPEAX@?$atomic_impl@PEAX@internal@tbb@@QEAA@PEAPEAX@Z 000000018000add0 f i concurrent_vector.obj
 0001:00009df0       ??0?$ptr_converter@PEBQEAVsegment_t@concurrent_vector_base_v3@internal@tbb@@@?$atomic_impl@PEAVsegment_t@concurrent_vector_base_v3@internal@tbb@@@internal@tbb@@QEAA@PEBQEAVsegment_t@concurrent_vector_base_v3@23@@Z 000000018000adf0 f i concurrent_vector.obj
 0001:00009e10       ??0?$ptr_converter@PEBQEAX@?$atomic_impl@PEAX@internal@tbb@@QEAA@PEBQEAX@Z 000000018000ae10 f i concurrent_vector.obj
 0001:00009e30       ??0?$ptr_converter@PEB_K@?$atomic_impl@_K@internal@tbb@@QEAA@PEB_K@Z 000000018000ae30 f i concurrent_vector.obj
 0001:00009e50       ??0?$ptr_converter@PEDSEAVsegment_t@concurrent_vector_base_v3@internal@tbb@@@?$atomic_impl@PEAVsegment_t@concurrent_vector_base_v3@internal@tbb@@@internal@tbb@@QEAA@PEDSEAVsegment_t@concurrent_vector_base_v3@23@@Z 000000018000ae50 f i concurrent_vector.obj
 0001:00009e70       ??0_Iterator_base12_compatible@std@@QEAA@XZ 000000018000ae70 f i concurrent_vector.obj
 0001:00009ea0       ??0destroy_body@helper@concurrent_vector_base_v3@internal@tbb@@QEAA@P6AXPEAX_K@Z@Z 000000018000aea0 f i concurrent_vector.obj
 0001:00009ec0       ??0helper@concurrent_vector_base_v3@internal@tbb@@QEAA@PEAVsegment_t@123@_K1111@Z 000000018000aec0 f i concurrent_vector.obj
 0001:00009f40       ??0init_body@helper@concurrent_vector_base_v3@internal@tbb@@QEAA@P6AXPEAXPEBX_K@Z1@Z 000000018000af40 f i concurrent_vector.obj
 0001:00009f80       ??0safe_init_body@helper@concurrent_vector_base_v3@internal@tbb@@QEAA@P6AXPEAXPEBX_K@Z1@Z 000000018000af80 f i concurrent_vector.obj
 0001:00009fc0       ??0segment_not_used_predicate@helper@concurrent_vector_base_v3@internal@tbb@@QEAA@AEAVsegment_t@234@@Z 000000018000afc0 f i concurrent_vector.obj
 0001:0000a020       ??0segment_t@concurrent_vector_base_v3@internal@tbb@@QEAA@AEBV0123@@Z 000000018000b020 f i concurrent_vector.obj
 0001:0000a070       ??0segment_t@concurrent_vector_base_v3@internal@tbb@@QEAA@XZ 000000018000b070 f i concurrent_vector.obj
 0001:0000a0b0       ??0segment_value_t@concurrent_vector_base_v3@internal@tbb@@AEAA@PEAX@Z 000000018000b0b0 f i concurrent_vector.obj
 0001:0000a0d0       ??1?$_Uninitialized_backout@PEAVsegment_t@concurrent_vector_base_v3@internal@tbb@@@std@@QEAA@XZ 000000018000b0d0 f i concurrent_vector.obj
 0001:0000a120       ??1helper@concurrent_vector_base_v3@internal@tbb@@QEAA@XZ 000000018000b120 f i concurrent_vector.obj
 0001:0000a1e0       ??1segment_t@concurrent_vector_base_v3@internal@tbb@@QEAA@XZ 000000018000b1e0 f i concurrent_vector.obj
 0001:0000a260       ??4?$atomic@PEAVsegment_t@concurrent_vector_base_v3@internal@tbb@@@tbb@@QEAAPEAVsegment_t@concurrent_vector_base_v3@internal@1@PEAV2341@@Z 000000018000b260 f i concurrent_vector.obj
 0001:0000a2a0       ??4segment_t@concurrent_vector_base_v3@internal@tbb@@QEAAAEAV0123@AEBV0123@@Z 000000018000b2a0 f i concurrent_vector.obj
 0001:0000a2f0       ??8internal@tbb@@YA_NAEBVsegment_value_t@concurrent_vector_base_v3@01@Usegment_allocated@301@@Z 000000018000b2f0 f i concurrent_vector.obj
 0001:0000a340       ??8internal@tbb@@YA_NAEBVsegment_value_t@concurrent_vector_base_v3@01@Usegment_allocation_failed@301@@Z 000000018000b340 f i concurrent_vector.obj
 0001:0000a390       ??8internal@tbb@@YA_NAEBVsegment_value_t@concurrent_vector_base_v3@01@Usegment_not_used@301@@Z 000000018000b390 f i concurrent_vector.obj
 0001:0000a3e0       ??B?$atomic_impl@PEAVsegment_t@concurrent_vector_base_v3@internal@tbb@@@internal@tbb@@QEDAPEAVsegment_t@concurrent_vector_base_v3@12@XZ 000000018000b3e0 f i concurrent_vector.obj
 0001:0000a430       ??Rdestroy_body@helper@concurrent_vector_base_v3@internal@tbb@@QEBAXAEAVsegment_t@234@PEAX_K@Z 000000018000b430 f i concurrent_vector.obj
 0001:0000a4a0       ??Rinit_body@helper@concurrent_vector_base_v3@internal@tbb@@QEBAXAEAVsegment_t@234@PEAX_K@Z 000000018000b4a0 f i concurrent_vector.obj
 0001:0000a4f0       ??Rsafe_init_body@helper@concurrent_vector_base_v3@internal@tbb@@QEBAXAEAVsegment_t@234@PEAX_K@Z 000000018000b4f0 f i concurrent_vector.obj
 0001:0000a560       ??Rsegment_not_used_predicate@helper@concurrent_vector_base_v3@internal@tbb@@QEBA_NXZ 000000018000b560 f i concurrent_vector.obj
 0001:0000a5b0       ??_Gsegment_t@concurrent_vector_base_v3@internal@tbb@@QEAAPEAXI@Z 000000018000b5b0 f i concurrent_vector.obj
 0001:0000a610       ?_Release@?$_Uninitialized_backout@PEAVsegment_t@concurrent_vector_base_v3@internal@tbb@@@std@@QEAAPEAVsegment_t@concurrent_vector_base_v3@internal@tbb@@XZ 000000018000b610 f i concurrent_vector.obj
 0001:0000a640       ?_Seek_to@?$_Array_const_iterator@Vsegment_t@concurrent_vector_base_v3@internal@tbb@@$0EA@@std@@QEAAXPEBVsegment_t@concurrent_vector_base_v3@internal@tbb@@@Z 000000018000b640 f i concurrent_vector.obj
 0001:0000a670       ?_Unwrapped@?$_Array_const_iterator@Vsegment_t@concurrent_vector_base_v3@internal@tbb@@$0EA@@std@@QEBAPEBVsegment_t@concurrent_vector_base_v3@internal@tbb@@XZ 000000018000b670 f i concurrent_vector.obj
 0001:0000a690       ?_Unwrapped@?$_Array_iterator@Vsegment_t@concurrent_vector_base_v3@internal@tbb@@$0EA@@std@@QEBAPEAVsegment_t@concurrent_vector_base_v3@internal@tbb@@XZ 000000018000b690 f i concurrent_vector.obj
 0001:0000a6c0       ?_Verify_offset@?$_Array_const_iterator@Vsegment_t@concurrent_vector_base_v3@internal@tbb@@$0EA@@std@@QEBAX_J@Z 000000018000b6c0 f i concurrent_vector.obj
 0001:0000a8b0       ?acquire_segment@helper@concurrent_vector_base_v3@internal@tbb@@SAAEAVsegment_t@234@AEAV234@_K1_N@Z 000000018000b8b0 f i concurrent_vector.obj
 0001:0000a9d0       ?allocate_segment@helper@concurrent_vector_base_v3@internal@tbb@@SAPEAXAEAV234@_K@Z 000000018000b9d0 f i concurrent_vector.obj
 0001:0000aa30       ?assign_first_segment_if_necessary@helper@concurrent_vector_base_v3@internal@tbb@@SAXAEAV234@_K@Z 000000018000ba30 f i concurrent_vector.obj
 0001:0000aa90       ?compare_and_swap@?$atomic_impl@PEAVsegment_t@concurrent_vector_base_v3@internal@tbb@@@internal@tbb@@QEAAPEAVsegment_t@concurrent_vector_base_v3@23@PEAV4523@0@Z 000000018000ba90 f i concurrent_vector.obj
 0001:0000ab00       ?enforce_segment_allocated@internal@tbb@@YAXAEBVsegment_value_t@concurrent_vector_base_v3@12@W4exception_id@12@@Z 000000018000bb00 f i concurrent_vector.obj
 0001:0000ab50       ?extend_table_if_necessary@helper@concurrent_vector_base_v3@internal@tbb@@SAXAEAV234@_K1@Z 000000018000bb50 f i concurrent_vector.obj
 0001:0000abc0       ?fetch_and_add@?$atomic_traits@$07$00@internal@tbb@@SA_JPECX_J@Z 000000018000bbc0 f i concurrent_vector.obj
 0001:0000ac00       ?find_segment_end@helper@concurrent_vector_base_v3@internal@tbb@@SA_KAEBV234@@Z 000000018000bc00 f i concurrent_vector.obj
 0001:0000acc0       ?first_segment@helper@concurrent_vector_base_v3@internal@tbb@@QEAAXXZ 000000018000bcc0 f i concurrent_vector.obj
 0001:0000ae20       ?get_segment_value@helper@concurrent_vector_base_v3@internal@tbb@@QEAA?AVsegment_value_t@234@_K_N@Z 000000018000be20 f i concurrent_vector.obj
 0001:0000aef0       ?incompact_predicate@helper@concurrent_vector_base_v3@internal@tbb@@SA_N_K@Z 000000018000bef0 f i concurrent_vector.obj
 0001:0000af60       ?load@?$machine_load_store_relaxed@_J$07@internal@tbb@@SA_JAED_J@Z 000000018000bf60 f i concurrent_vector.obj
 0001:0000af70       ?next_segment@helper@concurrent_vector_base_v3@internal@tbb@@QEAAXXZ 000000018000bf70 f i concurrent_vector.obj
 0001:0000b010       ?segment_base@concurrent_vector_base_v3@internal@tbb@@KA_K_K@Z 000000018000c010 f i concurrent_vector.obj
 0001:0000b050       ?segment_index_of@concurrent_vector_base_v3@internal@tbb@@KA_K_K@Z 000000018000c050 f i concurrent_vector.obj
 0001:0000b090       ?segment_size@concurrent_vector_base_v3@internal@tbb@@KA_K_K@Z 000000018000c090 f i concurrent_vector.obj
 0001:0000b0d0       ?store@?$machine_load_store_relaxed@_J$07@internal@tbb@@SAXAEC_J_J@Z 000000018000c0d0 f i concurrent_vector.obj
 0001:0000b0f0       ?store_with_release@?$atomic_impl@PEAVsegment_t@concurrent_vector_base_v3@internal@tbb@@@internal@tbb@@IEAAPEAVsegment_t@concurrent_vector_base_v3@23@PEAV4523@@Z 000000018000c0f0 f i concurrent_vector.obj
 0001:0000b150       ?swap@internal@tbb@@YAXAEAVsegment_t@concurrent_vector_base_v3@12@0@Z 000000018000c150 f i concurrent_vector.obj
 0001:0000b1a0       ?swap@segment_t@concurrent_vector_base_v3@internal@tbb@@QEAAXAEAV1234@@Z 000000018000c1a0 f i concurrent_vector.obj
 0001:0000b1e0       ?dynamic_link@internal@tbb@@YA_NPEBDQEBUdynamic_link_descriptor@12@_KPEAPEAUHINSTANCE__@@H@Z 000000018000c1e0 f   dynamic_link.obj
 0001:0000b2d0       ?dynamic_unlink@internal@tbb@@YAXPEAUHINSTANCE__@@@Z 000000018000c2d0 f   dynamic_link.obj
 0001:0000b310       ?dynamic_unlink_all@internal@tbb@@YAXXZ 000000018000c310 f   dynamic_link.obj
 0001:0000b5e0       ?init_atomic_incrementer@internal@tbb@@YAXAEAU?$atomic@_K@2@@Z 000000018000c5e0 f   dynamic_link.obj
 0001:0000b8d0       ?init_dynamic_link_data@internal@tbb@@YAXXZ 000000018000c8d0 f   dynamic_link.obj
 0001:0000ba50       ?dynamic_load@internal@tbb@@YAPEAUHINSTANCE__@@PEBDQEBUdynamic_link_descriptor@12@_K@Z 000000018000ca50 f   dynamic_link.obj
 0001:0000bbe0       ??$atomic_do_once@P6AXXZ@internal@tbb@@YAXAEBQ6AXXZAEAU?$atomic@W4do_once_state@internal@tbb@@@1@@Z 000000018000cbe0 f i dynamic_link.obj
 0001:0000bc70       ??$compare_and_swap@$0A@@?$atomic_impl@W4do_once_state@internal@tbb@@@internal@tbb@@QEAA?AW4do_once_state@12@W4312@0@Z 000000018000cc70 f i dynamic_link.obj
 0001:0000bcd0       ??$spin_wait_while_eq@U?$atomic@W4do_once_state@internal@tbb@@@tbb@@W4do_once_state@internal@2@@internal@tbb@@YAXAEDU?$atomic@W4do_once_state@internal@tbb@@@1@W4do_once_state@01@@Z 000000018000ccd0 f i dynamic_link.obj
 0001:0000bd30       ??$suppress_unused_warning@PEBD@internal@tbb@@YAXAEBQEBD@Z 000000018000cd30 f i dynamic_link.obj
 0001:0000bd40       ??$suppress_unused_warning@PEBDQEBUdynamic_link_descriptor@internal@tbb@@_K@internal@tbb@@YAXAEBQEBDAEBQEBUdynamic_link_descriptor@01@AEB_K@Z 000000018000cd40 f i dynamic_link.obj
 0001:0000bd60       ??$to_bits@W4do_once_state@internal@tbb@@@?$atomic_impl@W4do_once_state@internal@tbb@@@internal@tbb@@CAHW4do_once_state@12@@Z 000000018000cd60 f i dynamic_link.obj
 0001:0000bda0       ??$to_bits_ref@$$CDW4do_once_state@internal@tbb@@@?$atomic_impl@W4do_once_state@internal@tbb@@@internal@tbb@@CAAEAHAEDW4do_once_state@12@@Z 000000018000cda0 f i dynamic_link.obj
 0001:0000bde0       ??$to_bits_ref@W4do_once_state@internal@tbb@@@?$atomic_impl@W4do_once_state@internal@tbb@@@internal@tbb@@CAAEAHAEAW4do_once_state@12@@Z 000000018000cde0 f i dynamic_link.obj
 0001:0000be20       ??$to_value@W4do_once_state@internal@tbb@@@?$atomic_impl@W4do_once_state@internal@tbb@@@internal@tbb@@CA?AW4do_once_state@12@H@Z 000000018000ce20 f i dynamic_link.obj
 0001:0000be70       ??0?$converter@W4do_once_state@internal@tbb@@@?$atomic_impl@W4do_once_state@internal@tbb@@@internal@tbb@@QEAA@W4do_once_state@23@@Z 000000018000ce70 f i dynamic_link.obj
 0001:0000be90       ??0?$converter@W4do_once_state@internal@tbb@@@?$atomic_impl@W4do_once_state@internal@tbb@@@internal@tbb@@QEAA@XZ 000000018000ce90 f i dynamic_link.obj
 0001:0000bea0       ??0?$ptr_converter@PEAW4do_once_state@internal@tbb@@@?$atomic_impl@W4do_once_state@internal@tbb@@@internal@tbb@@QEAA@PEAW4do_once_state@23@@Z 000000018000cea0 f i dynamic_link.obj
 0001:0000bec0       ??0?$ptr_converter@PEDW4do_once_state@internal@tbb@@@?$atomic_impl@W4do_once_state@internal@tbb@@@internal@tbb@@QEAA@PEDW4do_once_state@23@@Z 000000018000cec0 f i dynamic_link.obj
 0001:0000bee0       ??0static_init_dl_data_t@internal@tbb@@QEAA@XZ 000000018000cee0 f i dynamic_link.obj
 0001:0000bf10       ??4?$atomic@W4do_once_state@internal@tbb@@@tbb@@QEAA?AW4do_once_state@internal@1@W4231@@Z 000000018000cf10 f i dynamic_link.obj
 0001:0000bf50       ??B?$atomic_impl@W4do_once_state@internal@tbb@@@internal@tbb@@QEDA?AW4do_once_state@12@XZ 000000018000cf50 f i dynamic_link.obj
 0001:0000bf90       ?add@handles_t@internal@tbb@@QEAAXAEBQEAUHINSTANCE__@@@Z 000000018000cf90 f i dynamic_link.obj
 0001:0000c010       ?compare_and_swap@?$atomic_impl@W4do_once_state@internal@tbb@@@internal@tbb@@QEAA?AW4do_once_state@23@W4423@0@Z 000000018000d010 f i dynamic_link.obj
 0001:0000c050       ?compare_and_swap@?$atomic_traits@$03$0A@@internal@tbb@@SAHPECXHH@Z 000000018000d050 f i dynamic_link.obj
 0001:0000c090       ?free@handles_t@internal@tbb@@QEAAXXZ 000000018000d090 f i dynamic_link.obj
 0001:0000c100       ?init@handles_t@internal@tbb@@QEAAXXZ 000000018000d100 f i dynamic_link.obj
 0001:0000c140       ?run_initializer@internal@tbb@@YAXP6AXXZAEAU?$atomic@W4do_once_state@internal@tbb@@@2@@Z 000000018000d140 f i dynamic_link.obj
 0001:0000c180       ?store_with_release@?$atomic_impl@W4do_once_state@internal@tbb@@@internal@tbb@@IEAA?AW4do_once_state@23@W4423@@Z 000000018000d180 f i dynamic_link.obj
 0001:0000c1e0       ?strrchr@@YAPEADQEADH@Z    000000018000d1e0 f i dynamic_link.obj
 0001:0000c220       __itt_mark_pt_region_begin 000000018000d220 f   itt_notify.obj
 0001:0000c230       __itt_mark_pt_region_end   000000018000d230 f   itt_notify.obj
 0001:0000c240       __itt_set_error_handler    000000018000d240 f   itt_notify.obj
 0001:0000c290       __itt_fini_ittlib          000000018000d290 f   itt_notify.obj
 0001:00012e80       __itt_init_ittlib          0000000180013e80 f   itt_notify.obj
 0001:000132c0       ?__TBB_load_ittnotify@internal@tbb@@YAHXZ 00000001800142c0 f   itt_notify.obj
 0001:000132f0       ?__itt_interlocked_increment@@YAJPECJ@Z 00000001800142f0 f i itt_notify.obj
 0001:00013310       ?NFS_GetLineSize@internal@tbb@@YA_KXZ 0000000180014310 f   cache_aligned_allocator.obj
 0001:00013330       ?NFS_Allocate@internal@tbb@@YAPEAX_K0PEAX@Z 0000000180014330 f   cache_aligned_allocator.obj
 0001:00013480       ?NFS_Free@internal@tbb@@YAXPEAX@Z 0000000180014480 f   cache_aligned_allocator.obj
 0001:000134c0       ?deallocate_via_handler_v3@internal@tbb@@YAXPEAX@Z 00000001800144c0 f   cache_aligned_allocator.obj
 0001:00013500       ?allocate_via_handler_v3@internal@tbb@@YAPEAX_K@Z 0000000180014500 f   cache_aligned_allocator.obj
 0001:00013560       ?is_malloc_used_v3@internal@tbb@@YA_NXZ 0000000180014560 f   cache_aligned_allocator.obj
 0001:00013a50       ?initialize_handler_pointers@internal@tbb@@YAXXZ 0000000180014a50 f   cache_aligned_allocator.obj
 0001:00013b40       ?initialize_cache_aligned_allocator@internal@tbb@@YAXXZ 0000000180014b40 f   cache_aligned_allocator.obj
 0001:00013b80       ??$is_aligned@X@internal@tbb@@YA_NPEAX_K@Z 0000000180014b80 f i cache_aligned_allocator.obj
 0001:00013c00       ?set_end_of_input@filter@tbb@@IEAAXXZ 0000000180014c00 f   pipeline.obj
 0001:00013ce0       ??1filter@tbb@@UEAA@XZ     0000000180014ce0 f   pipeline.obj
 0001:00013dd0       ?has_more_work@filter@tbb@@AEAA_NXZ 0000000180014dd0 f   pipeline.obj
 0001:00013e90       ?try_process_item@thread_bound_filter@tbb@@QEAA?AW4result_type@12@XZ 0000000180014e90 f   pipeline.obj
 0001:00013ed0       ?process_item@thread_bound_filter@tbb@@QEAA?AW4result_type@12@XZ 0000000180014ed0 f   pipeline.obj
 0001:00013f10       ?internal_process_item@thread_bound_filter@tbb@@AEAA?AW4result_type@12@_N@Z 0000000180014f10 f   pipeline.obj
 0001:00014270       ??0pipeline@tbb@@QEAA@XZ   0000000180015270 f   pipeline.obj
 0001:00014310       ??1pipeline@tbb@@UEAA@XZ   0000000180015310 f   pipeline.obj
 0001:00014360       ?add_filter@pipeline@tbb@@QEAAXAEAVfilter@2@@Z 0000000180015360 f   pipeline.obj
 0001:000147a0       ?run@pipeline@tbb@@QEAAX_K@Z 00000001800157a0 f   pipeline.obj
 0001:000148a0       ?run@pipeline@tbb@@QEAAX_KAEAVtask_group_context@2@@Z 00000001800158a0 f   pipeline.obj
 0001:00014ac0       ?clear@pipeline@tbb@@QEAAXXZ 0000000180015ac0 f   pipeline.obj
 0001:00014c00       ?remove_filter@pipeline@tbb@@AEAAXAEAVfilter@2@@Z 0000000180015c00 f   pipeline.obj
 0001:00014e40       ?inject_token@pipeline@tbb@@AEAAXAEAVtask@2@@Z 0000000180015e40 f   pipeline.obj
 0001:00014ea0       ?clear_filters@pipeline@tbb@@AEAAXXZ 0000000180015ea0 f   pipeline.obj
 0001:00014f30       ?grow@input_buffer@internal@tbb@@AEAAXK@Z 0000000180015f30 f   pipeline.obj
 0001:000150f0       ?execute@stage_task@internal@tbb@@UEAAPEAVtask@3@XZ 00000001800160f0 f   pipeline.obj
 0001:00015890       ??$fetch_and_add@$0A@@?$atomic_impl_with_arithmetic@KKD@internal@tbb@@QEAAKK@Z 0000000180016890 f i pipeline.obj
 0001:000158d0       ??$note_done@Vstage_task@internal@tbb@@@input_buffer@internal@tbb@@QEAAXKAEAVstage_task@12@@Z 00000001800168d0 f i pipeline.obj
 0001:00015a20       ??$poison_pointer@Utask_info@internal@tbb@@@internal@tbb@@YAXAEAPEAUtask_info@01@@Z 0000000180016a20 f i pipeline.obj
 0001:00015a40       ??$suppress_unused_warning@PEAVtask@tbb@@@internal@tbb@@YAXAEBQEAVtask@1@@Z 0000000180016a40 f i pipeline.obj
 0001:00015a50       ??$to_bits@K@?$atomic_impl@K@internal@tbb@@CAHK@Z 0000000180016a50 f i pipeline.obj
 0001:00015a90       ??$to_bits_ref@$$CDK@?$atomic_impl@K@internal@tbb@@CAAEAHAEDK@Z 0000000180016a90 f i pipeline.obj
 0001:00015ad0       ??$to_bits_ref@K@?$atomic_impl@K@internal@tbb@@CAAEAHAEAK@Z 0000000180016ad0 f i pipeline.obj
 0001:00015b10       ??$to_value@K@?$atomic_impl@K@internal@tbb@@CAKH@Z 0000000180016b10 f i pipeline.obj
 0001:00015b60       ??0?$cache_aligned_allocator@Utask_info@internal@tbb@@@tbb@@QEAA@XZ 0000000180016b60 f i pipeline.obj
 0001:00015b70       ??0?$converter@K@?$atomic_impl@K@internal@tbb@@QEAA@K@Z 0000000180016b70 f i pipeline.obj
 0001:00015b90       ??0?$converter@K@?$atomic_impl@K@internal@tbb@@QEAA@XZ 0000000180016b90 f i pipeline.obj
 0001:00015ba0       ??0?$ptr_converter@PEAK@?$atomic_impl@K@internal@tbb@@QEAA@PEAK@Z 0000000180016ba0 f i pipeline.obj
 0001:00015bc0       ??0?$ptr_converter@PEDK@?$atomic_impl@K@internal@tbb@@QEAA@PEDK@Z 0000000180016bc0 f i pipeline.obj
 0001:00015be0       ??0allocate_additional_child_of_proxy@internal@tbb@@QEAA@AEAVtask@2@@Z 0000000180016be0 f i pipeline.obj
 0001:00015c40       ??0allocate_root_with_context_proxy@internal@tbb@@QEAA@AEAVtask_group_context@2@@Z 0000000180016c40 f i pipeline.obj
 0001:00015c60       ??0input_buffer@internal@tbb@@QEAA@_N0@Z 0000000180016c60 f i pipeline.obj
 0001:00015d60       ??0pipeline_cleaner@internal@tbb@@QEAA@AEAVpipeline@2@@Z 0000000180016d60 f i pipeline.obj
 0001:00015d80       ??0pipeline_root_task@internal@tbb@@QEAA@AEAVpipeline@2@@Z 0000000180016d80 f i pipeline.obj
 0001:00015ec0       ??0semaphore@internal@tbb@@QEAA@_K@Z 0000000180016ec0 f i pipeline.obj
 0001:00015f00       ??0stage_task@internal@tbb@@QEAA@AEAVpipeline@2@@Z 0000000180016f00 f i pipeline.obj
 0001:00015f90       ??0stage_task@internal@tbb@@QEAA@AEAVpipeline@2@PEAVfilter@2@AEBUtask_info@12@@Z 0000000180016f90 f i pipeline.obj
 0001:00016020       ??0task@tbb@@IEAA@XZ       0000000180017020 f i pipeline.obj
 0001:00016070       ??0task_group_context@tbb@@QEAA@W4kind_type@01@_K@Z 0000000180017070 f i pipeline.obj
 0001:000160e0       ??0task_list@tbb@@QEAA@XZ  00000001800170e0 f i pipeline.obj
 0001:00016110       ??1input_buffer@internal@tbb@@QEAA@XZ 0000000180017110 f i pipeline.obj
 0001:000161e0       ??1pipeline_cleaner@internal@tbb@@QEAA@XZ 00000001800171e0 f i pipeline.obj
 0001:00016250       ??1pipeline_root_task@internal@tbb@@UEAA@XZ 0000000180017250 f i pipeline.obj
 0001:00016280       ??1semaphore@internal@tbb@@QEAA@XZ 0000000180017280 f i pipeline.obj
 0001:000162c0       ??1stage_task@internal@tbb@@UEAA@XZ 00000001800172c0 f i pipeline.obj
 0001:000163a0       ??1task@tbb@@UEAA@XZ       00000001800173a0 f i pipeline.obj
 0001:000163c0       ??1task_list@tbb@@QEAA@XZ  00000001800173c0 f i pipeline.obj
 0001:000163d0       ??2@YAPEAX_KAEBVallocate_additional_child_of_proxy@internal@tbb@@@Z 00000001800173d0 f i pipeline.obj
 0001:00016410       ??2@YAPEAX_KAEBVallocate_child_proxy@internal@tbb@@@Z 0000000180017410 f i pipeline.obj
 0001:00016450       ??2@YAPEAX_KAEBVallocate_root_with_context_proxy@internal@tbb@@@Z 0000000180017450 f i pipeline.obj
 0001:00016490       ??3@YAXPEAXAEBVallocate_additional_child_of_proxy@internal@tbb@@@Z 0000000180017490 f i pipeline.obj
 0001:000164e0       ??3@YAXPEAXAEBVallocate_child_proxy@internal@tbb@@@Z 00000001800174e0 f i pipeline.obj
 0001:00016530       ??3@YAXPEAXAEBVallocate_root_with_context_proxy@internal@tbb@@@Z 0000000180017530 f i pipeline.obj
 0001:00016580       ??4?$atomic@K@tbb@@QEAAKK@Z 0000000180017580 f i pipeline.obj
 0001:000165c0       ??B?$atomic_impl@K@internal@tbb@@QEDAKXZ 00000001800175c0 f i pipeline.obj
 0001:00016600       ??E?$atomic_impl_with_arithmetic@KKD@internal@tbb@@QEAAKH@Z 0000000180017600 f i pipeline.obj
 0001:00016640       ??E?$atomic_impl_with_arithmetic@KKD@internal@tbb@@QEAAKXZ 0000000180017640 f i pipeline.obj
 0001:00016680       ??F?$atomic_impl_with_arithmetic@KKD@internal@tbb@@QEAAKH@Z 0000000180017680 f i pipeline.obj
 0001:000166c0       ??F?$atomic_impl_with_arithmetic@KKD@internal@tbb@@QEAAKXZ 00000001800176c0 f i pipeline.obj
 0001:00016700       ??_Efilter@tbb@@UEAAPEAXI@Z 0000000180017700 f i pipeline.obj
 0001:00016700       ??_Gfilter@tbb@@UEAAPEAXI@Z 0000000180017700 f i pipeline.obj
 0001:00016760       ??_Ginput_buffer@internal@tbb@@QEAAPEAXI@Z 0000000180017760 f i pipeline.obj
 0001:000167c0       ??_Gpipeline@tbb@@UEAAPEAXI@Z 00000001800177c0 f i pipeline.obj
 0001:000167c0       ??_Epipeline@tbb@@UEAAPEAXI@Z 00000001800177c0 f i pipeline.obj
 0001:00016820       ??_Gpipeline_root_task@internal@tbb@@UEAAPEAXI@Z 0000000180017820 f i pipeline.obj
 0001:00016820       ??_Epipeline_root_task@internal@tbb@@UEAAPEAXI@Z 0000000180017820 f i pipeline.obj
 0001:00016880       ??_Gsemaphore@internal@tbb@@QEAAPEAXI@Z 0000000180017880 f i pipeline.obj
 0001:000168e0       ??_Gstage_task@internal@tbb@@UEAAPEAXI@Z 00000001800178e0 f i pipeline.obj
 0001:000168e0       ??_Estage_task@internal@tbb@@UEAAPEAXI@Z 00000001800178e0 f i pipeline.obj
 0001:00016940       ??_Etask@tbb@@UEAAPEAXI@Z  0000000180017940 f i pipeline.obj
 0001:00016940       ??_Gtask@tbb@@UEAAPEAXI@Z  0000000180017940 f i pipeline.obj
 0001:000169a0       ?P@semaphore@internal@tbb@@QEAAXXZ 00000001800179a0 f i pipeline.obj
 0001:000169e0       ?V@semaphore@internal@tbb@@QEAAXXZ 00000001800179e0 f i pipeline.obj
 0001:00016a20       ?allocate@?$cache_aligned_allocator@Utask_info@internal@tbb@@@tbb@@QEAAPEAUtask_info@internal@2@_KPEBX@Z 0000000180017a20 f i pipeline.obj
 0001:00016a70       ?allocate_additional_child_of@task_base@internal@interface5@tbb@@SA?AVallocate_additional_child_of_proxy@24@AEAVtask@4@@Z 0000000180017a70 f i pipeline.obj
 0001:00016ab0       ?allocate_child@task@tbb@@QEAAAEAVallocate_child_proxy@internal@2@XZ 0000000180017ab0 f i pipeline.obj
 0001:00016ac0       ?allocate_root@task@tbb@@SA?AVallocate_root_with_context_proxy@internal@2@AEAVtask_group_context@2@@Z 0000000180017ac0 f i pipeline.obj
 0001:00016b00       ?clear@input_buffer@internal@tbb@@QEAAXPEAVfilter@3@@Z 0000000180017b00 f i pipeline.obj
 0001:00016bc0       ?clear@task_list@tbb@@QEAAXXZ 0000000180017bc0 f i pipeline.obj
 0001:00016bf0       ?create@?$basic_tls@_J@internal@tbb@@QEAAHXZ 0000000180017bf0 f i pipeline.obj
 0001:00016c40       ?create_my_tls@input_buffer@internal@tbb@@QEAAXXZ 0000000180017c40 f i pipeline.obj
 0001:00016ca0       ?create_sema@input_buffer@internal@tbb@@AEAAX_K@Z 0000000180017ca0 f i pipeline.obj
 0001:00016d50       ?deallocate@?$cache_aligned_allocator@Utask_info@internal@tbb@@@tbb@@QEAAXPEAUtask_info@internal@2@_K@Z 0000000180017d50 f i pipeline.obj
 0001:00016d90       ?destroy@?$basic_tls@_J@internal@tbb@@QEAAHXZ 0000000180017d90 f i pipeline.obj
 0001:00016dd0       ?destroy_my_tls@input_buffer@internal@tbb@@QEAAXXZ 0000000180017dd0 f i pipeline.obj
 0001:00016e20       ?execute@pipeline_root_task@internal@tbb@@EEAAPEAVtask@3@XZ 0000000180017e20 f i pipeline.obj
 0001:000172f0       ?fetch_and_add@?$atomic_impl_with_arithmetic@KKD@internal@tbb@@QEAAKK@Z 00000001800182f0 f i pipeline.obj
 0001:00017330       ?finalize@filter@tbb@@UEAAXPEAX@Z 0000000180018330 f i pipeline.obj
 0001:00017340       ?free_sema@input_buffer@internal@tbb@@AEAAXXZ 0000000180018340 f i pipeline.obj
 0001:000173d0       ?get@?$basic_tls@_J@internal@tbb@@QEAA_JXZ 00000001800183d0 f i pipeline.obj
 0001:00017410       ?has_item@input_buffer@internal@tbb@@QEAA_NXZ 0000000180018410 f i pipeline.obj
 0001:000174a0       ?init_semaphore@semaphore@internal@tbb@@AEAAX_K@Z 00000001800184a0 f i pipeline.obj
 0001:00017500       ?inlineCreateSemaphoreEx@@YAPEAXPEAU_SECURITY_ATTRIBUTES@@JJPEB_WKK@Z 0000000180018500 f i pipeline.obj
 0001:00017550       ?is_bound@filter@tbb@@QEBA_NXZ 0000000180018550 f i pipeline.obj
 0001:000175a0       ?is_cancelled@task@tbb@@QEBA_NXZ 00000001800185a0 f i pipeline.obj
 0001:000175e0       ?is_ordered@filter@tbb@@QEBA_NXZ 00000001800185e0 f i pipeline.obj
 0001:00017630       ?is_serial@filter@tbb@@QEBA_NXZ 0000000180018630 f i pipeline.obj
 0001:00017650       ?my_tls_end_of_input@input_buffer@internal@tbb@@QEAA_NXZ 0000000180018650 f i pipeline.obj
 0001:000176b0       ?not_in_pipeline@filter@tbb@@CAPEAV12@XZ 00000001800186b0 f i pipeline.obj
 0001:000176c0       ?object_may_be_null@filter@tbb@@QEAA_NXZ 00000001800186c0 f i pipeline.obj
 0001:00017710       ?parent@task@tbb@@QEBAPEAV12@XZ 0000000180018710 f i pipeline.obj
 0001:00017750       ?prefix@task@tbb@@AEBAAEAVtask_prefix@internal@2@PEAUversion_tag_v3@42@@Z 0000000180018750 f i pipeline.obj
 0001:00017780       ?push_back@task_list@tbb@@QEAAXAEAVtask@2@@Z 0000000180018780 f i pipeline.obj
 0001:000177f0       ?put_token@input_buffer@internal@tbb@@QEAA_NAEAUtask_info@23@_N@Z 00000001800187f0 f i pipeline.obj
 0001:00017a90       ?recycle_as_continuation@task@tbb@@QEAAXXZ 0000000180018a90 f i pipeline.obj
 0001:00017b00       ?reset@stage_task@internal@tbb@@QEAAXXZ 0000000180018b00 f i pipeline.obj
 0001:00017b60       ?reset@task_info@internal@tbb@@QEAAXXZ 0000000180018b60 f i pipeline.obj
 0001:00017ba0       ?return_item@input_buffer@internal@tbb@@QEAA_NAEAUtask_info@23@_N@Z 0000000180018ba0 f i pipeline.obj
 0001:00017cd0       ?sema_P@input_buffer@internal@tbb@@AEAAXXZ 0000000180018cd0 f i pipeline.obj
 0001:00017d30       ?sema_V@input_buffer@internal@tbb@@AEAAXXZ 0000000180018d30 f i pipeline.obj
 0001:00017d90       ?set@?$basic_tls@_J@internal@tbb@@QEAAX_J@Z 0000000180018d90 f i pipeline.obj
 0001:00017dd0       ?set_my_tls_end_of_input@input_buffer@internal@tbb@@QEAAXXZ 0000000180018dd0 f i pipeline.obj
 0001:00017e10       ?set_ref_count@task@tbb@@QEAAXH@Z 0000000180018e10 f i pipeline.obj
 0001:00017e50       ?spawn@task_base@internal@interface5@tbb@@SAXAEAVtask@4@@Z 0000000180018e50 f i pipeline.obj
 0001:00017ec0       ?spawn@task_base@internal@interface5@tbb@@SAXAEAVtask_list@4@@Z 0000000180018ec0 f i pipeline.obj
 0001:00017f40       ?spawn_root_and_wait@task@tbb@@SAXAEAV12@@Z 0000000180018f40 f i pipeline.obj
 0001:00017fb0       ?spawn_stage_task@stage_task@internal@tbb@@QEAAXAEBUtask_info@23@@Z 0000000180018fb0 f i pipeline.obj
 0001:00018070       ?store_with_release@?$atomic_impl@K@internal@tbb@@IEAAKK@Z 0000000180019070 f i pipeline.obj
 0001:00018170       ?acquire@scoped_lock@queuing_mutex@tbb@@QEAAXAEAV23@@Z 0000000180019170 f   queuing_mutex.obj
 0001:000182b0       ?try_acquire@scoped_lock@queuing_mutex@tbb@@QEAA_NAEAV23@@Z 00000001800192b0 f   queuing_mutex.obj
 0001:00018380       ?release@scoped_lock@queuing_mutex@tbb@@QEAAXXZ 0000000180019380 f   queuing_mutex.obj
 0001:00018480       ?internal_construct@queuing_mutex@tbb@@QEAAXXZ 0000000180019480 f   queuing_mutex.obj
 0001:000184d0       ??$__TBB_load_with_acquire@_K@internal@tbb@@YA_KAED_K@Z 00000001800194d0 f i queuing_mutex.obj
 0001:00018500       ??$__TBB_store_with_release@_KH@internal@tbb@@YAXAEC_KH@Z 0000000180019500 f i queuing_mutex.obj
 0001:00018540       ??$compare_and_swap@$01@?$atomic_impl@PEAVscoped_lock@queuing_mutex@tbb@@@internal@tbb@@QEAAPEAVscoped_lock@queuing_mutex@2@PEAV342@0@Z 0000000180019540 f i queuing_mutex.obj
 0001:000185b0       ??$fetch_and_store@$01@?$atomic_impl@PEAVscoped_lock@queuing_mutex@tbb@@@internal@tbb@@QEAAPEAVscoped_lock@queuing_mutex@2@PEAV342@@Z 00000001800195b0 f i queuing_mutex.obj
 0001:00018600       ??$poison_pointer@Vscoped_lock@queuing_mutex@tbb@@@internal@tbb@@YAXAEAPEAVscoped_lock@queuing_mutex@1@@Z 0000000180019600 f i queuing_mutex.obj
 0001:00018620       ??$spin_wait_while_eq@PEAVscoped_lock@queuing_mutex@tbb@@PEAV123@@internal@tbb@@YAXAEDSEAVscoped_lock@queuing_mutex@1@PEAV231@@Z 0000000180019620 f i queuing_mutex.obj
 0001:00018680       ??$spin_wait_while_eq@_KK@internal@tbb@@YAXAED_KK@Z 0000000180019680 f i queuing_mutex.obj
 0001:000186e0       ??$to_bits@PEAVscoped_lock@queuing_mutex@tbb@@@?$atomic_impl@PEAVscoped_lock@queuing_mutex@tbb@@@internal@tbb@@CA_JPEAVscoped_lock@queuing_mutex@2@@Z 00000001800196e0 f i queuing_mutex.obj
 0001:00018720       ??$to_value@PEAVscoped_lock@queuing_mutex@tbb@@@?$atomic_impl@PEAVscoped_lock@queuing_mutex@tbb@@@internal@tbb@@CAPEAVscoped_lock@queuing_mutex@2@_J@Z 0000000180019720 f i queuing_mutex.obj
 0001:00018780       ??0?$converter@PEAVscoped_lock@queuing_mutex@tbb@@@?$atomic_impl@PEAVscoped_lock@queuing_mutex@tbb@@@internal@tbb@@QEAA@PEAVscoped_lock@queuing_mutex@3@@Z 0000000180019780 f i queuing_mutex.obj
 0001:000187a0       ??0?$converter@PEAVscoped_lock@queuing_mutex@tbb@@@?$atomic_impl@PEAVscoped_lock@queuing_mutex@tbb@@@internal@tbb@@QEAA@XZ 00000001800197a0 f i queuing_mutex.obj
 0001:000187b0       ?compare_and_swap@?$atomic_traits@$07$01@internal@tbb@@SA_JPECX_J1@Z 00000001800197b0 f i queuing_mutex.obj
 0001:00018800       ?fetch_and_store@?$atomic_traits@$07$01@internal@tbb@@SA_JPECX_J@Z 0000000180019800 f i queuing_mutex.obj
 0001:00018840       ?initialize@scoped_lock@queuing_mutex@tbb@@AEAAXXZ 0000000180019840 f i queuing_mutex.obj
 0001:00018890       ?load_with_acquire@?$machine_load_store@_K$07@internal@tbb@@SA_KAED_K@Z 0000000180019890 f i queuing_mutex.obj
 0001:000188d0       ?store_with_release@?$machine_load_store@_K$07@internal@tbb@@SAXAEC_K_K@Z 00000001800198d0 f i queuing_mutex.obj
 0001:00018a10       ?acquire@scoped_lock@queuing_rw_mutex@tbb@@QEAAXAEAV23@_N@Z 0000000180019a10 f   queuing_rw_mutex.obj
 0001:00018e80       ?try_acquire@scoped_lock@queuing_rw_mutex@tbb@@QEAA_NAEAV23@_N@Z 0000000180019e80 f   queuing_rw_mutex.obj
 0001:00018fd0       ?release@scoped_lock@queuing_rw_mutex@tbb@@QEAAXXZ 0000000180019fd0 f   queuing_rw_mutex.obj
 0001:000195e0       ?upgrade_to_writer@scoped_lock@queuing_rw_mutex@tbb@@QEAA_NXZ 000000018001a5e0 f   queuing_rw_mutex.obj
 0001:00019da0       ?downgrade_to_reader@scoped_lock@queuing_rw_mutex@tbb@@QEAA_NXZ 000000018001ada0 f   queuing_rw_mutex.obj
 0001:00019f40       ?internal_construct@queuing_rw_mutex@tbb@@QEAAXXZ 000000018001af40 f   queuing_rw_mutex.obj
 0001:00019f90       ??$__TBB_load_full_fence@_J@internal@tbb@@YA_JAED_J@Z 000000018001af90 f i queuing_rw_mutex.obj
 0001:00019fc0       ??$__TBB_load_relaxed@PEAVscoped_lock@queuing_rw_mutex@tbb@@@internal@tbb@@YAPEAVscoped_lock@queuing_rw_mutex@1@AEDSEAV231@@Z 000000018001afc0 f i queuing_rw_mutex.obj
 0001:00019ff0       ??$__TBB_load_with_acquire@E@internal@tbb@@YAEAEDE@Z 000000018001aff0 f i queuing_rw_mutex.obj
 0001:0001a020       ??$__TBB_load_with_acquire@PEAVscoped_lock@queuing_rw_mutex@tbb@@@internal@tbb@@YAPEAVscoped_lock@queuing_rw_mutex@1@AEDSEAV231@@Z 000000018001b020 f i queuing_rw_mutex.obj
 0001:0001a050       ??$__TBB_store_relaxed@EH@internal@tbb@@YAXAECEH@Z 000000018001b050 f i queuing_rw_mutex.obj
 0001:0001a090       ??$__TBB_store_relaxed@PEAVscoped_lock@queuing_rw_mutex@tbb@@PEAV123@@internal@tbb@@YAXAECREAVscoped_lock@queuing_rw_mutex@1@PEAV231@@Z 000000018001b090 f i queuing_rw_mutex.obj
 0001:0001a0d0       ??$__TBB_store_with_release@EE@internal@tbb@@YAXAECEE@Z 000000018001b0d0 f i queuing_rw_mutex.obj
 0001:0001a110       ??$__TBB_store_with_release@EH@internal@tbb@@YAXAECEH@Z 000000018001b110 f i queuing_rw_mutex.obj
 0001:0001a150       ??$__TBB_store_with_release@PEAVscoped_lock@queuing_rw_mutex@tbb@@PEAV123@@internal@tbb@@YAXAECREAVscoped_lock@queuing_rw_mutex@1@PEAV231@@Z 000000018001b150 f i queuing_rw_mutex.obj
 0001:0001a190       ??$as_atomic@E@internal@tbb@@YAAEAU?$atomic@E@1@AEAE@Z 000000018001b190 f i queuing_rw_mutex.obj
 0001:0001a1a0       ??$compare_and_swap@$00@?$atomic_impl@E@internal@tbb@@QEAAEEE@Z 000000018001b1a0 f i queuing_rw_mutex.obj
 0001:0001a210       ??$compare_and_swap@$01@?$atomic_impl@E@internal@tbb@@QEAAEEE@Z 000000018001b210 f i queuing_rw_mutex.obj
 0001:0001a280       ??$compare_and_swap@$01@?$atomic_impl@PEAVscoped_lock@queuing_rw_mutex@tbb@@@internal@tbb@@QEAAPEAVscoped_lock@queuing_rw_mutex@2@PEAV342@0@Z 000000018001b280 f i queuing_rw_mutex.obj
 0001:0001a2f0       ??$compare_and_swap@$01@?$tricky_atomic_pointer@Vscoped_lock@queuing_rw_mutex@tbb@@@tbb@@SAPEAVscoped_lock@queuing_rw_mutex@1@PECREAV231@PEAV231@1@Z 000000018001b2f0 f i queuing_rw_mutex.obj
 0001:0001a340       ??$fetch_and_add@$00@?$tricky_atomic_pointer@Vscoped_lock@queuing_rw_mutex@tbb@@@tbb@@SAPEAVscoped_lock@queuing_rw_mutex@1@PECREAV231@_J@Z 000000018001b340 f i queuing_rw_mutex.obj
 0001:0001a380       ??$fetch_and_store@$01@?$atomic_impl@PEAVscoped_lock@queuing_rw_mutex@tbb@@@internal@tbb@@QEAAPEAVscoped_lock@queuing_rw_mutex@2@PEAV342@@Z 000000018001b380 f i queuing_rw_mutex.obj
 0001:0001a3d0       ??$fetch_and_store@$01@?$tricky_atomic_pointer@Vscoped_lock@queuing_rw_mutex@tbb@@@tbb@@SAPEAVscoped_lock@queuing_rw_mutex@1@PECREAV231@PEAV231@@Z 000000018001b3d0 f i queuing_rw_mutex.obj
 0001:0001a410       ??$load@$02@?$atomic_impl@PEAVscoped_lock@queuing_rw_mutex@tbb@@@internal@tbb@@QEBAPEAVscoped_lock@queuing_rw_mutex@2@XZ 000000018001b410 f i queuing_rw_mutex.obj
 0001:0001a460       ??$load@$02PEAVscoped_lock@queuing_rw_mutex@tbb@@@tbb@@YAPEAVscoped_lock@queuing_rw_mutex@0@AEBU?$atomic@PEAVscoped_lock@queuing_rw_mutex@tbb@@@0@@Z 000000018001b460 f i queuing_rw_mutex.obj
 0001:0001a490       ??$load@$0A@@?$atomic_impl@PEAVscoped_lock@queuing_rw_mutex@tbb@@@internal@tbb@@QEBAPEAVscoped_lock@queuing_rw_mutex@2@XZ 000000018001b490 f i queuing_rw_mutex.obj
 0001:0001a4e0       ??$load@_J@?$atomic_load_store_traits@$0A@@internal@tbb@@SA_JAED_J@Z 000000018001b4e0 f i queuing_rw_mutex.obj
 0001:0001a510       ??$poison_pointer@Vscoped_lock@queuing_rw_mutex@tbb@@@internal@tbb@@YAXAEAPEAVscoped_lock@queuing_rw_mutex@1@@Z 000000018001b510 f i queuing_rw_mutex.obj
 0001:0001a530       ??$spin_wait_until_eq@EE@internal@tbb@@YAXAEDEE@Z 000000018001b530 f i queuing_rw_mutex.obj
 0001:0001a5a0       ??$spin_wait_until_eq@EH@internal@tbb@@YAXAEDEH@Z 000000018001b5a0 f i queuing_rw_mutex.obj
 0001:0001a600       ??$spin_wait_while_eq@EH@internal@tbb@@YAXAEDEH@Z 000000018001b600 f i queuing_rw_mutex.obj
 0001:0001a660       ??$spin_wait_while_eq@PEAVscoped_lock@queuing_rw_mutex@tbb@@PEAV123@@internal@tbb@@YAXAEDSEAVscoped_lock@queuing_rw_mutex@1@PEAV231@@Z 000000018001b660 f i queuing_rw_mutex.obj
 0001:0001a6c0       ??$spin_wait_while_eq@PEAVscoped_lock@queuing_rw_mutex@tbb@@PEAX@internal@tbb@@YAXAEDSEAVscoped_lock@queuing_rw_mutex@1@PEAX@Z 000000018001b6c0 f i queuing_rw_mutex.obj
 0001:0001a720       ??$to_bits@E@?$atomic_impl@E@internal@tbb@@CACE@Z 000000018001b720 f i queuing_rw_mutex.obj
 0001:0001a760       ??$to_bits@PEAVscoped_lock@queuing_rw_mutex@tbb@@@?$atomic_impl@PEAVscoped_lock@queuing_rw_mutex@tbb@@@internal@tbb@@CA_JPEAVscoped_lock@queuing_rw_mutex@2@@Z 000000018001b760 f i queuing_rw_mutex.obj
 0001:0001a7a0       ??$to_bits_ref@$$CDE@?$atomic_impl@E@internal@tbb@@CAAEACAEDE@Z 000000018001b7a0 f i queuing_rw_mutex.obj
 0001:0001a7e0       ??$to_bits_ref@E@?$atomic_impl@E@internal@tbb@@CAAEACAEAE@Z 000000018001b7e0 f i queuing_rw_mutex.obj
 0001:0001a820       ??$to_bits_ref@QEAVscoped_lock@queuing_rw_mutex@tbb@@@?$atomic_impl@PEAVscoped_lock@queuing_rw_mutex@tbb@@@internal@tbb@@CAAEA_JAEBQEAVscoped_lock@queuing_rw_mutex@2@@Z 000000018001b820 f i queuing_rw_mutex.obj
 0001:0001a860       ??$to_value@E@?$atomic_impl@E@internal@tbb@@CAEC@Z 000000018001b860 f i queuing_rw_mutex.obj
 0001:0001a8b0       ??$to_value@PEAVscoped_lock@queuing_rw_mutex@tbb@@@?$atomic_impl@PEAVscoped_lock@queuing_rw_mutex@tbb@@@internal@tbb@@CAPEAVscoped_lock@queuing_rw_mutex@2@_J@Z 000000018001b8b0 f i queuing_rw_mutex.obj
 0001:0001a910       ??0?$converter@E@?$atomic_impl@E@internal@tbb@@QEAA@E@Z 000000018001b910 f i queuing_rw_mutex.obj
 0001:0001a930       ??0?$converter@E@?$atomic_impl@E@internal@tbb@@QEAA@XZ 000000018001b930 f i queuing_rw_mutex.obj
 0001:0001a940       ??0?$converter@PEAVscoped_lock@queuing_rw_mutex@tbb@@@?$atomic_impl@PEAVscoped_lock@queuing_rw_mutex@tbb@@@internal@tbb@@QEAA@PEAVscoped_lock@queuing_rw_mutex@3@@Z 000000018001b940 f i queuing_rw_mutex.obj
 0001:0001a960       ??0?$converter@PEAVscoped_lock@queuing_rw_mutex@tbb@@@?$atomic_impl@PEAVscoped_lock@queuing_rw_mutex@tbb@@@internal@tbb@@QEAA@XZ 000000018001b960 f i queuing_rw_mutex.obj
 0001:0001a970       ??0?$ptr_converter@PEAE@?$atomic_impl@E@internal@tbb@@QEAA@PEAE@Z 000000018001b970 f i queuing_rw_mutex.obj
 0001:0001a990       ??0?$ptr_converter@PEBQEAVscoped_lock@queuing_rw_mutex@tbb@@@?$atomic_impl@PEAVscoped_lock@queuing_rw_mutex@tbb@@@internal@tbb@@QEAA@PEBQEAVscoped_lock@queuing_rw_mutex@3@@Z 000000018001b990 f i queuing_rw_mutex.obj
 0001:0001a9b0       ??0?$ptr_converter@PEDE@?$atomic_impl@E@internal@tbb@@QEAA@PEDE@Z 000000018001b9b0 f i queuing_rw_mutex.obj
 0001:0001a9d0       ??0?$tricky_atomic_pointer@Vscoped_lock@queuing_rw_mutex@tbb@@@tbb@@QEAA@AEAPEAVscoped_lock@queuing_rw_mutex@1@@Z 000000018001b9d0 f i queuing_rw_mutex.obj
 0001:0001a9f0       ??4?$atomic@E@tbb@@QEAAEE@Z 000000018001b9f0 f i queuing_rw_mutex.obj
 0001:0001aa30       ??B?$atomic_impl@E@internal@tbb@@QEDAEXZ 000000018001ba30 f i queuing_rw_mutex.obj
 0001:0001aa80       ??I?$tricky_atomic_pointer@Vscoped_lock@queuing_rw_mutex@tbb@@@tbb@@QEBAPEAVscoped_lock@queuing_rw_mutex@1@_J@Z 000000018001ba80 f i queuing_rw_mutex.obj
 0001:0001aaa0       ??U?$tricky_atomic_pointer@Vscoped_lock@queuing_rw_mutex@tbb@@@tbb@@QEBAPEAVscoped_lock@queuing_rw_mutex@1@_J@Z 000000018001baa0 f i queuing_rw_mutex.obj
 0001:0001aac0       ?acquire_internal_lock@scoped_lock@queuing_rw_mutex@tbb@@AEAAXXZ 000000018001bac0 f i queuing_rw_mutex.obj
 0001:0001ab10       ?compare_and_swap@?$atomic_traits@$00$00@internal@tbb@@SACPECXCC@Z 000000018001bb10 f i queuing_rw_mutex.obj
 0001:0001ab60       ?compare_and_swap@?$atomic_traits@$00$01@internal@tbb@@SACPECXCC@Z 000000018001bb60 f i queuing_rw_mutex.obj
 0001:0001abb0       ?get_flag@tbb@@YA_KPEAVscoped_lock@queuing_rw_mutex@1@@Z 000000018001bbb0 f i queuing_rw_mutex.obj
 0001:0001abd0       ?initialize@scoped_lock@queuing_rw_mutex@tbb@@AEAAXXZ 000000018001bbd0 f i queuing_rw_mutex.obj
 0001:0001ac50       ?load@?$machine_load_store_relaxed@PEAVscoped_lock@queuing_rw_mutex@tbb@@$07@internal@tbb@@SAPEAVscoped_lock@queuing_rw_mutex@3@AEDSEAV453@@Z 000000018001bc50 f i queuing_rw_mutex.obj
 0001:0001ac60       ?load@?$machine_load_store_seq_cst@_J$07@internal@tbb@@SA_JAED_J@Z 000000018001bc60 f i queuing_rw_mutex.obj
 0001:0001aca0       ?load_with_acquire@?$machine_load_store@E$00@internal@tbb@@SAEAEDE@Z 000000018001bca0 f i queuing_rw_mutex.obj
 0001:0001ace0       ?load_with_acquire@?$machine_load_store@PEAVscoped_lock@queuing_rw_mutex@tbb@@$07@internal@tbb@@SAPEAVscoped_lock@queuing_rw_mutex@3@AEDSEAV453@@Z 000000018001bce0 f i queuing_rw_mutex.obj
 0001:0001ad20       ?release_internal_lock@scoped_lock@queuing_rw_mutex@tbb@@AEAAXXZ 000000018001bd20 f i queuing_rw_mutex.obj
 0001:0001ad60       ?store@?$machine_load_store_relaxed@E$00@internal@tbb@@SAXAECEE@Z 000000018001bd60 f i queuing_rw_mutex.obj
 0001:0001ad80       ?store@?$machine_load_store_relaxed@PEAVscoped_lock@queuing_rw_mutex@tbb@@$07@internal@tbb@@SAXAECREAVscoped_lock@queuing_rw_mutex@3@PEAV453@@Z 000000018001bd80 f i queuing_rw_mutex.obj
 0001:0001ada0       ?store_with_release@?$atomic_impl@E@internal@tbb@@IEAAEE@Z 000000018001bda0 f i queuing_rw_mutex.obj
 0001:0001ae00       ?store_with_release@?$machine_load_store@E$00@internal@tbb@@SAXAECEE@Z 000000018001be00 f i queuing_rw_mutex.obj
 0001:0001ae20       ?store_with_release@?$machine_load_store@PEAVscoped_lock@queuing_rw_mutex@tbb@@$07@internal@tbb@@SAXAECREAVscoped_lock@queuing_rw_mutex@3@PEAV453@@Z 000000018001be20 f i queuing_rw_mutex.obj
 0001:0001ae40       ?try_acquire_internal_lock@scoped_lock@queuing_rw_mutex@tbb@@AEAA_NXZ 000000018001be40 f i queuing_rw_mutex.obj
 0001:0001aea0       ?unblock_or_wait_on_internal_lock@scoped_lock@queuing_rw_mutex@tbb@@AEAAX_K@Z 000000018001bea0 f i queuing_rw_mutex.obj
 0001:0001aef0       ?wait_for_release_of_internal_lock@scoped_lock@queuing_rw_mutex@tbb@@AEAAXXZ 000000018001bef0 f i queuing_rw_mutex.obj
 0001:0001b030       ?internal_construct@scoped_lock@reader_writer_lock@interface5@tbb@@AEAAXAEAV234@@Z 000000018001c030 f   reader_writer_lock.obj
 0001:0001b0d0       ?internal_destroy@scoped_lock@reader_writer_lock@interface5@tbb@@AEAAXXZ 000000018001c0d0 f   reader_writer_lock.obj
 0001:0001b170       ?internal_construct@scoped_lock_read@reader_writer_lock@interface5@tbb@@AEAAXAEAV234@@Z 000000018001c170 f   reader_writer_lock.obj
 0001:0001b210       ?internal_destroy@scoped_lock_read@reader_writer_lock@interface5@tbb@@AEAAXXZ 000000018001c210 f   reader_writer_lock.obj
 0001:0001b270       ?lock@reader_writer_lock@interface5@tbb@@QEAAXXZ 000000018001c270 f   reader_writer_lock.obj
 0001:0001b320       ?try_lock@reader_writer_lock@interface5@tbb@@QEAA_NXZ 000000018001c320 f   reader_writer_lock.obj
 0001:0001b3e0       ?lock_read@reader_writer_lock@interface5@tbb@@QEAAXXZ 000000018001c3e0 f   reader_writer_lock.obj
 0001:0001b470       ?try_lock_read@reader_writer_lock@interface5@tbb@@QEAA_NXZ 000000018001c470 f   reader_writer_lock.obj
 0001:0001b510       ?unlock@reader_writer_lock@interface5@tbb@@QEAAXXZ 000000018001c510 f   reader_writer_lock.obj
 0001:0001b6b0       ?internal_construct@reader_writer_lock@interface5@tbb@@AEAAXXZ 000000018001c6b0 f   reader_writer_lock.obj
 0001:0001b770       ?internal_destroy@reader_writer_lock@interface5@tbb@@AEAAXXZ 000000018001c770 f   reader_writer_lock.obj
 0001:0001b880       ?start_write@reader_writer_lock@interface5@tbb@@AEAA_NPEAVscoped_lock@123@@Z 000000018001c880 f   reader_writer_lock.obj
 0001:0001bb40       ?set_next_writer@reader_writer_lock@interface5@tbb@@AEAAXPEAVscoped_lock@123@@Z 000000018001cb40 f   reader_writer_lock.obj
 0001:0001bc50       ?end_write@reader_writer_lock@interface5@tbb@@AEAAXPEAVscoped_lock@123@@Z 000000018001cc50 f   reader_writer_lock.obj
 0001:0001be20       ?start_read@reader_writer_lock@interface5@tbb@@AEAAXPEAVscoped_lock_read@123@@Z 000000018001ce20 f   reader_writer_lock.obj
 0001:0001bfb0       ?unblock_readers@reader_writer_lock@interface5@tbb@@AEAAXXZ 000000018001cfb0 f   reader_writer_lock.obj
 0001:0001c130       ?end_read@reader_writer_lock@interface5@tbb@@AEAAXXZ 000000018001d130 f   reader_writer_lock.obj
 0001:0001c1c0       ??$compare_and_swap@$0A@@?$atomic_impl@PEAVscoped_lock@reader_writer_lock@interface5@tbb@@@internal@tbb@@QEAAPEAVscoped_lock@reader_writer_lock@interface5@2@PEAV3452@0@Z 000000018001d1c0 f i reader_writer_lock.obj
 0001:0001c230       ??$fetch_and_store@$0A@@?$atomic_impl@PEAVscoped_lock@reader_writer_lock@interface5@tbb@@@internal@tbb@@QEAAPEAVscoped_lock@reader_writer_lock@interface5@2@PEAV3452@@Z 000000018001d230 f i reader_writer_lock.obj
 0001:0001c280       ??$fetch_and_store@$0A@@?$atomic_impl@PEAVscoped_lock_read@reader_writer_lock@interface5@tbb@@@internal@tbb@@QEAAPEAVscoped_lock_read@reader_writer_lock@interface5@2@PEAV3452@@Z 000000018001d280 f i reader_writer_lock.obj
 0001:0001c2d0       ??$spin_wait_until_and@U?$atomic@_K@tbb@@_K@interface5@tbb@@YAXAEDU?$atomic@_K@1@_K@Z 000000018001d2d0 f i reader_writer_lock.obj
 0001:0001c340       ??$spin_wait_while_eq@PEAVscoped_lock@reader_writer_lock@interface5@tbb@@PEAV1234@@internal@tbb@@YAXAEDSEAVscoped_lock@reader_writer_lock@interface5@1@PEAV2341@@Z 000000018001d340 f i reader_writer_lock.obj
 0001:0001c3a0       ??$spin_wait_while_eq@U?$atomic@W4status_t@reader_writer_lock@interface5@tbb@@@tbb@@W4status_t@reader_writer_lock@interface5@2@@internal@tbb@@YAXAEDU?$atomic@W4status_t@reader_writer_lock@interface5@tbb@@@1@W4status_t@reader_writer_lock@interface5@1@@Z 000000018001d3a0 f i reader_writer_lock.obj
 0001:0001c400       ??$spin_wait_while_geq@U?$atomic@_K@tbb@@_K@interface5@tbb@@YAXAEDU?$atomic@_K@1@_K@Z 000000018001d400 f i reader_writer_lock.obj
 0001:0001c460       ??$to_bits@PEAVscoped_lock@reader_writer_lock@interface5@tbb@@@?$atomic_impl@PEAVscoped_lock@reader_writer_lock@interface5@tbb@@@internal@tbb@@CA_JPEAVscoped_lock@reader_writer_lock@interface5@2@@Z 000000018001d460 f i reader_writer_lock.obj
 0001:0001c4a0       ??$to_bits@PEAVscoped_lock_read@reader_writer_lock@interface5@tbb@@@?$atomic_impl@PEAVscoped_lock_read@reader_writer_lock@interface5@tbb@@@internal@tbb@@CA_JPEAVscoped_lock_read@reader_writer_lock@interface5@2@@Z 000000018001d4a0 f i reader_writer_lock.obj
 0001:0001c4e0       ??$to_bits@W4status_t@reader_writer_lock@interface5@tbb@@@?$atomic_impl@W4status_t@reader_writer_lock@interface5@tbb@@@internal@tbb@@CAHW4status_t@reader_writer_lock@interface5@2@@Z 000000018001d4e0 f i reader_writer_lock.obj
 0001:0001c520       ??$to_bits_ref@$$CDW4status_t@reader_writer_lock@interface5@tbb@@@?$atomic_impl@W4status_t@reader_writer_lock@interface5@tbb@@@internal@tbb@@CAAEAHAEDW4status_t@reader_writer_lock@interface5@2@@Z 000000018001d520 f i reader_writer_lock.obj
 0001:0001c560       ??$to_bits_ref@PEAVscoped_lock@reader_writer_lock@interface5@tbb@@@?$atomic_impl@PEAVscoped_lock@reader_writer_lock@interface5@tbb@@@internal@tbb@@CAAEA_JAEAPEAVscoped_lock@reader_writer_lock@interface5@2@@Z 000000018001d560 f i reader_writer_lock.obj
 0001:0001c5a0       ??$to_bits_ref@PEAVscoped_lock_read@reader_writer_lock@interface5@tbb@@@?$atomic_impl@PEAVscoped_lock_read@reader_writer_lock@interface5@tbb@@@internal@tbb@@CAAEA_JAEAPEAVscoped_lock_read@reader_writer_lock@interface5@2@@Z 000000018001d5a0 f i reader_writer_lock.obj
 0001:0001c5e0       ??$to_bits_ref@SEAVscoped_lock@reader_writer_lock@interface5@tbb@@@?$atomic_impl@PEAVscoped_lock@reader_writer_lock@interface5@tbb@@@internal@tbb@@CAAEA_JAEDSEAVscoped_lock@reader_writer_lock@interface5@2@@Z 000000018001d5e0 f i reader_writer_lock.obj
 0001:0001c620       ??$to_bits_ref@SEAVscoped_lock_read@reader_writer_lock@interface5@tbb@@@?$atomic_impl@PEAVscoped_lock_read@reader_writer_lock@interface5@tbb@@@internal@tbb@@CAAEA_JAEDSEAVscoped_lock_read@reader_writer_lock@interface5@2@@Z 000000018001d620 f i reader_writer_lock.obj
 0001:0001c660       ??$to_bits_ref@W4status_t@reader_writer_lock@interface5@tbb@@@?$atomic_impl@W4status_t@reader_writer_lock@interface5@tbb@@@internal@tbb@@CAAEAHAEAW4status_t@reader_writer_lock@interface5@2@@Z 000000018001d660 f i reader_writer_lock.obj
 0001:0001c6a0       ??$to_value@PEAVscoped_lock@reader_writer_lock@interface5@tbb@@@?$atomic_impl@PEAVscoped_lock@reader_writer_lock@interface5@tbb@@@internal@tbb@@CAPEAVscoped_lock@reader_writer_lock@interface5@2@_J@Z 000000018001d6a0 f i reader_writer_lock.obj
 0001:0001c700       ??$to_value@PEAVscoped_lock_read@reader_writer_lock@interface5@tbb@@@?$atomic_impl@PEAVscoped_lock_read@reader_writer_lock@interface5@tbb@@@internal@tbb@@CAPEAVscoped_lock_read@reader_writer_lock@interface5@2@_J@Z 000000018001d700 f i reader_writer_lock.obj
 0001:0001c760       ??$to_value@W4status_t@reader_writer_lock@interface5@tbb@@@?$atomic_impl@W4status_t@reader_writer_lock@interface5@tbb@@@internal@tbb@@CA?AW4status_t@reader_writer_lock@interface5@2@H@Z 000000018001d760 f i reader_writer_lock.obj
 0001:0001c7b0       ??0?$converter@PEAVscoped_lock@reader_writer_lock@interface5@tbb@@@?$atomic_impl@PEAVscoped_lock@reader_writer_lock@interface5@tbb@@@internal@tbb@@QEAA@PEAVscoped_lock@reader_writer_lock@interface5@3@@Z 000000018001d7b0 f i reader_writer_lock.obj
 0001:0001c7d0       ??0?$converter@PEAVscoped_lock@reader_writer_lock@interface5@tbb@@@?$atomic_impl@PEAVscoped_lock@reader_writer_lock@interface5@tbb@@@internal@tbb@@QEAA@XZ 000000018001d7d0 f i reader_writer_lock.obj
 0001:0001c7e0       ??0?$converter@PEAVscoped_lock_read@reader_writer_lock@interface5@tbb@@@?$atomic_impl@PEAVscoped_lock_read@reader_writer_lock@interface5@tbb@@@internal@tbb@@QEAA@PEAVscoped_lock_read@reader_writer_lock@interface5@3@@Z 000000018001d7e0 f i reader_writer_lock.obj
 0001:0001c800       ??0?$converter@PEAVscoped_lock_read@reader_writer_lock@interface5@tbb@@@?$atomic_impl@PEAVscoped_lock_read@reader_writer_lock@interface5@tbb@@@internal@tbb@@QEAA@XZ 000000018001d800 f i reader_writer_lock.obj
 0001:0001c810       ??0?$converter@W4status_t@reader_writer_lock@interface5@tbb@@@?$atomic_impl@W4status_t@reader_writer_lock@interface5@tbb@@@internal@tbb@@QEAA@W4status_t@reader_writer_lock@interface5@3@@Z 000000018001d810 f i reader_writer_lock.obj
 0001:0001c830       ??0?$converter@W4status_t@reader_writer_lock@interface5@tbb@@@?$atomic_impl@W4status_t@reader_writer_lock@interface5@tbb@@@internal@tbb@@QEAA@XZ 000000018001d830 f i reader_writer_lock.obj
 0001:0001c840       ??0?$ptr_converter@PEAPEAVscoped_lock@reader_writer_lock@interface5@tbb@@@?$atomic_impl@PEAVscoped_lock@reader_writer_lock@interface5@tbb@@@internal@tbb@@QEAA@PEAPEAVscoped_lock@reader_writer_lock@interface5@3@@Z 000000018001d840 f i reader_writer_lock.obj
 0001:0001c860       ??0?$ptr_converter@PEAPEAVscoped_lock_read@reader_writer_lock@interface5@tbb@@@?$atomic_impl@PEAVscoped_lock_read@reader_writer_lock@interface5@tbb@@@internal@tbb@@QEAA@PEAPEAVscoped_lock_read@reader_writer_lock@interface5@3@@Z 000000018001d860 f i reader_writer_lock.obj
 0001:0001c880       ??0?$ptr_converter@PEAW4status_t@reader_writer_lock@interface5@tbb@@@?$atomic_impl@W4status_t@reader_writer_lock@interface5@tbb@@@internal@tbb@@QEAA@PEAW4status_t@reader_writer_lock@interface5@3@@Z 000000018001d880 f i reader_writer_lock.obj
 0001:0001c8a0       ??0?$ptr_converter@PEDSEAVscoped_lock@reader_writer_lock@interface5@tbb@@@?$atomic_impl@PEAVscoped_lock@reader_writer_lock@interface5@tbb@@@internal@tbb@@QEAA@PEDSEAVscoped_lock@reader_writer_lock@interface5@3@@Z 000000018001d8a0 f i reader_writer_lock.obj
 0001:0001c8c0       ??0?$ptr_converter@PEDSEAVscoped_lock_read@reader_writer_lock@interface5@tbb@@@?$atomic_impl@PEAVscoped_lock_read@reader_writer_lock@interface5@tbb@@@internal@tbb@@QEAA@PEDSEAVscoped_lock_read@reader_writer_lock@interface5@3@@Z 000000018001d8c0 f i reader_writer_lock.obj
 0001:0001c8e0       ??0?$ptr_converter@PEDW4status_t@reader_writer_lock@interface5@tbb@@@?$atomic_impl@W4status_t@reader_writer_lock@interface5@tbb@@@internal@tbb@@QEAA@PEDW4status_t@reader_writer_lock@interface5@3@@Z 000000018001d8e0 f i reader_writer_lock.obj
 0001:0001c900       ??0id@tbb_thread_v3@internal@tbb@@QEAA@XZ 000000018001d900 f i reader_writer_lock.obj
 0001:0001c920       ??0scoped_lock@reader_writer_lock@interface5@tbb@@AEAA@XZ 000000018001d920 f i reader_writer_lock.obj
 0001:0001c980       ??0scoped_lock_read@reader_writer_lock@interface5@tbb@@AEAA@XZ 000000018001d980 f i reader_writer_lock.obj
 0001:0001c9e0       ??1scoped_lock@reader_writer_lock@interface5@tbb@@QEAA@XZ 000000018001d9e0 f i reader_writer_lock.obj
 0001:0001ca20       ??1scoped_lock_read@reader_writer_lock@interface5@tbb@@QEAA@XZ 000000018001da20 f i reader_writer_lock.obj
 0001:0001ca60       ??2scoped_lock@reader_writer_lock@interface5@tbb@@SAPEAX_K@Z 000000018001da60 f i reader_writer_lock.obj
 0001:0001ca90       ??3scoped_lock@reader_writer_lock@interface5@tbb@@SAXPEAX@Z 000000018001da90 f i reader_writer_lock.obj
 0001:0001cad0       ??4?$atomic@PEAVscoped_lock@reader_writer_lock@interface5@tbb@@@tbb@@QEAAPEAVscoped_lock@reader_writer_lock@interface5@1@PEAV2341@@Z 000000018001dad0 f i reader_writer_lock.obj
 0001:0001cb10       ??4?$atomic@PEAVscoped_lock_read@reader_writer_lock@interface5@tbb@@@tbb@@QEAAPEAVscoped_lock_read@reader_writer_lock@interface5@1@PEAV2341@@Z 000000018001db10 f i reader_writer_lock.obj
 0001:0001cb50       ??4?$atomic@W4status_t@reader_writer_lock@interface5@tbb@@@tbb@@QEAA?AW4status_t@reader_writer_lock@interface5@1@W42341@@Z 000000018001db50 f i reader_writer_lock.obj
 0001:0001cb90       ??8internal@tbb@@YA_NVid@tbb_thread_v3@01@0@Z 000000018001db90 f i reader_writer_lock.obj
 0001:0001cbe0       ??9internal@tbb@@YA_NVid@tbb_thread_v3@01@0@Z 000000018001dbe0 f i reader_writer_lock.obj
 0001:0001cc30       ??B?$atomic_impl@PEAVscoped_lock@reader_writer_lock@interface5@tbb@@@internal@tbb@@QEDAPEAVscoped_lock@reader_writer_lock@interface5@2@XZ 000000018001dc30 f i reader_writer_lock.obj
 0001:0001cc80       ??B?$atomic_impl@PEAVscoped_lock_read@reader_writer_lock@interface5@tbb@@@internal@tbb@@QEDAPEAVscoped_lock_read@reader_writer_lock@interface5@2@XZ 000000018001dc80 f i reader_writer_lock.obj
 0001:0001ccd0       ??B?$atomic_impl@W4status_t@reader_writer_lock@interface5@tbb@@@internal@tbb@@QEDA?AW4status_t@reader_writer_lock@interface5@2@XZ 000000018001dcd0 f i reader_writer_lock.obj
 0001:0001cd10       ??C?$atomic@PEAVscoped_lock@reader_writer_lock@interface5@tbb@@@tbb@@QEBAPEAVscoped_lock@reader_writer_lock@interface5@1@XZ 000000018001dd10 f i reader_writer_lock.obj
 0001:0001cd40       ??Z?$atomic_impl_with_arithmetic@_K_KD@internal@tbb@@QEAA_K_K@Z 000000018001dd40 f i reader_writer_lock.obj
 0001:0001cd80       ??_Gscoped_lock@reader_writer_lock@interface5@tbb@@QEAAPEAXI@Z 000000018001dd80 f i reader_writer_lock.obj
 0001:0001cdf0       ?compare_and_swap@?$atomic_impl@PEAVscoped_lock@reader_writer_lock@interface5@tbb@@@internal@tbb@@QEAAPEAVscoped_lock@reader_writer_lock@interface5@3@PEAV4563@0@Z 000000018001ddf0 f i reader_writer_lock.obj
 0001:0001ce40       ?fetch_and_and@interface5@tbb@@YA_KAEAU?$atomic@_K@2@_K@Z 000000018001de40 f i reader_writer_lock.obj
 0001:0001cee0       ?fetch_and_or@interface5@tbb@@YA_KAEAU?$atomic@_K@2@_K@Z 000000018001dee0 f i reader_writer_lock.obj
 0001:0001cf80       ?fetch_and_store@?$atomic_impl@PEAVscoped_lock@reader_writer_lock@interface5@tbb@@@internal@tbb@@QEAAPEAVscoped_lock@reader_writer_lock@interface5@3@PEAV4563@@Z 000000018001df80 f i reader_writer_lock.obj
 0001:0001cfc0       ?fetch_and_store@?$atomic_impl@PEAVscoped_lock_read@reader_writer_lock@interface5@tbb@@@internal@tbb@@QEAAPEAVscoped_lock_read@reader_writer_lock@interface5@3@PEAV4563@@Z 000000018001dfc0 f i reader_writer_lock.obj
 0001:0001d000       ?fetch_and_store@?$atomic_traits@$07$0A@@internal@tbb@@SA_JPECX_J@Z 000000018001e000 f i reader_writer_lock.obj
 0001:0001d040       ?get_id@this_tbb_thread@tbb@@YA?AVid@tbb_thread_v3@internal@2@XZ 000000018001e040 f i reader_writer_lock.obj
 0001:0001d080       ?is_current_writer@reader_writer_lock@interface5@tbb@@AEAA_NXZ 000000018001e080 f i reader_writer_lock.obj
 0001:0001d0c0       ?store_with_release@?$atomic_impl@PEAVscoped_lock@reader_writer_lock@interface5@tbb@@@internal@tbb@@IEAAPEAVscoped_lock@reader_writer_lock@interface5@3@PEAV4563@@Z 000000018001e0c0 f i reader_writer_lock.obj
 0001:0001d120       ?store_with_release@?$atomic_impl@PEAVscoped_lock_read@reader_writer_lock@interface5@tbb@@@internal@tbb@@IEAAPEAVscoped_lock_read@reader_writer_lock@interface5@3@PEAV4563@@Z 000000018001e120 f i reader_writer_lock.obj
 0001:0001d180       ?store_with_release@?$atomic_impl@W4status_t@reader_writer_lock@interface5@tbb@@@internal@tbb@@IEAA?AW4status_t@reader_writer_lock@interface5@3@W44563@@Z 000000018001e180 f i reader_writer_lock.obj
 0001:0001d2f0       ?internal_acquire_writer@spin_rw_mutex_v3@tbb@@AEAA_NXZ 000000018001e2f0 f   spin_rw_mutex.obj
 0001:0001d3e0       ?internal_release_writer@spin_rw_mutex_v3@tbb@@AEAAXXZ 000000018001e3e0 f   spin_rw_mutex.obj
 0001:0001d440       ?internal_acquire_reader@spin_rw_mutex_v3@tbb@@AEAAXXZ 000000018001e440 f   spin_rw_mutex.obj
 0001:0001d550       ?internal_upgrade@spin_rw_mutex_v3@tbb@@AEAA_NXZ 000000018001e550 f   spin_rw_mutex.obj
 0001:0001d6f0       ?internal_downgrade@spin_rw_mutex_v3@tbb@@AEAAXXZ 000000018001e6f0 f   spin_rw_mutex.obj
 0001:0001d780       ?internal_release_reader@spin_rw_mutex_v3@tbb@@AEAAXXZ 000000018001e780 f   spin_rw_mutex.obj
 0001:0001d810       ?internal_try_acquire_writer@spin_rw_mutex_v3@tbb@@AEAA_NXZ 000000018001e810 f   spin_rw_mutex.obj
 0001:0001d890       ?internal_try_acquire_reader@spin_rw_mutex_v3@tbb@@AEAA_NXZ 000000018001e890 f   spin_rw_mutex.obj
 0001:0001d930       ?internal_construct@spin_rw_mutex_v3@tbb@@AEAAXXZ 000000018001e930 f   spin_rw_mutex.obj
 0001:0001d9e0       ??$as_atomic@$$CC_J@internal@tbb@@YAAEAU?$atomic@$$CC_J@1@AEC_J@Z 000000018001e9e0 f i spin_rw_mutex.obj
 0001:0001d9f0       ??$compare_and_swap@$0A@@?$atomic_impl@$$CC_J@internal@tbb@@QEAA?C_J_J0@Z 000000018001e9f0 f i spin_rw_mutex.obj
 0001:0001da60       ??$to_bits@_J@?$atomic_impl@$$CC_J@internal@tbb@@CA_J_J@Z 000000018001ea60 f i spin_rw_mutex.obj
 0001:0001daa0       ??$to_value@$$CC_J@?$atomic_impl@$$CC_J@internal@tbb@@CA?C_J_J@Z 000000018001eaa0 f i spin_rw_mutex.obj
 0001:0001db00       ??0?$converter@$$CC_J@?$atomic_impl@$$CC_J@internal@tbb@@QEAA@XZ 000000018001eb00 f i spin_rw_mutex.obj
 0001:0001db10       ??0?$converter@_J@?$atomic_impl@$$CC_J@internal@tbb@@QEAA@_J@Z 000000018001eb10 f i spin_rw_mutex.obj
 0001:0001db30       ?compare_and_swap@?$atomic_impl@$$CC_J@internal@tbb@@QEAA?C_J_J0@Z 000000018001eb30 f i spin_rw_mutex.obj
 0001:0001db80       ?reset@atomic_backoff@internal@tbb@@QEAAXXZ 000000018001eb80 f i spin_rw_mutex.obj
 0001:0001dbd0       ?internal_construct@x86_rtm_rw_mutex@internal@interface8@tbb@@AEAAXXZ 000000018001ebd0 f   x86_rtm_rw_mutex.obj
 0001:0001dc30       ?internal_acquire_writer@x86_rtm_rw_mutex@internal@interface8@tbb@@AEAAXAEAVscoped_lock@1234@_N@Z 000000018001ec30 f   x86_rtm_rw_mutex.obj
 0001:0001ddd0       ?internal_acquire_reader@x86_rtm_rw_mutex@internal@interface8@tbb@@AEAAXAEAVscoped_lock@1234@_N@Z 000000018001edd0 f   x86_rtm_rw_mutex.obj
 0001:0001df50       ?internal_upgrade@x86_rtm_rw_mutex@internal@interface8@tbb@@AEAA_NAEAVscoped_lock@1234@@Z 000000018001ef50 f   x86_rtm_rw_mutex.obj
 0001:0001e080       ?internal_downgrade@x86_rtm_rw_mutex@internal@interface8@tbb@@AEAA_NAEAVscoped_lock@1234@@Z 000000018001f080 f   x86_rtm_rw_mutex.obj
 0001:0001e170       ?internal_try_acquire_writer@x86_rtm_rw_mutex@internal@interface8@tbb@@AEAA_NAEAVscoped_lock@1234@@Z 000000018001f170 f   x86_rtm_rw_mutex.obj
 0001:0001e270       ?internal_release@x86_rtm_rw_mutex@internal@interface8@tbb@@AEAAXAEAVscoped_lock@1234@@Z 000000018001f270 f   x86_rtm_rw_mutex.obj
 0001:0001e420       ?acquire@scoped_lock@spin_rw_mutex_v3@tbb@@QEAAXAEAV23@_N@Z 000000018001f420 f i x86_rtm_rw_mutex.obj
 0001:0001e4c0       ?downgrade_to_reader@scoped_lock@spin_rw_mutex_v3@tbb@@QEAA_NXZ 000000018001f4c0 f i x86_rtm_rw_mutex.obj
 0001:0001e540       ?release@scoped_lock@spin_rw_mutex_v3@tbb@@QEAAXXZ 000000018001f540 f i x86_rtm_rw_mutex.obj
 0001:0001e5d0       ?speculation_enabled@governor@internal@tbb@@SA_NXZ 000000018001f5d0 f i x86_rtm_rw_mutex.obj
 0001:0001e5e0       ?try_acquire@scoped_lock@spin_rw_mutex_v3@tbb@@QEAA_NAEAV23@_N@Z 000000018001f5e0 f i x86_rtm_rw_mutex.obj
 0001:0001e6a0       ?upgrade_to_writer@scoped_lock@spin_rw_mutex_v3@tbb@@QEAA_NXZ 000000018001f6a0 f i x86_rtm_rw_mutex.obj
 0001:0001e7a0       ?internal_acquire@scoped_lock@spin_mutex@tbb@@AEAAXAEAV23@@Z 000000018001f7a0 f   spin_mutex.obj
 0001:0001e850       ?internal_try_acquire@scoped_lock@spin_mutex@tbb@@AEAA_NAEAV23@@Z 000000018001f850 f   spin_mutex.obj
 0001:0001e8f0       ?internal_release@scoped_lock@spin_mutex@tbb@@AEAAXXZ 000000018001f8f0 f   spin_mutex.obj
 0001:0001e980       ?internal_construct@spin_mutex@tbb@@QEAAXXZ 000000018001f980 f   spin_mutex.obj
 0001:0001e9d0       ?__TBB_LockByte@@YAEAEAE@Z 000000018001f9d0 f i spin_mutex.obj
 0001:0001ea40       ?__TBB_TryLockByte@@YA_NAEAE@Z 000000018001fa40 f i spin_mutex.obj
 0001:0001eaa0       ?internal_construct@critical_section_v4@internal@tbb@@QEAAXXZ 000000018001faa0 f   critical_section.obj
 0001:0001eb00       ?internal_acquire@scoped_lock@mutex@tbb@@AEAAXAEAV23@@Z 000000018001fb00 f   mutex.obj
 0001:0001ec00       ?internal_try_acquire@scoped_lock@mutex@tbb@@AEAA_NAEAV23@@Z 000000018001fc00 f   mutex.obj
 0001:0001ed40       ?internal_release@scoped_lock@mutex@tbb@@AEAAXXZ 000000018001fd40 f   mutex.obj
 0001:0001ee70       ?internal_construct@mutex@tbb@@AEAAXXZ 000000018001fe70 f   mutex.obj
 0001:0001eef0       ?internal_destroy@mutex@tbb@@AEAAXXZ 000000018001fef0 f   mutex.obj
 0001:0001efb0       ?inlineInitializeCriticalSectionEx@@YAHPEAU_RTL_CRITICAL_SECTION@@KK@Z 000000018001ffb0 f i mutex.obj
 0001:0001eff0       ?internal_acquire@scoped_lock@recursive_mutex@tbb@@AEAAXAEAV23@@Z 000000018001fff0 f   recursive_mutex.obj
 0001:0001f0b0       ?internal_try_acquire@scoped_lock@recursive_mutex@tbb@@AEAA_NAEAV23@@Z 00000001800200b0 f   recursive_mutex.obj
 0001:0001f1a0       ?internal_release@scoped_lock@recursive_mutex@tbb@@AEAAXXZ 00000001800201a0 f   recursive_mutex.obj
 0001:0001f290       ?internal_construct@recursive_mutex@tbb@@AEAAXXZ 0000000180020290 f   recursive_mutex.obj
 0001:0001f310       ?internal_destroy@recursive_mutex@tbb@@AEAAXXZ 0000000180020310 f   recursive_mutex.obj
 0001:0001f450       ?internal_initialize_condition_variable@internal@interface5@tbb@@YAXAEATcondvar_impl_t@123@@Z 0000000180020450 f   condition_variable.obj
 0001:0001f4b0       ?internal_destroy_condition_variable@internal@interface5@tbb@@YAXAEATcondvar_impl_t@123@@Z 00000001800204b0 f   condition_variable.obj
 0001:0001f4f0       ?internal_condition_variable_notify_one@internal@interface5@tbb@@YAXAEATcondvar_impl_t@123@@Z 00000001800204f0 f   condition_variable.obj
 0001:0001f530       ?internal_condition_variable_notify_all@internal@interface5@tbb@@YAXAEATcondvar_impl_t@123@@Z 0000000180020530 f   condition_variable.obj
 0001:0001f570       ?internal_condition_variable_wait@internal@interface5@tbb@@YA_NAEATcondvar_impl_t@123@PEAVmutex@3@PEBVinterval_t@tick_count@3@@Z 0000000180020570 f   condition_variable.obj
 0001:0001f630       ?init_condvar_using_event@internal@tbb@@YAXPEAUcondition_variable_using_event@1interface5@2@@Z 0000000180020630 f   condition_variable.obj
 0001:0001f6c0       ?sleep_condition_variable_cs_using_event@internal@tbb@@YAHPEAUcondition_variable_using_event@1interface5@2@PEAU_RTL_CRITICAL_SECTION@@K@Z 00000001800206c0 f   condition_variable.obj
 0001:0001f8b0       ?wake_condition_variable_using_event@internal@tbb@@YAXPEAUcondition_variable_using_event@1interface5@2@@Z 00000001800208b0 f   condition_variable.obj
 0001:0001f950       ?wake_all_condition_variable_using_event@internal@tbb@@YAXPEAUcondition_variable_using_event@1interface5@2@@Z 0000000180020950 f   condition_variable.obj
 0001:0001f9e0       ?destroy_condvar_using_event@internal@tbb@@YAXPEAUcondition_variable_using_event@1interface5@2@@Z 00000001800209e0 f   condition_variable.obj
 0001:0001faa0       ?destroy_condvar_noop@internal@tbb@@YAXPEAU_RTL_CONDITION_VARIABLE@@@Z 0000000180020aa0 f   condition_variable.obj
 0001:0001fab0       ?init_condvar_module@internal@tbb@@YAXXZ 0000000180020ab0 f   condition_variable.obj
 0001:0001fb40       ??$spin_wait_until_eq@HH@internal@tbb@@YAXAEDHH@Z 0000000180020b40 f i condition_variable.obj
 0001:0001fba0       ?inlineCreateEventEx@@YAPEAXPEAU_SECURITY_ATTRIBUTES@@PEBDKK@Z 0000000180020ba0 f i condition_variable.obj
 0001:0001fc40       ?native_handle@mutex@tbb@@QEAAPEAU_RTL_CRITICAL_SECTION@@XZ 0000000180020c40 f i condition_variable.obj
 0001:0001fc50       ?resolution@tick_count@tbb@@SANXZ 0000000180020c50 f i condition_variable.obj
 0001:0001fc90       ?seconds@interval_t@tick_count@tbb@@QEBANXZ 0000000180020c90 f i condition_variable.obj
 0001:0001fce0       ?set_state@mutex@tbb@@QEAAXW4state_t@12@@Z 0000000180020ce0 f i condition_variable.obj
 0001:0001fd00       ?ticks_per_second@interval_t@tick_count@tbb@@CA_JXZ 0000000180020d00 f i condition_variable.obj
 0001:0001fd70       ?allocate_closure_v3@internal@tbb@@YAPEAX_K@Z 0000000180020d70 f   tbb_thread.obj
 0001:0001fdb0       ?free_closure_v3@internal@tbb@@YAXPEAX@Z 0000000180020db0 f   tbb_thread.obj
 0001:0001fdf0       ?join@tbb_thread_v3@internal@tbb@@QEAAXXZ 0000000180020df0 f   tbb_thread.obj
 0001:0001fef0       ?detach@tbb_thread_v3@internal@tbb@@QEAAXXZ 0000000180020ef0 f   tbb_thread.obj
 0001:0001ff80       ?hardware_concurrency@tbb_thread_v3@internal@tbb@@SAIXZ 0000000180020f80 f   tbb_thread.obj
 0001:0001ffb0       ?internal_start@tbb_thread_v3@internal@tbb@@AEAAXP6AIPEAX@Z0@Z 0000000180020fb0 f   tbb_thread.obj
 0001:00020060       ?move_v3@internal@tbb@@YAXAEAVtbb_thread_v3@12@0@Z 0000000180021060 f   tbb_thread.obj
 0001:000200f0       ?thread_get_id_v3@internal@tbb@@YA?AVid@tbb_thread_v3@12@XZ 00000001800210f0 f   tbb_thread.obj
 0001:00020140       ?thread_yield_v3@internal@tbb@@YAXXZ 0000000180021140 f   tbb_thread.obj
 0001:00020170       ?thread_sleep_v3@internal@tbb@@YAXAEBVinterval_t@tick_count@2@@Z 0000000180021170 f   tbb_thread.obj
 0001:00020270       ??0id@tbb_thread_v3@internal@tbb@@AEAA@K@Z 0000000180021270 f i tbb_thread.obj
 0001:00020290       ??0interval_t@tick_count@tbb@@AEAA@_J@Z 0000000180021290 f i tbb_thread.obj
 0001:000202b0       ??0tick_count@tbb@@QEAA@XZ 00000001800212b0 f i tbb_thread.obj
 0001:000202d0       ??Gtbb@@YA?AVinterval_t@tick_count@0@AEBV120@0@Z 00000001800212d0 f i tbb_thread.obj
 0001:00020330       ??Gtbb@@YA?AVinterval_t@tick_count@0@AEBV20@0@Z 0000000180021330 f i tbb_thread.obj
 0001:00020390       ?active_value@global_control@interface9@tbb@@SA_KW4parameter@123@@Z 0000000180021390 f i tbb_thread.obj
 0001:000203f0       ?default_num_threads@governor@internal@tbb@@SAIXZ 00000001800213f0 f i tbb_thread.obj
 0001:00020440       ?get_id@tbb_thread_v3@internal@tbb@@QEBA?AVid@123@XZ 0000000180021440 f i tbb_thread.obj
 0001:00020490       ?joinable@tbb_thread_v3@internal@tbb@@QEBA_NXZ 0000000180021490 f i tbb_thread.obj
 0001:000204e0       ?now@tick_count@tbb@@SA?AV12@XZ 00000001800214e0 f i tbb_thread.obj
 0001:00020580       ?init@thread_context@concurrent_monitor@internal@tbb@@AEAAXXZ 0000000180021580 f   concurrent_monitor.obj
 0001:000205e0       ??1concurrent_monitor@internal@tbb@@QEAA@XZ 00000001800215e0 f   concurrent_monitor.obj
 0001:00020670       ?prepare_wait@concurrent_monitor@internal@tbb@@QEAAXAEAVthread_context@123@_K@Z 0000000180021670 f   concurrent_monitor.obj
 0001:00020780       ?cancel_wait@concurrent_monitor@internal@tbb@@QEAAXAEAVthread_context@123@@Z 0000000180021780 f   concurrent_monitor.obj
 0001:00020860       ?notify_one_relaxed@concurrent_monitor@internal@tbb@@QEAAXXZ 0000000180021860 f   concurrent_monitor.obj
 0001:000209a0       ?notify_all_relaxed@concurrent_monitor@internal@tbb@@QEAAXXZ 00000001800219a0 f   concurrent_monitor.obj
 0001:00020b60       ?abort_all_relaxed@concurrent_monitor@internal@tbb@@QEAAXXZ 0000000180021b60 f   concurrent_monitor.obj
 0001:00020d30       ??0binary_semaphore@internal@tbb@@QEAA@XZ 0000000180021d30 f i concurrent_monitor.obj
 0001:00020d80       ?flush_to@circular_doubly_linked_list_with_sentinel@internal@tbb@@QEAAXAEAV123@@Z 0000000180021d80 f i concurrent_monitor.obj
 0001:00020ec0       ?join@thread_monitor@internal@rml@@SAXPEAX@Z 0000000180021ec0 f   private_server.obj
 0001:00020f60       ?detach_thread@thread_monitor@internal@rml@@SAXPEAX@Z 0000000180021f60 f   private_server.obj
 0001:00020fc0       ?run@private_worker@rml@internal@tbb@@AEAAXXZ 0000000180021fc0 f   private_server.obj
 0001:00021170       ?start_shutdown@private_worker@rml@internal@tbb@@AEAAXXZ 0000000180022170 f   private_server.obj
 0001:00021250       ?thread_routine@private_worker@rml@internal@tbb@@CAIPEAX@Z 0000000180022250 f   private_server.obj
 0001:00021380       ?release_handle@private_worker@rml@internal@tbb@@CAXPEAX_N@Z 0000000180022380 f   private_server.obj
 0001:000213d0       ?wake_some@private_server@rml@internal@tbb@@AEAAXH@Z 00000001800223d0 f   private_server.obj
 0001:00021620       ??1private_server@rml@internal@tbb@@EEAA@XZ 0000000180022620 f   private_server.obj
 0001:00021730       ??0private_server@rml@internal@tbb@@QEAA@AEAVtbb_client@123@@Z 0000000180022730 f   private_server.obj
 0001:00021900       ?adjust_job_count_estimate@private_server@rml@internal@tbb@@UEAAXH@Z 0000000180022900 f   private_server.obj
 0001:00021980       ?make_private_server@rml@internal@tbb@@YAPEAVtbb_server@123@AEAVtbb_client@123@@Z 0000000180022980 f   private_server.obj
 0001:000219e0       ??$__TBB_store_full_fence@CC@internal@tbb@@YAXAECCC@Z 00000001800229e0 f i private_server.obj
 0001:00021a20       ??$compare_and_swap@$0A@@?$atomic_impl@H@internal@tbb@@QEAAHHH@Z 0000000180022a20 f i private_server.obj
 0001:00021a80       ??$compare_and_swap@$0A@@?$atomic_impl@W4state_t@private_worker@rml@internal@tbb@@@internal@tbb@@QEAA?AW4state_t@private_worker@rml@12@W434512@0@Z 0000000180022a80 f i private_server.obj
 0001:00021ae0       ??$fetch_and_add@$0A@@?$atomic_impl_with_arithmetic@HHD@internal@tbb@@QEAAHH@Z 0000000180022ae0 f i private_server.obj
 0001:00021b20       ??$fetch_and_store@$0A@@?$atomic_impl@_N@internal@tbb@@QEAA_N_N@Z 0000000180022b20 f i private_server.obj
 0001:00021b70       ??$poison_pointer@Vpadded_private_worker@rml@internal@tbb@@@internal@tbb@@YAXAEAPEAVpadded_private_worker@rml@01@@Z 0000000180022b70 f i private_server.obj
 0001:00021b90       ??$store@$0A@@?$atomic_impl@_N@internal@tbb@@QEAAX_N@Z 0000000180022b90 f i private_server.obj
 0001:00021be0       ??$store@C@?$atomic_load_store_traits@$0A@@internal@tbb@@SAXAECCC@Z 0000000180022be0 f i private_server.obj
 0001:00021c20       ??$suppress_unused_warning@$$BY0DI@D@internal@tbb@@YAXAEAY0DI@$$CBD@Z 0000000180022c20 f i private_server.obj
 0001:00021c30       ??$to_bits@H@?$atomic_impl@H@internal@tbb@@CAHH@Z 0000000180022c30 f i private_server.obj
 0001:00021c70       ??$to_bits@PEAVprivate_worker@rml@internal@tbb@@@?$atomic_impl@PEAVprivate_worker@rml@internal@tbb@@@internal@tbb@@CA_JPEAVprivate_worker@rml@12@@Z 0000000180022c70 f i private_server.obj
 0001:00021cb0       ??$to_bits@W4state_t@private_worker@rml@internal@tbb@@@?$atomic_impl@W4state_t@private_worker@rml@internal@tbb@@@internal@tbb@@CAHW4state_t@private_worker@rml@12@@Z 0000000180022cb0 f i private_server.obj
 0001:00021cf0       ??$to_bits_ref@$$CDH@?$atomic_impl@H@internal@tbb@@CAAEAHAEDH@Z 0000000180022cf0 f i private_server.obj
 0001:00021d30       ??$to_bits_ref@$$CDW4state_t@private_worker@rml@internal@tbb@@@?$atomic_impl@W4state_t@private_worker@rml@internal@tbb@@@internal@tbb@@CAAEAHAEDW4state_t@private_worker@rml@12@@Z 0000000180022d30 f i private_server.obj
 0001:00021d70       ??$to_bits_ref@H@?$atomic_impl@H@internal@tbb@@CAAEAHAEAH@Z 0000000180022d70 f i private_server.obj
 0001:00021db0       ??$to_bits_ref@PEAVprivate_worker@rml@internal@tbb@@@?$atomic_impl@PEAVprivate_worker@rml@internal@tbb@@@internal@tbb@@CAAEA_JAEAPEAVprivate_worker@rml@12@@Z 0000000180022db0 f i private_server.obj
 0001:00021df0       ??$to_bits_ref@SEAVprivate_worker@rml@internal@tbb@@@?$atomic_impl@PEAVprivate_worker@rml@internal@tbb@@@internal@tbb@@CAAEA_JAEDSEAVprivate_worker@rml@12@@Z 0000000180022df0 f i private_server.obj
 0001:00021e30       ??$to_bits_ref@W4state_t@private_worker@rml@internal@tbb@@@?$atomic_impl@W4state_t@private_worker@rml@internal@tbb@@@internal@tbb@@CAAEAHAEAW4state_t@private_worker@rml@12@@Z 0000000180022e30 f i private_server.obj
 0001:00021e70       ??$to_value@H@?$atomic_impl@H@internal@tbb@@CAHH@Z 0000000180022e70 f i private_server.obj
 0001:00021ec0       ??$to_value@PEAVprivate_worker@rml@internal@tbb@@@?$atomic_impl@PEAVprivate_worker@rml@internal@tbb@@@internal@tbb@@CAPEAVprivate_worker@rml@12@_J@Z 0000000180022ec0 f i private_server.obj
 0001:00021f20       ??$to_value@W4state_t@private_worker@rml@internal@tbb@@@?$atomic_impl@W4state_t@private_worker@rml@internal@tbb@@@internal@tbb@@CA?AW4state_t@private_worker@rml@12@H@Z 0000000180022f20 f i private_server.obj
 0001:00021f70       ??0?$cache_aligned_allocator@Vpadded_private_worker@rml@internal@tbb@@@tbb@@QEAA@XZ 0000000180022f70 f i private_server.obj
 0001:00021f80       ??0?$cache_aligned_allocator@Vprivate_server@rml@internal@tbb@@@tbb@@QEAA@XZ 0000000180022f80 f i private_server.obj
 0001:00021f90       ??0?$converter@H@?$atomic_impl@H@internal@tbb@@QEAA@H@Z 0000000180022f90 f i private_server.obj
 0001:00021fb0       ??0?$converter@H@?$atomic_impl@H@internal@tbb@@QEAA@XZ 0000000180022fb0 f i private_server.obj
 0001:00021fc0       ??0?$converter@PEAVprivate_worker@rml@internal@tbb@@@?$atomic_impl@PEAVprivate_worker@rml@internal@tbb@@@internal@tbb@@QEAA@PEAVprivate_worker@rml@23@@Z 0000000180022fc0 f i private_server.obj
 0001:00021fe0       ??0?$converter@PEAVprivate_worker@rml@internal@tbb@@@?$atomic_impl@PEAVprivate_worker@rml@internal@tbb@@@internal@tbb@@QEAA@XZ 0000000180022fe0 f i private_server.obj
 0001:00021ff0       ??0?$converter@W4state_t@private_worker@rml@internal@tbb@@@?$atomic_impl@W4state_t@private_worker@rml@internal@tbb@@@internal@tbb@@QEAA@W4state_t@private_worker@rml@23@@Z 0000000180022ff0 f i private_server.obj
 0001:00022010       ??0?$converter@W4state_t@private_worker@rml@internal@tbb@@@?$atomic_impl@W4state_t@private_worker@rml@internal@tbb@@@internal@tbb@@QEAA@XZ 0000000180023010 f i private_server.obj
 0001:00022020       ??0?$ptr_converter@PEAH@?$atomic_impl@H@internal@tbb@@QEAA@PEAH@Z 0000000180023020 f i private_server.obj
 0001:00022040       ??0?$ptr_converter@PEAPEAVprivate_worker@rml@internal@tbb@@@?$atomic_impl@PEAVprivate_worker@rml@internal@tbb@@@internal@tbb@@QEAA@PEAPEAVprivate_worker@rml@23@@Z 0000000180023040 f i private_server.obj
 0001:00022060       ??0?$ptr_converter@PEAW4state_t@private_worker@rml@internal@tbb@@@?$atomic_impl@W4state_t@private_worker@rml@internal@tbb@@@internal@tbb@@QEAA@PEAW4state_t@private_worker@rml@23@@Z 0000000180023060 f i private_server.obj
 0001:00022080       ??0?$ptr_converter@PEDH@?$atomic_impl@H@internal@tbb@@QEAA@PEDH@Z 0000000180023080 f i private_server.obj
 0001:000220a0       ??0?$ptr_converter@PEDSEAVprivate_worker@rml@internal@tbb@@@?$atomic_impl@PEAVprivate_worker@rml@internal@tbb@@@internal@tbb@@QEAA@PEDSEAVprivate_worker@rml@23@@Z 00000001800230a0 f i private_server.obj
 0001:000220c0       ??0?$ptr_converter@PEDW4state_t@private_worker@rml@internal@tbb@@@?$atomic_impl@W4state_t@private_worker@rml@internal@tbb@@@internal@tbb@@QEAA@PEDW4state_t@private_worker@rml@23@@Z 00000001800230c0 f i private_server.obj
 0001:000220e0       ??0padded_private_worker@rml@internal@tbb@@QEAA@AEAVprivate_server@123@AEAVtbb_client@123@_K@Z 00000001800230e0 f i private_server.obj
 0001:00022150       ??0private_worker@rml@internal@tbb@@IEAA@AEAVprivate_server@123@AEAVtbb_client@123@_K@Z 0000000180023150 f i private_server.obj
 0001:00022200       ??0scoped_lock@spin_mutex@tbb@@QEAA@XZ 0000000180023200 f i private_server.obj
 0001:00022230       ??0server@rml@@QEAA@XZ     0000000180023230 f i private_server.obj
 0001:00022280       ??0tbb_server@rml@internal@tbb@@QEAA@XZ 0000000180023280 f i private_server.obj
 0001:000222d0       ??0thread_monitor@internal@rml@@QEAA@XZ 00000001800232d0 f i private_server.obj
 0001:00022380       ??0versioned_object@rml@@QEAA@XZ 0000000180023380 f i private_server.obj
 0001:000223a0       ??1padded_private_worker@rml@internal@tbb@@QEAA@XZ 00000001800233a0 f i private_server.obj
 0001:000223d0       ??1private_worker@rml@internal@tbb@@QEAA@XZ 00000001800233d0 f i private_server.obj
 0001:00022410       ??1thread_monitor@internal@rml@@QEAA@XZ 0000000180023410 f i private_server.obj
 0001:00022450       ??4?$atomic@H@tbb@@QEAAHH@Z 0000000180023450 f i private_server.obj
 0001:00022490       ??4?$atomic@PEAVprivate_worker@rml@internal@tbb@@@tbb@@QEAAPEAVprivate_worker@rml@internal@1@PEAV2341@@Z 0000000180023490 f i private_server.obj
 0001:000224d0       ??4?$atomic@W4state_t@private_worker@rml@internal@tbb@@@tbb@@QEAA?AW4state_t@private_worker@rml@internal@1@W423451@@Z 00000001800234d0 f i private_server.obj
 0001:00022510       ??4cookie@thread_monitor@internal@rml@@QEAAAEAV0123@AEBV0123@@Z 0000000180023510 f i private_server.obj
 0001:00022550       ??B?$atomic_impl@H@internal@tbb@@QEDAHXZ 0000000180023550 f i private_server.obj
 0001:00022590       ??B?$atomic_impl@PEAVprivate_worker@rml@internal@tbb@@@internal@tbb@@QEDAPEAVprivate_worker@rml@12@XZ 0000000180023590 f i private_server.obj
 0001:000225e0       ??B?$atomic_impl@W4state_t@private_worker@rml@internal@tbb@@@internal@tbb@@QEDA?AW4state_t@private_worker@rml@12@XZ 00000001800235e0 f i private_server.obj
 0001:00022620       ??E?$atomic_impl_with_arithmetic@HHD@internal@tbb@@QEAAHXZ 0000000180023620 f i private_server.obj
 0001:00022660       ??F?$atomic_impl_with_arithmetic@HHD@internal@tbb@@QEAAHXZ 0000000180023660 f i private_server.obj
 0001:000226a0       ??Y?$atomic_impl_with_arithmetic@HHD@internal@tbb@@QEAAHH@Z 00000001800236a0 f i private_server.obj
 0001:000226e0       ??_Gpadded_private_worker@rml@internal@tbb@@QEAAPEAXI@Z 00000001800236e0 f i private_server.obj
 0001:00022740       ??_Eprivate_server@rml@internal@tbb@@EEAAPEAXI@Z 0000000180023740 f i private_server.obj
 0001:00022740       ??_Gprivate_server@rml@internal@tbb@@EEAAPEAXI@Z 0000000180023740 f i private_server.obj
 0001:000227a0       ?allocate@?$cache_aligned_allocator@Vpadded_private_worker@rml@internal@tbb@@@tbb@@QEAAPEAVpadded_private_worker@rml@internal@2@_KPEBX@Z 00000001800237a0 f i private_server.obj
 0001:000227f0       ?allocate@?$cache_aligned_allocator@Vprivate_server@rml@internal@tbb@@@tbb@@QEAAPEAVprivate_server@rml@internal@2@_KPEBX@Z 00000001800237f0 f i private_server.obj
 0001:00022840       ?cancel_wait@thread_monitor@internal@rml@@QEAAXXZ 0000000180023840 f i private_server.obj
 0001:000228a0       ?commit_wait@thread_monitor@internal@rml@@QEAAXAEAVcookie@123@@Z 00000001800238a0 f i private_server.obj
 0001:00022930       ?compare_and_swap@?$atomic_impl@H@internal@tbb@@QEAAHHH@Z 0000000180023930 f i private_server.obj
 0001:00022970       ?compare_and_swap@?$atomic_impl@W4state_t@private_worker@rml@internal@tbb@@@internal@tbb@@QEAA?AW4state_t@private_worker@rml@23@W445623@0@Z 0000000180023970 f i private_server.obj
 0001:000229b0       ?deallocate@?$cache_aligned_allocator@Vpadded_private_worker@rml@internal@tbb@@@tbb@@QEAAXPEAVpadded_private_worker@rml@internal@2@_K@Z 00000001800239b0 f i private_server.obj
 0001:000229f0       ?deallocate@?$cache_aligned_allocator@Vprivate_server@rml@internal@tbb@@@tbb@@QEAAXPEAVprivate_server@rml@internal@2@_K@Z 00000001800239f0 f i private_server.obj
 0001:00022a30       ?default_concurrency@private_server@rml@internal@tbb@@UEBAIXZ 0000000180023a30 f i private_server.obj
 0001:00022a60       ?fetch_and_add@?$atomic_impl_with_arithmetic@HHD@internal@tbb@@QEAAHH@Z 0000000180023a60 f i private_server.obj
 0001:00022aa0       ?fetch_and_store@?$atomic_impl@_N@internal@tbb@@QEAA_N_N@Z 0000000180023aa0 f i private_server.obj
 0001:00022ae0       ?fetch_and_store@?$atomic_traits@$00$0A@@internal@tbb@@SACPECXC@Z 0000000180023ae0 f i private_server.obj
 0001:00022b20       ?fetch_store@?$atomic_selector@$00@internal@tbb@@SACPECXC@Z 0000000180023b20 f i private_server.obj
 0001:00022b60       ?independent_thread_number_changed@private_server@rml@internal@tbb@@UEAAXH@Z 0000000180023b60 f i private_server.obj
 0001:00022bb0       ?launch@thread_monitor@internal@rml@@SAPEAXP6AIPEAX@Z0_KPEB_K@Z 0000000180023bb0 f i private_server.obj
 0001:00022ce0       ?notify@thread_monitor@internal@rml@@QEAAXXZ 0000000180023ce0 f i private_server.obj
 0001:00022d60       ?prepare_wait@thread_monitor@internal@rml@@QEAAXAEAVcookie@123@@Z 0000000180023d60 f i private_server.obj
 0001:00022de0       ?propagate_chain_reaction@private_server@rml@internal@tbb@@AEAAXXZ 0000000180023de0 f i private_server.obj
 0001:00022e30       ?register_master@private_server@rml@internal@tbb@@UEAAXAEAPEAX@Z 0000000180023e30 f i private_server.obj
 0001:00022e40       ?remove_server_ref@private_server@rml@internal@tbb@@AEAAXXZ 0000000180023e40 f i private_server.obj
 0001:00022ec0       ?request_close_connection@private_server@rml@internal@tbb@@UEAAX_N@Z 0000000180023ec0 f i private_server.obj
 0001:00022f40       ?store@?$machine_load_store_seq_cst@C$00@internal@tbb@@SAXAECCC@Z 0000000180023f40 f i private_server.obj
 0001:00022f80       ?store_with_release@?$atomic_impl@H@internal@tbb@@IEAAHH@Z 0000000180023f80 f i private_server.obj
 0001:00022fe0       ?store_with_release@?$atomic_impl@PEAVprivate_worker@rml@internal@tbb@@@internal@tbb@@IEAAPEAVprivate_worker@rml@23@PEAV4523@@Z 0000000180023fe0 f i private_server.obj
 0001:00023040       ?store_with_release@?$atomic_impl@W4state_t@private_worker@rml@internal@tbb@@@internal@tbb@@IEAA?AW4state_t@private_worker@rml@23@W445623@@Z 0000000180024040 f i private_server.obj
 0001:000230a0       ?try_acquire@scoped_lock@spin_mutex@tbb@@QEAA_NAEAV23@@Z 00000001800240a0 f i private_server.obj
 0001:000230e0       ?try_insert_in_asleep_list@private_server@rml@internal@tbb@@AEAA_NAEAVprivate_worker@234@@Z 00000001800240e0 f i private_server.obj
 0001:00023200       ?unregister_master@private_server@rml@internal@tbb@@UEAAXPEAX@Z 0000000180024200 f i private_server.obj
 0001:00023210       ?version@private_server@rml@internal@tbb@@UEBAIXZ 0000000180024210 f i private_server.obj
 0001:00023220       ?wake_or_launch@private_worker@rml@internal@tbb@@AEAAXXZ 0000000180024220 f i private_server.obj
 0001:00023350       ?yield@private_server@rml@internal@tbb@@UEAAXXZ 0000000180024350 f i private_server.obj
 0001:00023380       __local_stdio_printf_options 0000000180024380 f i private_server.obj
 0001:00023390       _vfprintf_l                0000000180024390 f i private_server.obj
 0001:000233f0       fprintf                    00000001800243f0 f i private_server.obj
 0001:00023470       ?open@tbb_factory@rml@internal@tbb@@QEAA?AW4status_type@factory@2@XZ 0000000180024470 f   rml_tbb.obj
 0001:00023600       ?make_server@tbb_factory@rml@internal@tbb@@QEAA?AW4status_type@factory@2@AEAPEAVtbb_server@234@AEAVtbb_client@234@@Z 0000000180024600 f   rml_tbb.obj
 0001:00023680       ?close@tbb_factory@rml@internal@tbb@@QEAAXXZ 0000000180024680 f   rml_tbb.obj
 0001:000236f0       ?call_with_server_info@tbb_factory@rml@internal@tbb@@QEBAXP6AXPEAXPEBD@Z0@Z 00000001800246f0 f   rml_tbb.obj
 0001:00023760       ?set_assertion_handler@tbb@@YAP6AXPEBDH00@ZP6AX0H00@Z@Z 0000000180024760 f   tbb_misc.obj
 0001:000237b0       ?assertion_failure@tbb@@YAXPEBDH00@Z 00000001800247b0 f   tbb_misc.obj
 0001:000238f0       TBB_runtime_interface_version 00000001800248f0 f   tbb_misc.obj
 0001:00023900       ?handle_perror@internal@tbb@@YAXHPEBD@Z 0000000180024900 f   tbb_misc.obj
 0001:00023a40       ?runtime_warning@internal@tbb@@YAXPEBDZZ 0000000180024a40 f   tbb_misc.obj
 0001:00023b20       ?what@bad_last_alloc@tbb@@UEBAPEBDXZ 0000000180024b20 f   tbb_misc.obj
 0001:00023b40       ?what@improper_lock@tbb@@UEBAPEBDXZ 0000000180024b40 f   tbb_misc.obj
 0001:00023b60       ?what@user_abort@tbb@@UEBAPEBDXZ 0000000180024b60 f   tbb_misc.obj
 0001:00023b80       ?what@missing_wait@tbb@@UEBAPEBDXZ 0000000180024b80 f   tbb_misc.obj
 0001:00023ba0       ?what@invalid_multiple_scheduling@tbb@@UEBAPEBDXZ 0000000180024ba0 f   tbb_misc.obj
 0001:00023bc0       ?throw_bad_last_alloc_exception_v4@internal@tbb@@YAXXZ 0000000180024bc0 f   tbb_misc.obj
 0001:00023bf0       ?throw_exception_v4@internal@tbb@@YAXW4exception_id@12@@Z 0000000180024bf0 f   tbb_misc.obj
 0001:00024030       ?DefaultSystemPageSize@internal@tbb@@YA_KXZ 0000000180025030 f   tbb_misc.obj
 0001:00024080       ?handle_win_error@internal@tbb@@YAXH@Z 0000000180025080 f   tbb_misc.obj
 0001:00024140       ?PrintVersion@internal@tbb@@YAXXZ 0000000180025140 f   tbb_misc.obj
 0001:00024190       ?PrintExtraVersionInfo@internal@tbb@@YAXPEBD0ZZ 0000000180025190 f   tbb_misc.obj
 0001:00024290       ?PrintRMLVersionInfo@internal@tbb@@YAXPEAXPEBD@Z 0000000180025290 f   tbb_misc.obj
 0001:000242d0       ?cpu_has_speculation@internal@tbb@@YA_NXZ 00000001800252d0 f   tbb_misc.obj
 0001:000243b0       ?gcc_rethrow_exception_broken@internal@tbb@@YA_NXZ 00000001800253b0 f   tbb_misc.obj
 0001:000243c0       ?fix_broken_rethrow@internal@tbb@@YAXXZ 00000001800253c0 f   tbb_misc.obj
 0001:000243d0       ??0bad_alloc@std@@QEAA@AEBV01@@Z 00000001800253d0 f i tbb_misc.obj
 0001:00024420       ??0bad_alloc@std@@QEAA@XZ  0000000180025420 f i tbb_misc.obj
 0001:00024470       ??0bad_last_alloc@tbb@@QEAA@AEBV01@@Z 0000000180025470 f i tbb_misc.obj
 0001:000244c0       ??0bad_last_alloc@tbb@@QEAA@XZ 00000001800254c0 f i tbb_misc.obj
 0001:00024510       ??0exception@std@@QEAA@AEBV01@@Z 0000000180025510 f i tbb_misc.obj
 0001:00024580       ??0exception@std@@QEAA@QEBD@Z 0000000180025580 f i tbb_misc.obj
 0001:00024610       ??0exception@std@@QEAA@QEBDH@Z 0000000180025610 f i tbb_misc.obj
 0001:00024660       ??0exception@std@@QEAA@XZ  0000000180025660 f i tbb_misc.obj
 0001:000246a0       ??0improper_lock@tbb@@QEAA@AEBV01@@Z 00000001800256a0 f i tbb_misc.obj
 0001:000246f0       ??0improper_lock@tbb@@QEAA@XZ 00000001800256f0 f i tbb_misc.obj
 0001:00024740       ??0invalid_argument@std@@QEAA@AEBV01@@Z 0000000180025740 f i tbb_misc.obj
 0001:00024790       ??0invalid_argument@std@@QEAA@PEBD@Z 0000000180025790 f i tbb_misc.obj
 0001:000247e0       ??0invalid_multiple_scheduling@tbb@@QEAA@AEBV01@@Z 00000001800257e0 f i tbb_misc.obj
 0001:00024830       ??0invalid_multiple_scheduling@tbb@@QEAA@XZ 0000000180025830 f i tbb_misc.obj
 0001:00024880       ??0length_error@std@@QEAA@AEBV01@@Z 0000000180025880 f i tbb_misc.obj
 0001:000248d0       ??0length_error@std@@QEAA@PEBD@Z 00000001800258d0 f i tbb_misc.obj
 0001:00024920       ??0logic_error@std@@QEAA@AEBV01@@Z 0000000180025920 f i tbb_misc.obj
 0001:00024970       ??0logic_error@std@@QEAA@PEBD@Z 0000000180025970 f i tbb_misc.obj
 0001:000249c0       ??0missing_wait@tbb@@QEAA@AEBV01@@Z 00000001800259c0 f i tbb_misc.obj
 0001:00024a10       ??0missing_wait@tbb@@QEAA@XZ 0000000180025a10 f i tbb_misc.obj
 0001:00024a60       ??0out_of_range@std@@QEAA@AEBV01@@Z 0000000180025a60 f i tbb_misc.obj
 0001:00024ab0       ??0out_of_range@std@@QEAA@PEBD@Z 0000000180025ab0 f i tbb_misc.obj
 0001:00024b00       ??0range_error@std@@QEAA@AEBV01@@Z 0000000180025b00 f i tbb_misc.obj
 0001:00024b50       ??0range_error@std@@QEAA@PEBD@Z 0000000180025b50 f i tbb_misc.obj
 0001:00024ba0       ??0runtime_error@std@@QEAA@AEBV01@@Z 0000000180025ba0 f i tbb_misc.obj
 0001:00024bf0       ??0runtime_error@std@@QEAA@PEBD@Z 0000000180025bf0 f i tbb_misc.obj
 0001:00024c40       ??0user_abort@tbb@@QEAA@AEBV01@@Z 0000000180025c40 f i tbb_misc.obj
 0001:00024c90       ??0user_abort@tbb@@QEAA@XZ 0000000180025c90 f i tbb_misc.obj
 0001:00024ce0       ??1bad_alloc@std@@UEAA@XZ  0000000180025ce0 f i tbb_misc.obj
 0001:00024d10       ??1bad_last_alloc@tbb@@UEAA@XZ 0000000180025d10 f i tbb_misc.obj
 0001:00024d40       ??1exception@std@@UEAA@XZ  0000000180025d40 f i tbb_misc.obj
 0001:00024d90       ??1improper_lock@tbb@@UEAA@XZ 0000000180025d90 f i tbb_misc.obj
 0001:00024dc0       ??1invalid_argument@std@@UEAA@XZ 0000000180025dc0 f i tbb_misc.obj
 0001:00024df0       ??1invalid_multiple_scheduling@tbb@@UEAA@XZ 0000000180025df0 f i tbb_misc.obj
 0001:00024e20       ??1length_error@std@@UEAA@XZ 0000000180025e20 f i tbb_misc.obj
 0001:00024e50       ??1logic_error@std@@UEAA@XZ 0000000180025e50 f i tbb_misc.obj
 0001:00024e80       ??1missing_wait@tbb@@UEAA@XZ 0000000180025e80 f i tbb_misc.obj
 0001:00024eb0       ??1out_of_range@std@@UEAA@XZ 0000000180025eb0 f i tbb_misc.obj
 0001:00024ee0       ??1range_error@std@@UEAA@XZ 0000000180025ee0 f i tbb_misc.obj
 0001:00024f10       ??1runtime_error@std@@UEAA@XZ 0000000180025f10 f i tbb_misc.obj
 0001:00024f40       ??1user_abort@tbb@@UEAA@XZ 0000000180025f40 f i tbb_misc.obj
 0001:00024f70       ??_Ebad_alloc@std@@UEAAPEAXI@Z 0000000180025f70 f i tbb_misc.obj
 0001:00024f70       ??_Gbad_alloc@std@@UEAAPEAXI@Z 0000000180025f70 f i tbb_misc.obj
 0001:00024fd0       ??_Gbad_last_alloc@tbb@@UEAAPEAXI@Z 0000000180025fd0 f i tbb_misc.obj
 0001:00024fd0       ??_Ebad_last_alloc@tbb@@UEAAPEAXI@Z 0000000180025fd0 f i tbb_misc.obj
 0001:00025030       ??_Eexception@std@@UEAAPEAXI@Z 0000000180026030 f i tbb_misc.obj
 0001:00025030       ??_Gexception@std@@UEAAPEAXI@Z 0000000180026030 f i tbb_misc.obj
 0001:00025090       ??_Gimproper_lock@tbb@@UEAAPEAXI@Z 0000000180026090 f i tbb_misc.obj
 0001:00025090       ??_Eimproper_lock@tbb@@UEAAPEAXI@Z 0000000180026090 f i tbb_misc.obj
 0001:000250f0       ??_Einvalid_argument@std@@UEAAPEAXI@Z 00000001800260f0 f i tbb_misc.obj
 0001:000250f0       ??_Ginvalid_argument@std@@UEAAPEAXI@Z 00000001800260f0 f i tbb_misc.obj
 0001:00025150       ??_Einvalid_multiple_scheduling@tbb@@UEAAPEAXI@Z 0000000180026150 f i tbb_misc.obj
 0001:00025150       ??_Ginvalid_multiple_scheduling@tbb@@UEAAPEAXI@Z 0000000180026150 f i tbb_misc.obj
 0001:000251b0       ??_Elength_error@std@@UEAAPEAXI@Z 00000001800261b0 f i tbb_misc.obj
 0001:000251b0       ??_Glength_error@std@@UEAAPEAXI@Z 00000001800261b0 f i tbb_misc.obj
 0001:00025210       ??_Glogic_error@std@@UEAAPEAXI@Z 0000000180026210 f i tbb_misc.obj
 0001:00025210       ??_Elogic_error@std@@UEAAPEAXI@Z 0000000180026210 f i tbb_misc.obj
 0001:00025270       ??_Emissing_wait@tbb@@UEAAPEAXI@Z 0000000180026270 f i tbb_misc.obj
 0001:00025270       ??_Gmissing_wait@tbb@@UEAAPEAXI@Z 0000000180026270 f i tbb_misc.obj
 0001:000252d0       ??_Eout_of_range@std@@UEAAPEAXI@Z 00000001800262d0 f i tbb_misc.obj
 0001:000252d0       ??_Gout_of_range@std@@UEAAPEAXI@Z 00000001800262d0 f i tbb_misc.obj
 0001:00025330       ??_Erange_error@std@@UEAAPEAXI@Z 0000000180026330 f i tbb_misc.obj
 0001:00025330       ??_Grange_error@std@@UEAAPEAXI@Z 0000000180026330 f i tbb_misc.obj
 0001:00025390       ??_Gruntime_error@std@@UEAAPEAXI@Z 0000000180026390 f i tbb_misc.obj
 0001:00025390       ??_Eruntime_error@std@@UEAAPEAXI@Z 0000000180026390 f i tbb_misc.obj
 0001:000253f0       ??_Euser_abort@tbb@@UEAAPEAXI@Z 00000001800263f0 f i tbb_misc.obj
 0001:000253f0       ??_Guser_abort@tbb@@UEAAPEAXI@Z 00000001800263f0 f i tbb_misc.obj
 0001:00025450       ?what@exception@std@@UEBAPEBDXZ 0000000180026450 f i tbb_misc.obj
 0001:000254a0       _snprintf                  00000001800264a0 f i tbb_misc.obj
 0001:00025520       _vsnprintf                 0000000180026520 f i tbb_misc.obj
 0001:00025580       _vsnprintf_l               0000000180026580 f i tbb_misc.obj
 0001:00025610       vsnprintf                  0000000180026610 f i tbb_misc.obj
 0001:00025720       ?AvailableHwConcurrency@internal@tbb@@YAHXZ 0000000180026720 f   tbb_misc_ex.obj
 0001:00025780       ?NumberOfProcessorGroups@internal@tbb@@YAHXZ 0000000180026780 f   tbb_misc_ex.obj
 0001:000257e0       ?FindProcessorGroupIndex@internal@tbb@@YAHH@Z 00000001800267e0 f   tbb_misc_ex.obj
 0001:00025a20       ?MoveThreadIntoProcessorGroup@internal@tbb@@YAXPEAXH@Z 0000000180026a20 f   tbb_misc_ex.obj
 0001:00025f50       ?allocate@allocate_additional_child_of_proxy@internal@tbb@@QEBAAEAVtask@3@_K@Z 0000000180026f50 f   task.obj
 0001:00025fd0       ?free@allocate_additional_child_of_proxy@internal@tbb@@QEBAXAEAVtask@3@@Z 0000000180026fd0 f   task.obj
 0001:00026020       ?destroy@task_base@internal@interface5@tbb@@SAXAEAVtask@4@@Z 0000000180027020 f   task.obj
 0001:00026140       ?allocate@allocate_root_with_context_proxy@internal@tbb@@QEBAAEAVtask@3@_K@Z 0000000180027140 f   task.obj
 0001:000262c0       ?free@allocate_root_with_context_proxy@internal@tbb@@QEBAXAEAVtask@3@@Z 00000001800272c0 f   task.obj
 0001:00026340       ?allocate@allocate_root_proxy@internal@tbb@@SAAEAVtask@3@_K@Z 0000000180027340 f   task.obj
 0001:00026400       ?free@allocate_root_proxy@internal@tbb@@SAXAEAVtask@3@@Z 0000000180027400 f   task.obj
 0001:00026470       ?allocate@allocate_continuation_proxy@internal@tbb@@QEBAAEAVtask@3@_K@Z 0000000180027470 f   task.obj
 0001:00026510       ?free@allocate_continuation_proxy@internal@tbb@@QEBAXAEAVtask@3@@Z 0000000180027510 f   task.obj
 0001:00026580       ?allocate@allocate_child_proxy@internal@tbb@@QEBAAEAVtask@3@_K@Z 0000000180027580 f   task.obj
 0001:00026600       ?free@allocate_child_proxy@internal@tbb@@QEBAXAEAVtask@3@@Z 0000000180027600 f   task.obj
 0001:00026650       ?internal_set_ref_count@task@tbb@@AEAAXH@Z 0000000180027650 f   task.obj
 0001:00026740       ?internal_decrement_ref_count@task@tbb@@AEAA_JXZ 0000000180027740 f   task.obj
 0001:00026820       ?spawn_and_wait_for_all@task@tbb@@QEAAXAEAVtask_list@2@@Z 0000000180027820 f   task.obj
 0001:000268d0       ?self@task@tbb@@SAAEAV12@XZ 00000001800278d0 f   task.obj
 0001:00026940       ?is_owned_by_current_thread@task@tbb@@QEBA_NXZ 0000000180027940 f   task.obj
 0001:00026950       ?note_affinity@task@tbb@@UEAAXG@Z 0000000180027950 f   task.obj
 0001:00026970       ?change_group@task@tbb@@QEAAXAEAVtask_group_context@2@@Z 0000000180027970 f   task.obj
 0001:00026a70       ?get_initial_auto_partitioner_divisor@internal@tbb@@YA_KXZ 0000000180027a70 f   task.obj
 0001:00026ab0       ?resize@affinity_partitioner_base_v3@internal@tbb@@AEAAXI@Z 0000000180027ab0 f   task.obj
 0001:00026ba0       ??$__TBB_load_relaxed@W4kind_type@task_group_context@tbb@@@internal@tbb@@YA?AW4kind_type@task_group_context@1@AEDW4231@@Z 0000000180027ba0 f i task.obj
 0001:00026bd0       ??$__TBB_store_relaxed@W4kind_type@task_group_context@tbb@@W4123@@internal@tbb@@YAXAECW4kind_type@task_group_context@1@W4231@@Z 0000000180027bd0 f i task.obj
 0001:00026c10       ??$free_task@$00@generic_scheduler@internal@tbb@@QEAAXAEAVtask@2@@Z 0000000180027c10 f i task.obj
 0001:00026dc0       ??$free_task@$03@generic_scheduler@internal@tbb@@QEAAXAEAVtask@2@@Z 0000000180027dc0 f i task.obj
 0001:00026f80       ??$is_poisoned@PEBVtask@tbb@@@internal@tbb@@YA_NPEAPEBVtask@1@@Z 0000000180027f80 f i task.obj
 0001:00026fc0       ??$poison_pointer@Vscheduler@internal@tbb@@@internal@tbb@@YAXAEAPEAVscheduler@01@@Z 0000000180027fc0 f i task.obj
 0001:00026fe0       ??$poison_pointer@Vtask@tbb@@@internal@tbb@@YAXAEAPEAVtask@1@@Z 0000000180027fe0 f i task.obj
 0001:00027000       ??$poison_value@H@internal@tbb@@YAXAEAH@Z 0000000180028000 f i task.obj
 0001:00027040       ??$poison_value@_J@internal@tbb@@YAXAEA_J@Z 0000000180028040 f i task.obj
 0001:00027080       ??$punned_cast@PEAH$$CB_K@internal@tbb@@YAPEAHPEB_K@Z 0000000180028080 f i task.obj
 0001:000270c0       ??$punned_cast@PEA_J$$CB_K@internal@tbb@@YAPEA_JPEB_K@Z 00000001800280c0 f i task.obj
 0001:00027100       ?assert_task_pool_valid@generic_scheduler@internal@tbb@@QEBAXXZ 0000000180028100 f i task.obj
 0001:00027110       ?assert_task_valid@internal@tbb@@YAXPEBVtask@2@@Z 0000000180028110 f i task.obj
 0001:00027220       ?deallocate_task@generic_scheduler@internal@tbb@@QEAAXAEAVtask@3@@Z 0000000180028220 f i task.obj
 0001:000272b0       ?default_context@generic_scheduler@internal@tbb@@QEAAPEAVtask_group_context@3@XZ 00000001800282b0 f i task.obj
 0001:000272f0       ?get@?$basic_tls@_K@internal@tbb@@QEAA_KXZ 00000001800282f0 f i task.obj
 0001:00027330       ?increment_ref_count@task@tbb@@QEAAXXZ 0000000180028330 f i task.obj
 0001:00027380       ?is_worker@generic_scheduler@internal@tbb@@QEBA_NXZ 0000000180028380 f i task.obj
 0001:000273d0       ?load@?$machine_load_store_relaxed@W4kind_type@task_group_context@tbb@@$03@internal@tbb@@SA?AW4kind_type@task_group_context@3@AEDW4453@@Z 00000001800283d0 f i task.obj
 0001:000273e0       ?local_scheduler@governor@internal@tbb@@SAPEAVgeneric_scheduler@23@XZ 00000001800283e0 f i task.obj
 0001:00027450       ?local_scheduler_weak@governor@internal@tbb@@SAPEAVgeneric_scheduler@23@XZ 0000000180028450 f i task.obj
 0001:000274b0       ?master_outermost_level@generic_scheduler@internal@tbb@@QEBA_NXZ 00000001800284b0 f i task.obj
 0001:00027510       ?max_threads_in_arena@generic_scheduler@internal@tbb@@QEAAIXZ 0000000180028510 f i task.obj
 0001:00027570       ?outermost_level@generic_scheduler@internal@tbb@@QEBA_NXZ 0000000180028570 f i task.obj
 0001:00027590       ?prefix@task@tbb@@QEBAAEAVtask_prefix@internal@2@PEAUversion_tag_v3@42@@Z 0000000180028590 f i task.obj
 0001:000275c0       ?state@task@tbb@@QEBA?AW4state_type@12@XZ 00000001800285c0 f i task.obj
 0001:00027600       ?store@?$machine_load_store_relaxed@W4kind_type@task_group_context@tbb@@$03@internal@tbb@@SAXAECW4kind_type@task_group_context@3@W4453@@Z 0000000180028600 f i task.obj
 0001:00027620       ?tls_scheduler_of@governor@internal@tbb@@SAPEAVgeneric_scheduler@23@_K@Z 0000000180028620 f i task.obj
 0001:00027710       ??1task_group_context@tbb@@QEAA@XZ 0000000180028710 f   task_group_context.obj
 0001:00027ae0       ?reset@task_group_context@tbb@@QEAAXXZ 0000000180028ae0 f   task_group_context.obj
 0001:00027b50       ?cancel_group_execution@task_group_context@tbb@@QEAA_NXZ 0000000180028b50 f   task_group_context.obj
 0001:00027c10       ?is_group_execution_cancelled@task_group_context@tbb@@QEBA_NXZ 0000000180028c10 f   task_group_context.obj
 0001:00027c60       ?register_pending_exception@task_group_context@tbb@@QEAAXXZ 0000000180028c60 f   task_group_context.obj
 0001:00027cd0       ?capture_fp_settings@task_group_context@tbb@@QEAAXXZ 0000000180028cd0 f   task_group_context.obj
 0001:00027d70       ?set_priority@task_group_context@tbb@@QEAAXW4priority_t@2@@Z 0000000180028d70 f   task_group_context.obj
 0001:00027ea0       ?priority@task_group_context@tbb@@QEBA?AW4priority_t@2@XZ 0000000180028ea0 f   task_group_context.obj
 0001:00027ed0       ?init@task_group_context@tbb@@IEAAXXZ 0000000180028ed0 f   task_group_context.obj
 0001:000280a0       ?bind_to@task_group_context@tbb@@QEAAXPEAVgeneric_scheduler@internal@2@@Z 00000001800290a0 f   task_group_context.obj
 0001:000282f0       ?register_with@task_group_context@tbb@@QEAAXPEAVgeneric_scheduler@internal@2@@Z 00000001800292f0 f   task_group_context.obj
 0001:000284b0       ?copy_fp_settings@task_group_context@tbb@@QEAAXAEBV12@@Z 00000001800294b0 f   task_group_context.obj
 0001:000285c0       ??1captured_exception@tbb@@UEAA@XZ 00000001800295c0 f   task_group_context.obj
 0001:00028610       ?move@captured_exception@tbb@@UEAAPEAV12@XZ 0000000180029610 f   task_group_context.obj
 0001:000286c0       ?destroy@captured_exception@tbb@@UEAAXXZ 00000001800296c0 f   task_group_context.obj
 0001:00028740       ?name@captured_exception@tbb@@UEBAPEBDXZ 0000000180029740 f   task_group_context.obj
 0001:00028760       ?what@captured_exception@tbb@@UEBAPEBDXZ 0000000180029760 f   task_group_context.obj
 0001:00028780       ?set@captured_exception@tbb@@QEAAXPEBD0@Z 0000000180029780 f   task_group_context.obj
 0001:000287e0       ?clear@captured_exception@tbb@@QEAAXXZ 00000001800297e0 f   task_group_context.obj
 0001:00028830       ?allocate@captured_exception@tbb@@SAPEAV12@PEBD0@Z 0000000180029830 f   task_group_context.obj
 0001:000288b0       ?allocate@tbb_exception_ptr@internal@tbb@@SAPEAV123@XZ 00000001800298b0 f   task_group_context.obj
 0001:00028920       ?allocate@tbb_exception_ptr@internal@tbb@@SAPEAV123@AEBVtbb_exception@3@@Z 0000000180029920 f   task_group_context.obj
 0001:00028990       ?allocate@tbb_exception_ptr@internal@tbb@@SAPEAV123@AEAVcaptured_exception@3@@Z 0000000180029990 f   task_group_context.obj
 0001:000289e0       ?destroy@tbb_exception_ptr@internal@tbb@@QEAAXXZ 00000001800299e0 f   task_group_context.obj
 0001:00028a20       ??$AllocateExceptionContainer@Vcaptured_exception@tbb@@@internal@tbb@@YAPEAVtbb_exception_ptr@01@AEBVcaptured_exception@1@@Z 0000000180029a20 f i task_group_context.obj
 0001:00028a90       ??$AllocateExceptionContainer@Vexception_ptr@std@@@internal@tbb@@YAPEAVtbb_exception_ptr@01@AEBVexception_ptr@std@@@Z 0000000180029a90 f i task_group_context.obj
 0001:00028b00       ??$__TBB_load_with_acquire@PEAUcontext_list_node_t@internal@tbb@@@internal@tbb@@YAPEAUcontext_list_node_t@01@AEDSEAU201@@Z 0000000180029b00 f i task_group_context.obj
 0001:00028b30       ??$__TBB_store_with_release@PEAUcontext_list_node_t@internal@tbb@@PEAU123@@internal@tbb@@YAXAECREAUcontext_list_node_t@01@PEAU201@@Z 0000000180029b30 f i task_group_context.obj
 0001:00028b70       ??$addressof@Vcaptured_exception@tbb@@@std@@YAPEAVcaptured_exception@tbb@@AEAV12@@Z 0000000180029b70 f i task_group_context.obj
 0001:00028b80       ??$as_atomic@W4kind_type@task_group_context@tbb@@@internal@tbb@@YAAEAU?$atomic@W4kind_type@task_group_context@tbb@@@1@AEAW4kind_type@task_group_context@1@@Z 0000000180029b80 f i task_group_context.obj
 0001:00028b90       ??$as_atomic@_K@internal@tbb@@YAAEAU?$atomic@_K@1@AEA_K@Z 0000000180029b90 f i task_group_context.obj
 0001:00028ba0       ??$fetch_and_decrement@$0A@@?$atomic_impl_with_arithmetic@_K_KD@internal@tbb@@QEAA_KXZ 0000000180029ba0 f i task_group_context.obj
 0001:00028be0       ??$fetch_and_increment@$0A@@?$atomic_impl_with_arithmetic@_K_KD@internal@tbb@@QEAA_KXZ 0000000180029be0 f i task_group_context.obj
 0001:00028c20       ??$fetch_and_store@$0A@@?$atomic_impl@W4kind_type@task_group_context@tbb@@@internal@tbb@@QEAA?AW4kind_type@task_group_context@2@W4342@@Z 0000000180029c20 f i task_group_context.obj
 0001:00028c70       ??$make_exception_ptr@Vcaptured_exception@tbb@@@std@@YA?AVexception_ptr@0@Vcaptured_exception@tbb@@@Z 0000000180029c70 f i task_group_context.obj
 0001:00028ce0       ??$poison_value@_K@internal@tbb@@YAXAEA_K@Z 0000000180029ce0 f i task_group_context.obj
 0001:00028d20       ??$propagate_task_group_state@_J@generic_scheduler@internal@tbb@@QEAAXPEQtask_group_context@2@_JAEAV32@_J@Z 0000000180029d20 f i task_group_context.obj
 0001:00028e70       ??$propagate_task_group_state@_J@market@internal@tbb@@QEAA_NPEQtask_group_context@2@_JAEAV32@_J@Z 0000000180029e70 f i task_group_context.obj
 0001:00029070       ??$propagate_task_group_state@_J@task_group_context@tbb@@QEAAXPEQ01@_JAEAV01@_J@Z 000000018002a070 f i task_group_context.obj
 0001:00029180       ??$propagate_task_group_state@_K@generic_scheduler@internal@tbb@@QEAAXPEQtask_group_context@2@_KAEAV32@_K@Z 000000018002a180 f i task_group_context.obj
 0001:000292d0       ??$propagate_task_group_state@_K@market@internal@tbb@@QEAA_NPEQtask_group_context@2@_KAEAV32@_K@Z 000000018002a2d0 f i task_group_context.obj
 0001:000294d0       ??$propagate_task_group_state@_K@task_group_context@tbb@@QEAAXPEQ01@_KAEAV01@_K@Z 000000018002a4d0 f i task_group_context.obj
 0001:000295e0       ??$punned_cast@PEAVcpu_ctl_env@internal@tbb@@$$CBUcpu_ctl_env_space@23@@internal@tbb@@YAPEAVcpu_ctl_env@01@PEBUcpu_ctl_env_space@01@@Z 000000018002a5e0 f i task_group_context.obj
 0001:00029620       ??$punned_cast@PEAVcpu_ctl_env@internal@tbb@@Ucpu_ctl_env_space@23@@internal@tbb@@YAPEAVcpu_ctl_env@01@PEAUcpu_ctl_env_space@01@@Z 000000018002a620 f i task_group_context.obj
 0001:00029660       ??$punned_cast@PEAVscoped_lock@spin_mutex@tbb@@$$CBV?$aligned_space@Vscoped_lock@spin_mutex@tbb@@$00@3@@internal@tbb@@YAPEAVscoped_lock@spin_mutex@1@PEBV?$aligned_space@Vscoped_lock@spin_mutex@tbb@@$00@1@@Z 000000018002a660 f i task_group_context.obj
 0001:000296a0       ??$punned_cast@PEA_K$$CB_K@internal@tbb@@YAPEA_KPEB_K@Z 000000018002a6a0 f i task_group_context.obj
 0001:000296e0       ??$spin_wait_until_eq@U?$atomic@_K@tbb@@I@internal@tbb@@YAXAEDU?$atomic@_K@1@I@Z 000000018002a6e0 f i task_group_context.obj
 0001:00029740       ??$suppress_unused_warning@$$BY01H@internal@tbb@@YAXAEAY01$$CBH@Z 000000018002a740 f i task_group_context.obj
 0001:00029750       ??$to_bits@W4kind_type@task_group_context@tbb@@@?$atomic_impl@W4kind_type@task_group_context@tbb@@@internal@tbb@@SAHW4kind_type@task_group_context@2@@Z 000000018002a750 f i task_group_context.obj
 0001:00029790       ??$to_bits@_K@?$atomic_impl@_K@internal@tbb@@SA_J_K@Z 000000018002a790 f i task_group_context.obj
 0001:000297d0       ??$to_bits_ref@$$CB_K@?$atomic_impl@_K@internal@tbb@@SAAEA_JAEB_K@Z 000000018002a7d0 f i task_group_context.obj
 0001:00029810       ??$to_bits_ref@$$CDI@?$atomic_impl@I@internal@tbb@@SAAEAHAEDI@Z 000000018002a810 f i task_group_context.obj
 0001:00029850       ??$to_bits_ref@$$CD_K@?$atomic_impl@_K@internal@tbb@@SAAEA_JAED_K@Z 000000018002a850 f i task_group_context.obj
 0001:00029890       ??$to_bits_ref@_K@?$atomic_impl@_K@internal@tbb@@SAAEA_JAEA_K@Z 000000018002a890 f i task_group_context.obj
 0001:000298d0       ??$to_value@I@?$atomic_impl@I@internal@tbb@@SAIH@Z 000000018002a8d0 f i task_group_context.obj
 0001:00029920       ??$to_value@W4kind_type@task_group_context@tbb@@@?$atomic_impl@W4kind_type@task_group_context@tbb@@@internal@tbb@@SA?AW4kind_type@task_group_context@2@H@Z 000000018002a920 f i task_group_context.obj
 0001:00029970       ??$to_value@_K@?$atomic_impl@_K@internal@tbb@@SA_K_J@Z 000000018002a970 f i task_group_context.obj
 0001:000299d0       ??0?$converter@W4kind_type@task_group_context@tbb@@@?$atomic_impl@W4kind_type@task_group_context@tbb@@@internal@tbb@@QEAA@W4kind_type@task_group_context@3@@Z 000000018002a9d0 f i task_group_context.obj
 0001:000299f0       ??0?$converter@W4kind_type@task_group_context@tbb@@@?$atomic_impl@W4kind_type@task_group_context@tbb@@@internal@tbb@@QEAA@XZ 000000018002a9f0 f i task_group_context.obj
 0001:00029a00       ??0?$iterator_impl@Viterator@?$intrusive_list_base@V?$intrusive_list@Vgeneric_scheduler@internal@tbb@@@internal@tbb@@Vgeneric_scheduler@23@@internal@tbb@@@?$intrusive_list_base@V?$intrusive_list@Vgeneric_scheduler@internal@tbb@@@internal@tbb@@Vgeneric_scheduler@23@@internal@tbb@@IEAA@PEAUintrusive_list_node@23@@Z 000000018002aa00 f i task_group_context.obj
 0001:00029a20       ??0captured_exception@tbb@@QEAA@AEBV01@@Z 000000018002aa20 f i task_group_context.obj
 0001:00029aa0       ??0captured_exception@tbb@@QEAA@PEBD0@Z 000000018002aaa0 f i task_group_context.obj
 0001:00029b10       ??0captured_exception@tbb@@QEAA@XZ 000000018002ab10 f i task_group_context.obj
 0001:00029b80       ??0exception_ptr@std@@QEAA@AEBV01@@Z 000000018002ab80 f i task_group_context.obj
 0001:00029bd0       ??0exception_ptr@std@@QEAA@XZ 000000018002abd0 f i task_group_context.obj
 0001:00029c10       ??0iterator@?$intrusive_list_base@V?$intrusive_list@Vgeneric_scheduler@internal@tbb@@@internal@tbb@@Vgeneric_scheduler@23@@internal@tbb@@QEAA@PEAUintrusive_list_node@23@@Z 000000018002ac10 f i task_group_context.obj
 0001:00029c50       ??0tbb_exception@tbb@@QEAA@AEBV01@@Z 000000018002ac50 f i task_group_context.obj
 0001:00029ca0       ??0tbb_exception@tbb@@QEAA@XZ 000000018002aca0 f i task_group_context.obj
 0001:00029cf0       ??0tbb_exception_ptr@internal@tbb@@QEAA@AEBVcaptured_exception@2@@Z 000000018002acf0 f i task_group_context.obj
 0001:00029d50       ??0tbb_exception_ptr@internal@tbb@@QEAA@AEBVexception_ptr@std@@@Z 000000018002ad50 f i task_group_context.obj
 0001:00029d90       ??1exception_ptr@std@@QEAA@XZ 000000018002ad90 f i task_group_context.obj
 0001:00029dd0       ??1tbb_exception@tbb@@UEAA@XZ 000000018002add0 f i task_group_context.obj
 0001:00029e00       ??1tbb_exception_ptr@internal@tbb@@QEAA@XZ 000000018002ae00 f i task_group_context.obj
 0001:00029e40       ??3tbb_exception@tbb@@SAXPEAX@Z 000000018002ae40 f i task_group_context.obj
 0001:00029e80       ??9?$iterator_impl@Viterator@?$intrusive_list_base@V?$intrusive_list@Vgeneric_scheduler@internal@tbb@@@internal@tbb@@Vgeneric_scheduler@23@@internal@tbb@@@?$intrusive_list_base@V?$intrusive_list@Vgeneric_scheduler@internal@tbb@@@internal@tbb@@Vgeneric_scheduler@23@@internal@tbb@@QEBA_NAEBViterator@123@@Z 000000018002ae80 f i task_group_context.obj
 0001:00029ed0       ??Citerator@?$intrusive_list_base@V?$intrusive_list@Vgeneric_scheduler@internal@tbb@@@internal@tbb@@Vgeneric_scheduler@23@@internal@tbb@@QEBAPEAVgeneric_scheduler@23@XZ 000000018002aed0 f i task_group_context.obj
 0001:00029f00       ??E?$iterator_impl@Viterator@?$intrusive_list_base@V?$intrusive_list@Vgeneric_scheduler@internal@tbb@@@internal@tbb@@Vgeneric_scheduler@23@@internal@tbb@@@?$intrusive_list_base@V?$intrusive_list@Vgeneric_scheduler@internal@tbb@@@internal@tbb@@Vgeneric_scheduler@23@@internal@tbb@@QEAA?AViterator@123@H@Z 000000018002af00 f i task_group_context.obj
 0001:00029f80       ??E?$iterator_impl@Viterator@?$intrusive_list_base@V?$intrusive_list@Vgeneric_scheduler@internal@tbb@@@internal@tbb@@Vgeneric_scheduler@23@@internal@tbb@@@?$intrusive_list_base@V?$intrusive_list@Vgeneric_scheduler@internal@tbb@@@internal@tbb@@Vgeneric_scheduler@23@@internal@tbb@@QEAAAEAViterator@123@XZ 000000018002af80 f i task_group_context.obj
 0001:00029fd0       ??_Gcaptured_exception@tbb@@UEAAPEAXI@Z 000000018002afd0 f i task_group_context.obj
 0001:00029fd0       ??_Ecaptured_exception@tbb@@UEAAPEAXI@Z 000000018002afd0 f i task_group_context.obj
 0001:0002a040       ??_Etbb_exception@tbb@@UEAAPEAXI@Z 000000018002b040 f i task_group_context.obj
 0001:0002a040       ??_Gtbb_exception@tbb@@UEAAPEAXI@Z 000000018002b040 f i task_group_context.obj
 0001:0002a0b0       ?_Copy_exception@exception_ptr@std@@SA?AV12@PEAXPEBX@Z 000000018002b0b0 f i task_group_context.obj
 0001:0002a180       ?_Current_exception@exception_ptr@std@@SA?AV12@XZ 000000018002b180 f i task_group_context.obj
 0001:0002a200       ?__TBB_store_with_release@internal@tbb@@YAXAEC_K_K@Z 000000018002b200 f i task_group_context.obj
 0001:0002a240       ?begin@?$aligned_space@Vscoped_lock@spin_mutex@tbb@@$00@tbb@@QEBAPEAVscoped_lock@spin_mutex@2@XZ 000000018002b240 f i task_group_context.obj
 0001:0002a270       ?begin@?$intrusive_list_base@V?$intrusive_list@Vgeneric_scheduler@internal@tbb@@@internal@tbb@@Vgeneric_scheduler@23@@internal@tbb@@QEAA?AViterator@123@XZ 000000018002b270 f i task_group_context.obj
 0001:0002a2c0       ?current_exception@std@@YA?AVexception_ptr@1@XZ 000000018002b2c0 f i task_group_context.obj
 0001:0002a300       ?duplicate_string@tbb@@YAPEADPEBD@Z 000000018002b300 f i task_group_context.obj
 0001:0002a370       ?end@?$intrusive_list_base@V?$intrusive_list@Vgeneric_scheduler@internal@tbb@@@internal@tbb@@Vgeneric_scheduler@23@@internal@tbb@@QEAA?AViterator@123@XZ 000000018002b370 f i task_group_context.obj
 0001:0002a3b0       ?fetch_and_store@?$atomic_impl@W4kind_type@task_group_context@tbb@@@internal@tbb@@QEAA?AW4kind_type@task_group_context@3@W4453@@Z 000000018002b3b0 f i task_group_context.obj
 0001:0002a3f0       ?fetch_and_store@?$atomic_traits@$03$0A@@internal@tbb@@SAHPECXH@Z 000000018002b3f0 f i task_group_context.obj
 0001:0002a430       ?get_env@cpu_ctl_env@internal@tbb@@QEAAXXZ 000000018002b430 f i task_group_context.obj
 0001:0002a470       ?is_alive@internal@tbb@@YA_N_K@Z 000000018002b470 f i task_group_context.obj
 0001:0002a4c0       ?item@?$intrusive_list@Vgeneric_scheduler@internal@tbb@@@internal@tbb@@CAAEAVgeneric_scheduler@23@PEAUintrusive_list_node@23@@Z 000000018002b4c0 f i task_group_context.obj
 0001:0002a510       ?item@?$intrusive_list_base@V?$intrusive_list@Vgeneric_scheduler@internal@tbb@@@internal@tbb@@Vgeneric_scheduler@23@@internal@tbb@@CAAEAVgeneric_scheduler@23@PEAUintrusive_list_node@23@@Z 000000018002b510 f i task_group_context.obj
 0001:0002a540       ?item@?$iterator_impl@Viterator@?$intrusive_list_base@V?$intrusive_list@Vgeneric_scheduler@internal@tbb@@@internal@tbb@@Vgeneric_scheduler@23@@internal@tbb@@@?$intrusive_list_base@V?$intrusive_list@Vgeneric_scheduler@internal@tbb@@@internal@tbb@@Vgeneric_scheduler@23@@internal@tbb@@IEBAAEAVgeneric_scheduler@34@XZ 000000018002b540 f i task_group_context.obj
 0001:0002a580       ?load_with_acquire@?$machine_load_store@PEAUcontext_list_node_t@internal@tbb@@$07@internal@tbb@@SAPEAUcontext_list_node_t@23@AEDSEAU423@@Z 000000018002b580 f i task_group_context.obj
 0001:0002a5c0       ?local_scheduler_if_initialized@governor@internal@tbb@@SAPEAVgeneric_scheduler@23@XZ 000000018002b5c0 f i task_group_context.obj
 0001:0002a5f0       ?lock@spin_mutex@tbb@@QEAAXXZ 000000018002b5f0 f i task_group_context.obj
 0001:0002a670       ?name@type_info@@QEBAPEBDXZ 000000018002b670 f i task_group_context.obj
 0001:0002a6b0       ?normalize_priority@internal@tbb@@YA_JW4priority_t@2@@Z 000000018002b6b0 f i task_group_context.obj
 0001:0002a6d0       ?self@?$iterator_impl@Viterator@?$intrusive_list_base@V?$intrusive_list@Vgeneric_scheduler@internal@tbb@@@internal@tbb@@Vgeneric_scheduler@23@@internal@tbb@@@?$intrusive_list_base@V?$intrusive_list@Vgeneric_scheduler@internal@tbb@@@internal@tbb@@Vgeneric_scheduler@23@@internal@tbb@@AEAAAEAViterator@234@XZ 000000018002b6d0 f i task_group_context.obj
 0001:0002a6e0       ?store_with_release@?$machine_load_store@PEAUcontext_list_node_t@internal@tbb@@$07@internal@tbb@@SAXAECREAUcontext_list_node_t@23@PEAU423@@Z 000000018002b6e0 f i task_group_context.obj
 0001:0002a700       ?throw_self@captured_exception@tbb@@UEAAXXZ 000000018002b700 f i task_group_context.obj
 0001:0002a750       ?unlock@spin_mutex@tbb@@QEAAXXZ 000000018002b750 f i task_group_context.obj
 0001:0002a7d0       ?internal_terminate@task_scheduler_init@tbb@@AEAA_N_N@Z 000000018002b7d0 f   governor.obj
 0001:0002a8e0       ?internal_blocking_terminate@task_scheduler_init@tbb@@AEAA_N_N@Z 000000018002b8e0 f   governor.obj
 0001:0002a940       ?initialize@task_scheduler_init@tbb@@QEAAXH@Z 000000018002b940 f   governor.obj
 0001:0002a980       ?initialize@task_scheduler_init@tbb@@QEAAXH_K@Z 000000018002b980 f   governor.obj
 0001:0002ab70       ?terminate@task_scheduler_init@tbb@@QEAAXXZ 000000018002bb70 f   governor.obj
 0001:0002abb0       ?default_num_threads@task_scheduler_init@tbb@@SAHXZ 000000018002bbb0 f   governor.obj
 0001:0002ac60       ?nodes_count@numa_topology@internal@tbb@@YAIXZ 000000018002bc60 f   governor.obj
 0001:0002ac90       ?fill@numa_topology@internal@tbb@@YAXPEAH@Z 000000018002bc90 f   governor.obj
 0001:0002ad00       ?default_concurrency@numa_topology@internal@tbb@@YAHH@Z 000000018002bd00 f   governor.obj
 0001:0002ad50       ?construct_binding_handler@internal@tbb@@YAPEAVbinding_handler@12@H@Z 000000018002bd50 f   governor.obj
 0001:0002adb0       ?destroy_binding_handler@internal@tbb@@YAXPEAVbinding_handler@12@@Z 000000018002bdb0 f   governor.obj
 0001:0002ae10       ?bind_thread_to_node@internal@tbb@@YAXPEAVbinding_handler@12@HH@Z 000000018002be10 f   governor.obj
 0001:0002aeb0       ?restore_affinity_mask@internal@tbb@@YAXPEAVbinding_handler@12@H@Z 000000018002beb0 f   governor.obj
 0001:0002af40       ?initialize@numa_topology@internal@tbb@@YAXXZ 000000018002bf40 f   governor.obj
 0001:0002af80       ?acquire_resources@governor@internal@tbb@@CAXXZ 000000018002bf80 f   governor.obj
 0001:0002afe0       ?release_resources@governor@internal@tbb@@CAXXZ 000000018002bfe0 f   governor.obj
 0001:0002b070       ?create_rml_server@governor@internal@tbb@@CAPEAVtbb_server@rml@23@AEAVtbb_client@523@@Z 000000018002c070 f   governor.obj
 0001:0002b170       ?auto_terminate@governor@internal@tbb@@CAXPEAX@Z 000000018002c170 f   governor.obj
 0001:0002b250       ?one_time_init@governor@internal@tbb@@SAXXZ 000000018002c250 f   governor.obj
 0001:0002b2a0       ?init_scheduler@governor@internal@tbb@@SAPEAVgeneric_scheduler@23@H_K_N@Z 000000018002c2a0 f   governor.obj
 0001:0002b530       ?init_scheduler_weak@governor@internal@tbb@@SAPEAVgeneric_scheduler@23@XZ 000000018002c530 f   governor.obj
 0001:0002b5b0       ?terminate_scheduler@governor@internal@tbb@@SA_NPEAVgeneric_scheduler@23@_N@Z 000000018002c5b0 f   governor.obj
 0001:0002b690       ?sign_on@governor@internal@tbb@@SAXPEAVgeneric_scheduler@23@@Z 000000018002c690 f   governor.obj
 0001:0002b7d0       ?sign_off@governor@internal@tbb@@SAXPEAVgeneric_scheduler@23@@Z 000000018002c7d0 f   governor.obj
 0001:0002b870       ?is_set@governor@internal@tbb@@SA_NPEAVgeneric_scheduler@23@@Z 000000018002c870 f   governor.obj
 0001:0002b8e0       ?assume_scheduler@governor@internal@tbb@@SAXPEAVgeneric_scheduler@23@@Z 000000018002c8e0 f   governor.obj
 0001:0002b930       ?tls_value_of@governor@internal@tbb@@SA_KPEAVgeneric_scheduler@23@@Z 000000018002c930 f   governor.obj
 0001:0002b9d0       ?print_version_info@governor@internal@tbb@@SAXXZ 000000018002c9d0 f   governor.obj
 0001:0002ba60       ?initialize_rml_factory@governor@internal@tbb@@SAXXZ 000000018002ca60 f   governor.obj
 0001:0002bac0       ?stack_op_handler@governor@internal@tbb@@SAHW4__cilk_tbb_stack_op@@PEAX@Z 000000018002cac0 f   governor.obj
 0001:0002bd00       ?initialize_cilk_interop@internal@tbb@@YA_NXZ 000000018002cd00 f   governor.obj
 0001:0002bdb0       ?initialization_impl@numa_topology@internal@tbb@@YAXXZ 000000018002cdb0 f   governor.obj
 0001:0002bf80       ??$__TBB_load_with_acquire@_N@internal@tbb@@YA_NAED_N@Z 000000018002cf80 f i governor.obj
 0001:0002bfb0       ??$atomic_do_once@$$A6AXXZ@internal@tbb@@YAXA6AXXZAEAU?$atomic@W4do_once_state@internal@tbb@@@1@@Z 000000018002cfb0 f i governor.obj
 0001:0002c030       ??$atomic_do_once@P6A_NXZ@internal@tbb@@YAXAEBQ6A_NXZAEAU?$atomic@W4do_once_state@internal@tbb@@@1@@Z 000000018002d030 f i governor.obj
 0001:0002c0c0       ??$suppress_unused_warning@PEAVgeneric_scheduler@internal@tbb@@@internal@tbb@@YAXAEBQEAVgeneric_scheduler@01@@Z 000000018002d0c0 f i governor.obj
 0001:0002c0d0       ?create@?$basic_tls@_K@internal@tbb@@QEAAHXZ 000000018002d0d0 f i governor.obj
 0001:0002c120       ?destroy@?$basic_tls@_K@internal@tbb@@QEAAHXZ 000000018002d120 f i governor.obj
 0001:0002c160       ?destroy_process_mask@internal@tbb@@YAXXZ 000000018002d160 f i governor.obj
 0001:0002c170       ?initialization_done@__TBB_InitOnce@internal@tbb@@SA_NXZ 000000018002d170 f i governor.obj
 0001:0002c1a0       ?load_with_acquire@?$machine_load_store@_N$00@internal@tbb@@SA_NAED_N@Z 000000018002d1a0 f i governor.obj
 0001:0002c1e0       ?run_initializer@internal@tbb@@YAXP6A_NXZAEAU?$atomic@W4do_once_state@internal@tbb@@@2@@Z 000000018002d1e0 f i governor.obj
 0001:0002c240       ?set@?$basic_tls@_K@internal@tbb@@QEAAX_K@Z 000000018002d240 f i governor.obj
 0001:0002c320       ??0market@internal@tbb@@AEAA@II_K@Z 000000018002d320 f   market.obj
 0001:0002c4b0       ?global_market@market@internal@tbb@@CAAEAV123@_NI_K@Z 000000018002d4b0 f   market.obj
 0001:0002c8a0       ?destroy@market@internal@tbb@@AEAAXXZ 000000018002d8a0 f   market.obj
 0001:0002c920       ?update_workers_request@market@internal@tbb@@AEAAHXZ 000000018002d920 f   market.obj
 0001:0002ca00       ?arena_in_need@market@internal@tbb@@AEAAPEAVarena@23@PEAV423@@Z 000000018002da00 f   market.obj
 0001:0002cbd0       ?update_allotment@market@internal@tbb@@AEAAX_J@Z 000000018002dbd0 f   market.obj
 0001:0002cde0       ?update_arena_top_priority@market@internal@tbb@@AEAAXAEAVarena@23@_J@Z 000000018002dde0 f   market.obj
 0001:0002cf30       ?insert_arena_into_list@market@internal@tbb@@AEAAXAEAVarena@23@@Z 000000018002df30 f   market.obj
 0001:0002cfe0       ?remove_arena_from_list@market@internal@tbb@@AEAAXAEAVarena@23@@Z 000000018002dfe0 f   market.obj
 0001:0002d150       ?arena_in_need@market@internal@tbb@@AEAAPEAVarena@23@AEAV?$intrusive_list@Varena@internal@tbb@@@23@PEAV423@@Z 000000018002e150 f   market.obj
 0001:0002d2e0       ?update_allotment@market@internal@tbb@@AEAAHAEAV?$intrusive_list@Varena@internal@tbb@@@23@HH@Z 000000018002e2e0 f   market.obj
 0001:0002d550       ?is_arena_in_list@market@internal@tbb@@AEAA_NAEAV?$intrusive_list@Varena@internal@tbb@@@23@PEAVarena@23@@Z 000000018002e550 f   market.obj
 0001:0002d600       ?create_one_job@market@internal@tbb@@EEAAPEAVjob@rml@@XZ 000000018002e600 f   market.obj
 0001:0002d740       ?cleanup@market@internal@tbb@@EEAAXAEAVjob@rml@@@Z 000000018002e740 f   market.obj
 0001:0002d860       ?acknowledge_close_connection@market@internal@tbb@@EEAAXXZ 000000018002e860 f   market.obj
 0001:0002d8a0       ?process@market@internal@tbb@@EEAAXAEAVjob@rml@@@Z 000000018002e8a0 f   market.obj
 0001:0002d9a0       ?create_arena@market@internal@tbb@@SAPEAVarena@23@HH_K@Z 000000018002e9a0 f   market.obj
 0001:0002dad0       ?try_destroy_arena@market@internal@tbb@@QEAAXPEAVarena@23@_K@Z 000000018002ead0 f   market.obj
 0001:0002dd50       ?detach_arena@market@internal@tbb@@QEAAXAEAVarena@23@@Z 000000018002ed50 f   market.obj
 0001:0002de50       ?release@market@internal@tbb@@QEAA_N_N0@Z 000000018002ee50 f   market.obj
 0001:0002e130       ?enable_mandatory_concurrency_impl@market@internal@tbb@@QEAAXPEAVarena@23@@Z 000000018002f130 f   market.obj
 0001:0002e1e0       ?enable_mandatory_concurrency@market@internal@tbb@@QEAAXPEAVarena@23@@Z 000000018002f1e0 f   market.obj
 0001:0002e2c0       ?disable_mandatory_concurrency_impl@market@internal@tbb@@QEAAXPEAVarena@23@@Z 000000018002f2c0 f   market.obj
 0001:0002e370       ?mandatory_concurrency_disable@market@internal@tbb@@QEAAXPEAVarena@23@@Z 000000018002f370 f   market.obj
 0001:0002e490       ?adjust_demand@market@internal@tbb@@QEAAXAEAVarena@23@H@Z 000000018002f490 f   market.obj
 0001:0002ea60       ?set_active_num_workers@market@internal@tbb@@SAXI@Z 000000018002fa60 f   market.obj
 0001:0002ee40       ?lower_arena_priority@market@internal@tbb@@QEAA_NAEAVarena@23@_J_K@Z 000000018002fe40 f   market.obj
 0001:0002f090       ?update_arena_priority@market@internal@tbb@@QEAA_NAEAVarena@23@_J@Z 0000000180030090 f   market.obj
 0001:0002f5f0       ?does_client_join_workers@governor@internal@tbb@@SA_NAEBVtbb_client@rml@23@@Z 00000001800305f0 f   market.obj
 0001:0002f6b0       ??$__TBB_load_with_acquire@I@internal@tbb@@YAIAEDI@Z 00000001800306b0 f i market.obj
 0001:0002f6e0       ??$as_atomic@H@internal@tbb@@YAAEAU?$atomic@H@1@AEAH@Z 00000001800306e0 f i market.obj
 0001:0002f6f0       ??$as_atomic@I@internal@tbb@@YAAEAU?$atomic@I@1@AEAI@Z 00000001800306f0 f i market.obj
 0001:0002f700       ??$as_atomic@PEAVarena@internal@tbb@@@internal@tbb@@YAAEAU?$atomic@PEAVarena@internal@tbb@@@1@AEAPEAVarena@01@@Z 0000000180030700 f i market.obj
 0001:0002f710       ??$compare_and_swap@$0A@@?$atomic_impl@I@internal@tbb@@QEAAIII@Z 0000000180030710 f i market.obj
 0001:0002f770       ??$fetch_and_add@$01@?$atomic_impl_with_arithmetic@_K_KD@internal@tbb@@QEAA_K_K@Z 0000000180030770 f i market.obj
 0001:0002f7b0       ??$fetch_and_increment@$01@?$atomic_impl_with_arithmetic@_K_KD@internal@tbb@@QEAA_KXZ 00000001800307b0 f i market.obj
 0001:0002f7f0       ??$max@I@internal@tbb@@YAIAEBI0@Z 00000001800307f0 f i market.obj
 0001:0002f850       ??$max@_J@internal@tbb@@YA_JAEB_J0@Z 0000000180030850 f i market.obj
 0001:0002f8b0       ??$min@H@internal@tbb@@YAHAEBH0@Z 00000001800308b0 f i market.obj
 0001:0002f910       ??$to_bits@I@?$atomic_impl@I@internal@tbb@@SAHI@Z 0000000180030910 f i market.obj
 0001:0002f950       ??$to_bits@PEAVarena@internal@tbb@@@?$atomic_impl@PEAVarena@internal@tbb@@@internal@tbb@@SA_JPEAVarena@12@@Z 0000000180030950 f i market.obj
 0001:0002f990       ??$to_bits_ref@$$CDH@?$atomic_impl@H@internal@tbb@@SAAEAHAEDH@Z 0000000180030990 f i market.obj
 0001:0002f9d0       ??$to_bits_ref@$$CD_J@?$atomic_impl@_J@internal@tbb@@SAAEA_JAED_J@Z 00000001800309d0 f i market.obj
 0001:0002fa10       ??$to_bits_ref@I@?$atomic_impl@I@internal@tbb@@SAAEAHAEAI@Z 0000000180030a10 f i market.obj
 0001:0002fa50       ??$to_bits_ref@PEAVarena@internal@tbb@@@?$atomic_impl@PEAVarena@internal@tbb@@@internal@tbb@@SAAEA_JAEAPEAVarena@12@@Z 0000000180030a50 f i market.obj
 0001:0002fa90       ??$to_value@H@?$atomic_impl@H@internal@tbb@@SAHH@Z 0000000180030a90 f i market.obj
 0001:0002fae0       ??$to_value@_J@?$atomic_impl@_J@internal@tbb@@SA_J_J@Z 0000000180030ae0 f i market.obj
 0001:0002fb40       ??0?$converter@PEAVarena@internal@tbb@@@?$atomic_impl@PEAVarena@internal@tbb@@@internal@tbb@@QEAA@PEAVarena@23@@Z 0000000180030b40 f i market.obj
 0001:0002fb60       ??0?$converter@_J@?$atomic_impl@_J@internal@tbb@@QEAA@XZ 0000000180030b60 f i market.obj
 0001:0002fb70       ??0?$intrusive_list@Varena@internal@tbb@@@internal@tbb@@QEAA@XZ 0000000180030b70 f i market.obj
 0001:0002fbb0       ??0?$intrusive_list@Vgeneric_scheduler@internal@tbb@@@internal@tbb@@QEAA@XZ 0000000180030bb0 f i market.obj
 0001:0002fbf0       ??0?$intrusive_list_base@V?$intrusive_list@Varena@internal@tbb@@@internal@tbb@@Varena@23@@internal@tbb@@QEAA@XZ 0000000180030bf0 f i market.obj
 0001:0002fc50       ??0?$intrusive_list_base@V?$intrusive_list@Vgeneric_scheduler@internal@tbb@@@internal@tbb@@Vgeneric_scheduler@23@@internal@tbb@@QEAA@XZ 0000000180030c50 f i market.obj
 0001:0002fcb0       ??0?$iterator_impl@Viterator@?$intrusive_list_base@V?$intrusive_list@Varena@internal@tbb@@@internal@tbb@@Varena@23@@internal@tbb@@@?$intrusive_list_base@V?$intrusive_list@Varena@internal@tbb@@@internal@tbb@@Varena@23@@internal@tbb@@IEAA@PEAUintrusive_list_node@23@@Z 0000000180030cb0 f i market.obj
 0001:0002fcd0       ??0?$ptr_converter@PEAPEAVarena@internal@tbb@@@?$atomic_impl@PEAVarena@internal@tbb@@@internal@tbb@@QEAA@PEAPEAVarena@23@@Z 0000000180030cd0 f i market.obj
 0001:0002fcf0       ??0?$ptr_converter@PED_J@?$atomic_impl@_J@internal@tbb@@QEAA@PED_J@Z 0000000180030cf0 f i market.obj
 0001:0002fd10       ??0client@rml@@QEAA@XZ     0000000180030d10 f i market.obj
 0001:0002fd60       ??0intrusive_list_node@internal@tbb@@QEAA@XZ 0000000180030d60 f i market.obj
 0001:0002fd90       ??0iterator@?$intrusive_list_base@V?$intrusive_list@Varena@internal@tbb@@@internal@tbb@@Varena@23@@internal@tbb@@QEAA@PEAUintrusive_list_node@23@@Z 0000000180030d90 f i market.obj
 0001:0002fdd0       ??0priority_level_info@market@internal@tbb@@QEAA@XZ 0000000180030dd0 f i market.obj
 0001:0002fe10       ??0scoped_lock@spin_rw_mutex_v3@tbb@@QEAA@AEAV12@_N@Z 0000000180030e10 f i market.obj
 0001:0002fe70       ??0spin_rw_mutex_v3@tbb@@QEAA@XZ 0000000180030e70 f i market.obj
 0001:0002feb0       ??0tbb_client@rml@internal@tbb@@QEAA@XZ 0000000180030eb0 f i market.obj
 0001:0002ff00       ??1market@internal@tbb@@QEAA@XZ 0000000180030f00 f i market.obj
 0001:0002ff40       ??1scoped_lock@spin_rw_mutex_v3@tbb@@QEAA@XZ 0000000180030f40 f i market.obj
 0001:0002ff90       ??1spin_rw_mutex_v3@tbb@@QEAA@XZ 0000000180030f90 f i market.obj
 0001:0002fff0       ??4?$atomic@I@tbb@@QEAAII@Z 0000000180030ff0 f i market.obj
 0001:00030030       ??4?$atomic@PEAVarena@internal@tbb@@@tbb@@QEAAPEAVarena@internal@1@PEAV231@@Z 0000000180031030 f i market.obj
 0001:00030070       ??8?$iterator_impl@Viterator@?$intrusive_list_base@V?$intrusive_list@Varena@internal@tbb@@@internal@tbb@@Varena@23@@internal@tbb@@@?$intrusive_list_base@V?$intrusive_list@Varena@internal@tbb@@@internal@tbb@@Varena@23@@internal@tbb@@QEBA_NAEBViterator@123@@Z 0000000180031070 f i market.obj
 0001:000300c0       ??9?$iterator_impl@Viterator@?$intrusive_list_base@V?$intrusive_list@Varena@internal@tbb@@@internal@tbb@@Varena@23@@internal@tbb@@@?$intrusive_list_base@V?$intrusive_list@Varena@internal@tbb@@@internal@tbb@@Varena@23@@internal@tbb@@QEBA_NAEBViterator@123@@Z 00000001800310c0 f i market.obj
 0001:00030110       ??B?$atomic_impl@_J@internal@tbb@@QEDA_JXZ 0000000180031110 f i market.obj
 0001:00030160       ??Citerator@?$intrusive_list_base@V?$intrusive_list@Varena@internal@tbb@@@internal@tbb@@Varena@23@@internal@tbb@@QEBAPEAVarena@23@XZ 0000000180031160 f i market.obj
 0001:00030190       ??Diterator@?$intrusive_list_base@V?$intrusive_list@Varena@internal@tbb@@@internal@tbb@@Varena@23@@internal@tbb@@QEBAAEAVarena@23@XZ 0000000180031190 f i market.obj
 0001:000301c0       ??E?$iterator_impl@Viterator@?$intrusive_list_base@V?$intrusive_list@Varena@internal@tbb@@@internal@tbb@@Varena@23@@internal@tbb@@@?$intrusive_list_base@V?$intrusive_list@Varena@internal@tbb@@@internal@tbb@@Varena@23@@internal@tbb@@QEAAAEAViterator@123@XZ 00000001800311c0 f i market.obj
 0001:00030210       ??Y?$atomic_impl_with_arithmetic@IID@internal@tbb@@QEAAII@Z 0000000180031210 f i market.obj
 0001:00030250       ??_H@YAXPEAX_K1P6APEAX0@Z@Z 0000000180031250 f i market.obj
 0001:000302e0       ?acquire@scoped_lock@spin_mutex@tbb@@QEAAXAEAV23@@Z 00000001800312e0 f i market.obj
 0001:00030320       ?advance_global_reload_epoch@market@internal@tbb@@AEAAXXZ 0000000180031320 f i market.obj
 0001:00030370       ?assert_market_valid@market@internal@tbb@@AEBAXXZ 0000000180031370 f i market.obj
 0001:00030410       ?assert_ok@?$intrusive_list_base@V?$intrusive_list@Varena@internal@tbb@@@internal@tbb@@Varena@23@@internal@tbb@@AEBAXXZ 0000000180031410 f i market.obj
 0001:00030490       ?assert_priority_valid@internal@tbb@@YAX_J@Z 0000000180031490 f i market.obj
 0001:000304f0       ?begin@?$intrusive_list_base@V?$intrusive_list@Varena@internal@tbb@@@internal@tbb@@Varena@23@@internal@tbb@@QEAA?AViterator@123@XZ 00000001800314f0 f i market.obj
 0001:00030540       ?compare_and_swap@?$atomic_impl@I@internal@tbb@@QEAAIII@Z 0000000180031540 f i market.obj
 0001:00030580       ?empty@?$intrusive_list_base@V?$intrusive_list@Varena@internal@tbb@@@internal@tbb@@Varena@23@@internal@tbb@@QEBA_NXZ 0000000180031580 f i market.obj
 0001:000305d0       ?empty@?$task_stream@$02@internal@tbb@@QEAA_NH@Z 00000001800315d0 f i market.obj
 0001:00030620       ?end@?$intrusive_list_base@V?$intrusive_list@Varena@internal@tbb@@@internal@tbb@@Varena@23@@internal@tbb@@QEAA?AViterator@123@XZ 0000000180031620 f i market.obj
 0001:00030660       ?fetch_and_add@?$atomic_traits@$07$01@internal@tbb@@SA_JPECX_J@Z 0000000180031660 f i market.obj
 0001:000306a0       ?item@?$intrusive_list@Varena@internal@tbb@@@internal@tbb@@CAAEAVarena@23@PEAUintrusive_list_node@23@@Z 00000001800316a0 f i market.obj
 0001:000306b0       ?item@?$intrusive_list_base@V?$intrusive_list@Varena@internal@tbb@@@internal@tbb@@Varena@23@@internal@tbb@@CAAEAVarena@23@PEAUintrusive_list_node@23@@Z 00000001800316b0 f i market.obj
 0001:000306e0       ?item@?$iterator_impl@Viterator@?$intrusive_list_base@V?$intrusive_list@Varena@internal@tbb@@@internal@tbb@@Varena@23@@internal@tbb@@@?$intrusive_list_base@V?$intrusive_list@Varena@internal@tbb@@@internal@tbb@@Varena@23@@internal@tbb@@IEBAAEAVarena@34@XZ 00000001800316e0 f i market.obj
 0001:00030720       ?load_with_acquire@?$machine_load_store@I$03@internal@tbb@@SAIAEDI@Z 0000000180031720 f i market.obj
 0001:00030760       ?lock@spin_rw_mutex_v3@tbb@@QEAAXXZ 0000000180031760 f i market.obj
 0001:00030790       ?max_job_count@market@internal@tbb@@EEBAIXZ 0000000180031790 f i market.obj
 0001:000307a0       ?min_stack_size@market@internal@tbb@@EEBA_KXZ 00000001800317a0 f i market.obj
 0001:000307d0       ?must_join_workers@market@internal@tbb@@QEBA_NXZ 00000001800317d0 f i market.obj
 0001:000307f0       ?node@?$intrusive_list@Varena@internal@tbb@@@internal@tbb@@CAAEAUintrusive_list_node@23@AEAVarena@23@@Z 00000001800317f0 f i market.obj
 0001:00030800       ?node@?$intrusive_list_base@V?$intrusive_list@Varena@internal@tbb@@@internal@tbb@@Varena@23@@internal@tbb@@CAAEAUintrusive_list_node@23@AEAVarena@23@@Z 0000000180031800 f i market.obj
 0001:00030830       ?num_workers_active@arena@internal@tbb@@QEBAIXZ 0000000180031830 f i market.obj
 0001:00030870       ?policy@market@internal@tbb@@EEBA?AW4policy_type@client@rml@@XZ 0000000180031870 f i market.obj
 0001:00030880       ?push_front@?$intrusive_list_base@V?$intrusive_list@Varena@internal@tbb@@@internal@tbb@@Varena@23@@internal@tbb@@QEAAXAEAVarena@23@@Z 0000000180031880 f i market.obj
 0001:00030990       ?release@scoped_lock@spin_mutex@tbb@@QEAAXXZ 0000000180031990 f i market.obj
 0001:000309c0       ?remove@?$intrusive_list_base@V?$intrusive_list@Varena@internal@tbb@@@internal@tbb@@Varena@23@@internal@tbb@@QEAAXAEAVarena@23@@Z 00000001800319c0 f i market.obj
 0001:00030b70       ?reset_global_priority@market@internal@tbb@@AEAAXXZ 0000000180031b70 f i market.obj
 0001:00030bb0       ?self@?$iterator_impl@Viterator@?$intrusive_list_base@V?$intrusive_list@Varena@internal@tbb@@@internal@tbb@@Varena@23@@internal@tbb@@@?$intrusive_list_base@V?$intrusive_list@Varena@internal@tbb@@@internal@tbb@@Varena@23@@internal@tbb@@AEAAAEAViterator@234@XZ 0000000180031bb0 f i market.obj
 0001:00030bc0       ?size@?$intrusive_list_base@V?$intrusive_list@Varena@internal@tbb@@@internal@tbb@@Varena@23@@internal@tbb@@QEBA_KXZ 0000000180031bc0 f i market.obj
 0001:00030be0       ?store_with_release@?$atomic_impl@PEAVarena@internal@tbb@@@internal@tbb@@IEAAPEAVarena@23@PEAV423@@Z 0000000180031be0 f i market.obj
 0001:00030c40       ?unlock@spin_rw_mutex_v3@tbb@@QEAAXXZ 0000000180031c40 f i market.obj
 0001:00030c90       ?update_global_top_priority@market@internal@tbb@@AEAAX_J@Z 0000000180031c90 f i market.obj
 0001:00030d10       ?version@market@internal@tbb@@EEBAIXZ 0000000180031d10 f i market.obj
 0001:00030d20       ?worker_stack_size@market@internal@tbb@@QEBA_KXZ 0000000180031d20 f i market.obj
 0001:00030f10       ?attach_arena@generic_scheduler@internal@tbb@@QEAAXPEAVarena@23@_K_N@Z 0000000180031f10 f   arena.obj
 0001:000310b0       ?nested_arena_entry@generic_scheduler@internal@tbb@@QEAAXPEAVarena@23@_K@Z 00000001800320b0 f   arena.obj
 0001:00031250       ?nested_arena_exit@generic_scheduler@internal@tbb@@QEAAXXZ 0000000180032250 f   arena.obj
 0001:00031390       ?wait_until_empty@generic_scheduler@internal@tbb@@QEAAXXZ 0000000180032390 f   arena.obj
 0001:00031460       ?internal_initialize@task_arena_base@internal@interface7@tbb@@IEAAXXZ 0000000180032460 f   arena.obj
 0001:00031690       ?internal_terminate@task_arena_base@internal@interface7@tbb@@IEAAXXZ 0000000180032690 f   arena.obj
 0001:00031740       ?internal_attach@task_arena_base@internal@interface7@tbb@@IEAAXXZ 0000000180032740 f   arena.obj
 0001:000318e0       ?internal_enqueue@task_arena_base@internal@interface7@tbb@@IEBAXAEAVtask@4@_J@Z 00000001800328e0 f   arena.obj
 0001:00031a00       ?internal_execute@task_arena_base@internal@interface7@tbb@@IEBAXAEAVdelegate_base@234@@Z 0000000180032a00 f   arena.obj
 0001:00032070       ?internal_wait@task_arena_base@internal@interface7@tbb@@IEBAXXZ 0000000180033070 f   arena.obj
 0001:000323b0       ?internal_current_slot@task_arena_base@internal@interface7@tbb@@KAHXZ 00000001800333b0 f   arena.obj
 0001:00032400       ?internal_max_concurrency@task_arena_base@internal@interface7@tbb@@KAHPEBVtask_arena@34@@Z 0000000180033400 f   arena.obj
 0001:000324f0       ?isolate_within_arena@internal@interface7@tbb@@YAXAEAVdelegate_base@123@_J@Z 00000001800334f0 f   arena.obj
 0001:000325f0       ?restore_priority_if_need@arena@internal@tbb@@AEAAXXZ 00000001800335f0 f   arena.obj
 0001:000326c0       ??0arena@internal@tbb@@QEAA@AEAVmarket@12@II@Z 00000001800336c0 f   arena.obj
 0001:00032b30       ?allocate_arena@arena@internal@tbb@@SAAEAV123@AEAVmarket@23@II@Z 0000000180033b30 f   arena.obj
 0001:00032c80       ?free_arena@arena@internal@tbb@@QEAAXXZ 0000000180033c80 f   arena.obj
 0001:00033080       ?is_out_of_work@arena@internal@tbb@@QEAA_NXZ 0000000180034080 f   arena.obj
 0001:000336f0       ?enqueue_task@arena@internal@tbb@@QEAAXAEAVtask@3@_JAEAVFastRandom@23@@Z 00000001800346f0 f   arena.obj
 0001:00033960       ?process@arena@internal@tbb@@QEAAXAEAVgeneric_scheduler@23@@Z 0000000180034960 f   arena.obj
 0001:00033ed0       ?orphan_offloaded_tasks@arena@internal@tbb@@QEAAXAEAVgeneric_scheduler@23@@Z 0000000180034ed0 f   arena.obj
 0001:00034000       ?workers_task_node_count@arena@internal@tbb@@QEAA_JXZ 0000000180035000 f   arena.obj
 0001:000340a0       ?has_enqueued_tasks@arena@internal@tbb@@QEAA_NXZ 00000001800350a0 f   arena.obj
 0001:00034110       ?occupy_free_slot_in_range@arena@internal@tbb@@QEAA_KAEAVgeneric_scheduler@23@_K1@Z 0000000180035110 f   arena.obj
 0001:000342b0       ?construct_binding_observer@internal@tbb@@YAPEAVnuma_binding_observer@12@PEAVtask_arena@interface7@2@HH@Z 00000001800352b0 f   arena.obj
 0001:000343a0       ?destroy_binding_observer@internal@tbb@@YAXPEAVnuma_binding_observer@12@@Z 00000001800353a0 f   arena.obj
 0001:000344b0       ??$?0$$V@?$_Compressed_pair@V?$tbb_allocator@PEAVtask@tbb@@@tbb@@V?$_Deque_val@U?$_Deque_simple_types@PEAVtask@tbb@@@std@@@std@@$00@std@@QEAA@U_Zero_then_variadic_args_t@1@@Z 00000001800354b0 f i arena.obj
 0001:00034500       ??$?0PEAVtask@tbb@@@?$tbb_allocator@PEAPEAVtask@tbb@@@tbb@@QEAA@AEBV?$tbb_allocator@PEAVtask@tbb@@@1@@Z 0000000180035500 f i arena.obj
 0001:00034520       ??$?0PEAVtask@tbb@@@?$tbb_allocator@U_Container_proxy@std@@@tbb@@QEAA@AEBV?$tbb_allocator@PEAVtask@tbb@@@1@@Z 0000000180035520 f i arena.obj
 0001:00034540       ??$?0U?$integral_constant@_N$0A@@std@@@_Unused_parameter@std@@QEAA@$$QEAU?$integral_constant@_N$0A@@1@@Z 0000000180035540 f i arena.obj
 0001:00034560       ??$_Construct1@PEAPEAVtask@tbb@@$$V@?$_Normal_allocator_traits@V?$tbb_allocator@PEAPEAVtask@tbb@@@tbb@@@std@@SAXU?$integral_constant@_N$0A@@1@AEAV?$tbb_allocator@PEAPEAVtask@tbb@@@tbb@@PEAPEAPEAVtask@4@@Z 0000000180035560 f i arena.obj
 0001:000345a0       ??$_Construct1@PEAPEAVtask@tbb@@AEAPEAPEAV12@@?$_Normal_allocator_traits@V?$tbb_allocator@PEAPEAVtask@tbb@@@tbb@@@std@@SAXU?$integral_constant@_N$0A@@1@AEAV?$tbb_allocator@PEAPEAVtask@tbb@@@tbb@@PEAPEAPEAVtask@4@AEAPEAPEAV54@@Z 00000001800355a0 f i arena.obj
 0001:000345f0       ??$_Construct1@PEAVtask@tbb@@AEBQEAV12@@?$_Normal_allocator_traits@V?$tbb_allocator@PEAVtask@tbb@@@tbb@@@std@@SAXU?$integral_constant@_N$0A@@1@AEAV?$tbb_allocator@PEAVtask@tbb@@@tbb@@PEAPEAVtask@4@AEBQEAV54@@Z 00000001800355f0 f i arena.obj
 0001:00034640       ??$_Construct1@U_Container_proxy@std@@U12@@?$_Normal_allocator_traits@V?$tbb_allocator@U_Container_proxy@std@@@tbb@@@std@@SAXU?$integral_constant@_N$0A@@1@AEAV?$tbb_allocator@U_Container_proxy@std@@@tbb@@PEAU_Container_proxy@1@$$QEAU51@@Z 0000000180035640 f i arena.obj
 0001:00034690       ??$_Deallocate_plain@V?$tbb_allocator@U_Container_proxy@std@@@tbb@@$0A@@std@@YAXAEAV?$tbb_allocator@U_Container_proxy@std@@@tbb@@QEAU_Container_proxy@0@@Z 0000000180035690 f i arena.obj
 0001:000346d0       ??$_Destroy1@PEAPEAVtask@tbb@@@?$_Normal_allocator_traits@V?$tbb_allocator@PEAPEAVtask@tbb@@@tbb@@@std@@SAXAEAV?$tbb_allocator@PEAPEAVtask@tbb@@@tbb@@PEAPEAPEAVtask@3@U?$integral_constant@_N$0A@@1@@Z 00000001800356d0 f i arena.obj
 0001:00034710       ??$_Destroy1@PEAVtask@tbb@@@?$_Normal_allocator_traits@V?$tbb_allocator@PEAVtask@tbb@@@tbb@@@std@@SAXAEAV?$tbb_allocator@PEAVtask@tbb@@@tbb@@PEAPEAVtask@3@U?$integral_constant@_N$0A@@1@@Z 0000000180035710 f i arena.obj
 0001:00034750       ??$_Destroy1@U_Container_proxy@std@@@?$_Normal_allocator_traits@V?$tbb_allocator@U_Container_proxy@std@@@tbb@@@std@@SAXAEAV?$tbb_allocator@U_Container_proxy@std@@@tbb@@PEAU_Container_proxy@1@U?$integral_constant@_N$0A@@1@@Z 0000000180035750 f i arena.obj
 0001:00034790       ??$_Destroy_range1@V?$tbb_allocator@PEAPEAVtask@tbb@@@tbb@@@std@@YAXPEAPEAPEAVtask@tbb@@0AEAV?$tbb_allocator@PEAPEAVtask@tbb@@@2@U?$integral_constant@_N$0A@@0@@Z 0000000180035790 f i arena.obj
 0001:00034800       ??$_Destroy_range@V?$tbb_allocator@PEAPEAVtask@tbb@@@tbb@@@std@@YAXPEAPEAPEAVtask@tbb@@0AEAV?$tbb_allocator@PEAPEAVtask@tbb@@@2@@Z 0000000180035800 f i arena.obj
 0001:00034860       ??$_Emplace_back@$$V@?$_Uninitialized_backout_al@PEAPEAPEAVtask@tbb@@V?$tbb_allocator@PEAPEAVtask@tbb@@@2@@std@@QEAAXXZ 0000000180035860 f i arena.obj
 0001:000348c0       ??$_Emplace_back@AEAPEAPEAVtask@tbb@@@?$_Uninitialized_backout_al@PEAPEAPEAVtask@tbb@@V?$tbb_allocator@PEAPEAVtask@tbb@@@2@@std@@QEAAXAEAPEAPEAVtask@tbb@@@Z 00000001800358c0 f i arena.obj
 0001:00034940       ??$_Get_unwrapped@PEAPEAVtask@tbb@@@std@@YAPEAPEAPEAVtask@tbb@@QEAPEAPEAV12@@Z 0000000180035940 f i arena.obj
 0001:00034950       ??$_Get_unwrapped_n@PEAPEAVtask@tbb@@_J$0A@@std@@YAPEAPEAPEAVtask@tbb@@QEAPEAPEAV12@_J@Z 0000000180035950 f i arena.obj
 0001:00034970       ??$_Idl_distance1@PEAPEAPEAVtask@tbb@@PEAPEAPEAV12@@std@@YA_JAEBQEAPEAPEAVtask@tbb@@0Urandom_access_iterator_tag@0@@Z 0000000180035970 f i arena.obj
 0001:000349a0       ??$_Idl_distance@PEAPEAPEAVtask@tbb@@PEAPEAPEAV12@@std@@YA_JAEBQEAPEAPEAVtask@tbb@@0@Z 00000001800359a0 f i arena.obj
 0001:000349e0       ??$_Ptr_copy_cat@PEAPEAVtask@tbb@@PEAPEAV12@@std@@YA?AU_Really_trivial_ptr_iterator_tag@0@AEBQEAPEAPEAVtask@tbb@@0@Z 00000001800359e0 f i arena.obj
 0001:00034a00       ??$_Seek_wrapped@PEAPEAVtask@tbb@@@std@@YAXAEAPEAPEAPEAVtask@tbb@@QEAPEAPEAV12@@Z 0000000180035a00 f i arena.obj
 0001:00034a20       ??$_Unfancy@PEAPEAVtask@tbb@@@std@@YAPEAPEAPEAVtask@tbb@@PEAPEAPEAV12@@Z 0000000180035a20 f i arena.obj
 0001:00034a30       ??$_Unfancy@PEAVtask@tbb@@@std@@YAPEAPEAVtask@tbb@@PEAPEAV12@@Z 0000000180035a30 f i arena.obj
 0001:00034a40       ??$_Unfancy@U_Container_proxy@std@@@std@@YAPEAU_Container_proxy@0@PEAU10@@Z 0000000180035a40 f i arena.obj
 0001:00034a50       ??$_Uninitialized_copy@PEAPEAPEAVtask@tbb@@PEAPEAPEAV12@V?$tbb_allocator@PEAPEAVtask@tbb@@@2@@std@@YAPEAPEAPEAVtask@tbb@@QEAPEAPEAV12@0PEAPEAPEAV12@AEAV?$tbb_allocator@PEAPEAVtask@tbb@@@2@@Z 0000000180035a50 f i arena.obj
 0001:00034b70       ??$_Uninitialized_copy_al_unchecked@PEAPEAPEAVtask@tbb@@PEAPEAPEAV12@V?$tbb_allocator@PEAPEAVtask@tbb@@@2@@std@@YAPEAPEAPEAVtask@tbb@@PEAPEAPEAV12@QEAPEAPEAV12@1AEAV?$tbb_allocator@PEAPEAVtask@tbb@@@2@U_General_ptr_iterator_tag@0@U_Unused_parameter@0@@Z 0000000180035b70 f i arena.obj
 0001:00034c30       ??$_Uninitialized_value_construct_n1@PEAPEAPEAVtask@tbb@@_KV?$tbb_allocator@PEAPEAVtask@tbb@@@2@@std@@YAPEAPEAPEAVtask@tbb@@QEAPEAPEAV12@_KAEAV?$tbb_allocator@PEAPEAVtask@tbb@@@2@U?$integral_constant@_N$0A@@0@@Z 0000000180035c30 f i arena.obj
 0001:00034ce0       ??$_Uninitialized_value_construct_n@PEAPEAPEAVtask@tbb@@_KV?$tbb_allocator@PEAPEAVtask@tbb@@@2@@std@@YAPEAPEAPEAVtask@tbb@@PEAPEAPEAV12@_KAEAV?$tbb_allocator@PEAPEAVtask@tbb@@@2@@Z 0000000180035ce0 f i arena.obj
 0001:00034d40       ??$__TBB_load_with_acquire@PEAVgeneric_scheduler@internal@tbb@@@internal@tbb@@YAPEAVgeneric_scheduler@01@AEDSEAV201@@Z 0000000180035d40 f i arena.obj
 0001:00034d70       ??$__TBB_load_with_acquire@PEAVtask@tbb@@@internal@tbb@@YAPEAVtask@1@AEDSEAV21@@Z 0000000180035d70 f i arena.obj
 0001:00034da0       ??$__TBB_store_with_release@PEAVgeneric_scheduler@internal@tbb@@PEAV123@@internal@tbb@@YAXAECREAVgeneric_scheduler@01@PEAV201@@Z 0000000180035da0 f i arena.obj
 0001:00034de0       ??$__TBB_store_with_release@_JH@internal@tbb@@YAXAEC_JH@Z 0000000180035de0 f i arena.obj
 0001:00034e20       ??$addressof@PEAPEAVtask@tbb@@@std@@YAPEAPEAPEAVtask@tbb@@AEAPEAPEAV12@@Z 0000000180035e20 f i arena.obj
 0001:00034e30       ??$addressof@V?$_Deque_val@U?$_Deque_simple_types@PEAVtask@tbb@@@std@@@std@@@std@@YAPEAV?$_Deque_val@U?$_Deque_simple_types@PEAVtask@tbb@@@std@@@0@AEAV10@@Z 0000000180035e30 f i arena.obj
 0001:00034e40       ??$advertise_new_work@$01@arena@internal@tbb@@QEAAXXZ 0000000180035e40 f i arena.obj
 0001:00035140       ??$as_atomic@PEAVgeneric_scheduler@internal@tbb@@@internal@tbb@@YAAEAU?$atomic@PEAVgeneric_scheduler@internal@tbb@@@1@AEAPEAVgeneric_scheduler@01@@Z 0000000180036140 f i arena.obj
 0001:00035150       ??$as_atomic@PEAVtask@tbb@@@internal@tbb@@YAAEAU?$atomic@PEAVtask@tbb@@@1@AEAPEAVtask@1@@Z 0000000180036150 f i arena.obj
 0001:00035160       ??$as_atomic@PEAVtask_group_context@tbb@@@internal@tbb@@YAAEAU?$atomic@PEAVtask_group_context@tbb@@@1@AEAPEAVtask_group_context@1@@Z 0000000180036160 f i arena.obj
 0001:00035170       ??$as_atomic@_N@internal@tbb@@YAAEAU?$atomic@_N@1@AEA_N@Z 0000000180036170 f i arena.obj
 0001:00035180       ??$atomic_update@IIU?$less@I@std@@@internal@tbb@@YAIAEAU?$atomic@I@1@IU?$less@I@std@@@Z 0000000180036180 f i arena.obj
 0001:00035220       ??$atomic_update@_J_JU?$less@_J@std@@@internal@tbb@@YA_JAEAU?$atomic@_J@1@_JU?$less@_J@std@@@Z 0000000180036220 f i arena.obj
 0001:000352c0       ??$compare_and_swap@$0A@@?$atomic_impl@PEAVarena@internal@tbb@@@internal@tbb@@QEAAPEAVarena@12@PEAV312@0@Z 00000001800362c0 f i arena.obj
 0001:00035330       ??$compare_and_swap@$0A@@?$atomic_impl@PEAVgeneric_scheduler@internal@tbb@@@internal@tbb@@QEAAPEAVgeneric_scheduler@12@PEAV312@0@Z 0000000180036330 f i arena.obj
 0001:000353a0       ??$compare_and_swap@$0A@@?$atomic_impl@PEAVtask@tbb@@@internal@tbb@@QEAAPEAVtask@2@PEAV32@0@Z 00000001800363a0 f i arena.obj
 0001:00035410       ??$compare_and_swap@$0A@@?$atomic_impl@_J@internal@tbb@@QEAA_J_J0@Z 0000000180036410 f i arena.obj
 0001:00035480       ??$construct@PEAPEAVtask@tbb@@$$V@?$_Normal_allocator_traits@V?$tbb_allocator@PEAPEAVtask@tbb@@@tbb@@@std@@SAXAEAV?$tbb_allocator@PEAPEAVtask@tbb@@@tbb@@PEAPEAPEAVtask@3@@Z 0000000180036480 f i arena.obj
 0001:000354c0       ??$construct@PEAPEAVtask@tbb@@$$V@?$tbb_allocator@PEAPEAVtask@tbb@@@tbb@@QEAAXPEAPEAPEAVtask@1@@Z 00000001800364c0 f i arena.obj
 0001:00035540       ??$construct@PEAPEAVtask@tbb@@AEAPEAPEAV12@@?$_Normal_allocator_traits@V?$tbb_allocator@PEAPEAVtask@tbb@@@tbb@@@std@@SAXAEAV?$tbb_allocator@PEAPEAVtask@tbb@@@tbb@@PEAPEAPEAVtask@3@AEAPEAPEAV43@@Z 0000000180036540 f i arena.obj
 0001:00035590       ??$construct@PEAPEAVtask@tbb@@AEAPEAPEAV12@@?$tbb_allocator@PEAPEAVtask@tbb@@@tbb@@QEAAXPEAPEAPEAVtask@1@AEAPEAPEAV21@@Z 0000000180036590 f i arena.obj
 0001:000355f0       ??$construct@PEAVtask@tbb@@AEBQEAV12@@?$_Normal_allocator_traits@V?$tbb_allocator@PEAVtask@tbb@@@tbb@@@std@@SAXAEAV?$tbb_allocator@PEAVtask@tbb@@@tbb@@PEAPEAVtask@3@AEBQEAV43@@Z 00000001800365f0 f i arena.obj
 0001:00035640       ??$construct@PEAVtask@tbb@@AEBQEAV12@@?$tbb_allocator@PEAVtask@tbb@@@tbb@@QEAAXPEAPEAVtask@1@AEBQEAV21@@Z 0000000180036640 f i arena.obj
 0001:000356a0       ??$construct@U_Container_proxy@std@@U12@@?$_Normal_allocator_traits@V?$tbb_allocator@U_Container_proxy@std@@@tbb@@@std@@SAXAEAV?$tbb_allocator@U_Container_proxy@std@@@tbb@@PEAU_Container_proxy@1@$$QEAU41@@Z 00000001800366a0 f i arena.obj
 0001:000356f0       ??$construct@U_Container_proxy@std@@U12@@?$tbb_allocator@U_Container_proxy@std@@@tbb@@QEAAXPEAU_Container_proxy@std@@$$QEAU23@@Z 00000001800366f0 f i arena.obj
 0001:00035750       ??$destroy@PEAPEAVtask@tbb@@@?$_Normal_allocator_traits@V?$tbb_allocator@PEAPEAVtask@tbb@@@tbb@@@std@@SAXAEAV?$tbb_allocator@PEAPEAVtask@tbb@@@tbb@@PEAPEAPEAVtask@3@@Z 0000000180036750 f i arena.obj
 0001:00035790       ??$destroy@PEAVtask@tbb@@@?$_Normal_allocator_traits@V?$tbb_allocator@PEAVtask@tbb@@@tbb@@@std@@SAXAEAV?$tbb_allocator@PEAVtask@tbb@@@tbb@@PEAPEAVtask@3@@Z 0000000180036790 f i arena.obj
 0001:000357d0       ??$destroy@U_Container_proxy@std@@@?$_Normal_allocator_traits@V?$tbb_allocator@U_Container_proxy@std@@@tbb@@@std@@SAXAEAV?$tbb_allocator@U_Container_proxy@std@@@tbb@@PEAU_Container_proxy@1@@Z 00000001800367d0 f i arena.obj
 0001:00035810       ??$fetch_and_add@$0A@@?$atomic_impl_with_arithmetic@_J_JD@internal@tbb@@QEAA_J_J@Z 0000000180036810 f i arena.obj
 0001:00035850       ??$forward@AEAPEAPEAVtask@tbb@@@std@@YAAEAPEAPEAVtask@tbb@@AEAPEAPEAV12@@Z 0000000180036850 f i arena.obj
 0001:00035860       ??$forward@AEBQEAVtask@tbb@@@std@@YAAEBQEAVtask@tbb@@AEBQEAV12@@Z 0000000180036860 f i arena.obj
 0001:00035870       ??$forward@U_Container_proxy@std@@@std@@YA$$QEAU_Container_proxy@0@AEAU10@@Z 0000000180036870 f i arena.obj
 0001:00035880       ??$forward@Vspawn_functor@graph@interface10@flow@tbb@@@std@@YA$$QEAVspawn_functor@graph@interface10@flow@tbb@@AEAV12345@@Z 0000000180036880 f i arena.obj
 0001:00035890       ??$free_task@$02@generic_scheduler@internal@tbb@@QEAAXAEAVtask@2@@Z 0000000180036890 f i arena.obj
 0001:00035a50       ??$move@AEAVspawn_functor@graph@interface10@flow@tbb@@@std@@YA$$QEAVspawn_functor@graph@interface10@flow@tbb@@AEAV12345@@Z 0000000180036a50 f i arena.obj
 0001:00035a60       ??$notify@Vdelegated_task@internal@interface7@tbb@@@concurrent_monitor@internal@tbb@@QEAAXAEBVdelegated_task@1interface7@2@@Z 0000000180036a60 f i arena.obj
 0001:00035aa0       ??$notify_relaxed@Vdelegated_task@internal@interface7@tbb@@@concurrent_monitor@internal@tbb@@QEAAXAEBVdelegated_task@1interface7@2@@Z 0000000180036aa0 f i arena.obj
 0001:00035ce0       ??$occupy_free_slot@$00@arena@internal@tbb@@QEAA_KAEAVgeneric_scheduler@12@@Z 0000000180036ce0 f i arena.obj
 0001:00035df0       ??$occupy_free_slot@$0A@@arena@internal@tbb@@QEAA_KAEAVgeneric_scheduler@12@@Z 0000000180036df0 f i arena.obj
 0001:00035f00       ??$on_thread_leaving@$00@arena@internal@tbb@@QEAAXXZ 0000000180036f00 f i arena.obj
 0001:00036030       ??$on_thread_leaving@$0BAAA@@arena@internal@tbb@@QEAAXXZ 0000000180037030 f i arena.obj
 0001:00036130       ??$poison_value@PEAVobserver_proxy@internal@tbb@@@internal@tbb@@YAXAEAPEAVobserver_proxy@01@@Z 0000000180037130 f i arena.obj
 0001:00036170       ??$punned_cast@PEAPEAVobserver_proxy@internal@tbb@@$$CB_K@internal@tbb@@YAPEAPEAVobserver_proxy@01@PEB_K@Z 0000000180037170 f i arena.obj
 0001:000361b0       ??$spin_wait_while_eq@PEAVtask_group_context@tbb@@PEAV12@@internal@tbb@@YAXAEDSEAVtask_group_context@1@PEAV21@@Z 00000001800371b0 f i arena.obj
 0001:00036210       ??$store@$02@?$atomic_impl@_J@internal@tbb@@QEAAX_J@Z 0000000180037210 f i arena.obj
 0001:00036270       ??$suppress_unused_warning@$$BY0GI@D@internal@tbb@@YAXAEAY0GI@$$CBD@Z 0000000180037270 f i arena.obj
 0001:00036280       ??$suppress_unused_warning@PEBVtask_group_context@tbb@@@internal@tbb@@YAXAEBQEBVtask_group_context@1@@Z 0000000180037280 f i arena.obj
 0001:00036290       ??$to_bits@PEAVgeneric_scheduler@internal@tbb@@@?$atomic_impl@PEAVgeneric_scheduler@internal@tbb@@@internal@tbb@@SA_JPEAVgeneric_scheduler@12@@Z 0000000180037290 f i arena.obj
 0001:000362d0       ??$to_bits@PEAVtask@tbb@@@?$atomic_impl@PEAVtask@tbb@@@internal@tbb@@SA_JPEAVtask@2@@Z 00000001800372d0 f i arena.obj
 0001:00036310       ??$to_bits@PEAVtask_group_context@tbb@@@?$atomic_impl@PEAVtask_group_context@tbb@@@internal@tbb@@SA_JPEAVtask_group_context@2@@Z 0000000180037310 f i arena.obj
 0001:00036350       ??$to_bits@_J@?$atomic_impl@_J@internal@tbb@@SA_J_J@Z 0000000180037350 f i arena.obj
 0001:00036390       ??$to_bits@_N@?$atomic_impl@_N@internal@tbb@@SAC_N@Z 0000000180037390 f i arena.obj
 0001:000363d0       ??$to_bits_ref@$$CD_N@?$atomic_impl@_N@internal@tbb@@SAAEACAED_N@Z 00000001800373d0 f i arena.obj
 0001:00036410       ??$to_bits_ref@PEAVtask_group_context@tbb@@@?$atomic_impl@PEAVtask_group_context@tbb@@@internal@tbb@@SAAEA_JAEAPEAVtask_group_context@2@@Z 0000000180037410 f i arena.obj
 0001:00036450       ??$to_bits_ref@_J@?$atomic_impl@_J@internal@tbb@@SAAEA_JAEA_J@Z 0000000180037450 f i arena.obj
 0001:00036490       ??$to_bits_ref@_N@?$atomic_impl@_N@internal@tbb@@SAAEACAEA_N@Z 0000000180037490 f i arena.obj
 0001:000364d0       ??$to_value@PEAVarena@internal@tbb@@@?$atomic_impl@PEAVarena@internal@tbb@@@internal@tbb@@SAPEAVarena@12@_J@Z 00000001800374d0 f i arena.obj
 0001:00036530       ??$to_value@PEAVgeneric_scheduler@internal@tbb@@@?$atomic_impl@PEAVgeneric_scheduler@internal@tbb@@@internal@tbb@@SAPEAVgeneric_scheduler@12@_J@Z 0000000180037530 f i arena.obj
 0001:00036590       ??$to_value@PEAVtask@tbb@@@?$atomic_impl@PEAVtask@tbb@@@internal@tbb@@SAPEAVtask@2@_J@Z 0000000180037590 f i arena.obj
 0001:000365f0       ??$to_value@_N@?$atomic_impl@_N@internal@tbb@@SA_NC@Z 00000001800375f0 f i arena.obj
 0001:00036640       ??0?$_Deque_alloc@U?$_Deque_base_types@PEAVtask@tbb@@V?$tbb_allocator@PEAVtask@tbb@@@2@@std@@@std@@QEAA@XZ 0000000180037640 f i arena.obj
 0001:00036690       ??0?$_Deque_const_iterator@V?$_Deque_val@U?$_Deque_simple_types@PEAVtask@tbb@@@std@@@std@@@std@@QEAA@_KPEBU_Container_base12@1@@Z 0000000180037690 f i arena.obj
 0001:00036700       ??0?$_Deque_iterator@V?$_Deque_val@U?$_Deque_simple_types@PEAVtask@tbb@@@std@@@std@@@std@@QEAA@_KPEBU_Container_base12@1@@Z 0000000180037700 f i arena.obj
 0001:00036750       ??0?$_Deque_val@U?$_Deque_simple_types@PEAVtask@tbb@@@std@@@std@@QEAA@XZ 0000000180037750 f i arena.obj
 0001:000367c0       ??0?$_Uninitialized_backout_al@PEAPEAPEAVtask@tbb@@V?$tbb_allocator@PEAPEAVtask@tbb@@@2@@std@@QEAA@PEAPEAPEAVtask@tbb@@AEAV?$tbb_allocator@PEAPEAVtask@tbb@@@3@@Z 00000001800377c0 f i arena.obj
 0001:00036800       ??0?$context_guard_helper@$0A@@internal@tbb@@QEAA@XZ 0000000180037800 f i arena.obj
 0001:00036860       ??0?$converter@PEAVarena@internal@tbb@@@?$atomic_impl@PEAVarena@internal@tbb@@@internal@tbb@@QEAA@XZ 0000000180037860 f i arena.obj
 0001:00036870       ??0?$converter@PEAVgeneric_scheduler@internal@tbb@@@?$atomic_impl@PEAVgeneric_scheduler@internal@tbb@@@internal@tbb@@QEAA@PEAVgeneric_scheduler@23@@Z 0000000180037870 f i arena.obj
 0001:00036890       ??0?$converter@PEAVgeneric_scheduler@internal@tbb@@@?$atomic_impl@PEAVgeneric_scheduler@internal@tbb@@@internal@tbb@@QEAA@XZ 0000000180037890 f i arena.obj
 0001:000368a0       ??0?$converter@PEAVtask@tbb@@@?$atomic_impl@PEAVtask@tbb@@@internal@tbb@@QEAA@PEAVtask@3@@Z 00000001800378a0 f i arena.obj
 0001:000368c0       ??0?$converter@PEAVtask@tbb@@@?$atomic_impl@PEAVtask@tbb@@@internal@tbb@@QEAA@XZ 00000001800378c0 f i arena.obj
 0001:000368d0       ??0?$converter@PEAVtask_group_context@tbb@@@?$atomic_impl@PEAVtask_group_context@tbb@@@internal@tbb@@QEAA@PEAVtask_group_context@3@@Z 00000001800378d0 f i arena.obj
 0001:000368f0       ??0?$converter@_J@?$atomic_impl@_J@internal@tbb@@QEAA@_J@Z 00000001800378f0 f i arena.obj
 0001:00036910       ??0?$deque@PEAVtask@tbb@@V?$tbb_allocator@PEAVtask@tbb@@@2@@std@@QEAA@XZ 0000000180037910 f i arena.obj
 0001:00036950       ??0?$function_task@Vspawn_functor@graph@interface10@flow@tbb@@@internal@tbb@@QEAA@$$QEAVspawn_functor@graph@interface10@flow@2@@Z 0000000180037950 f i arena.obj
 0001:000369b0       ??0?$padded@U?$queue_and_mutex@PEAVtask@tbb@@Vspin_mutex@2@@internal@tbb@@$0IA@@internal@tbb@@QEAA@XZ 00000001800379b0 f i arena.obj
 0001:000369f0       ??0?$padded@Uarena_base@internal@tbb@@$0IA@@internal@tbb@@QEAA@XZ 00000001800379f0 f i arena.obj
 0001:00036a30       ??0?$padded@Uintrusive_list_node@internal@tbb@@$0IA@@internal@tbb@@QEAA@XZ 0000000180037a30 f i arena.obj
 0001:00036a70       ??0?$padded_base@U?$queue_and_mutex@PEAVtask@tbb@@Vspin_mutex@2@@internal@tbb@@$0IA@$0DA@@internal@tbb@@QEAA@XZ 0000000180037a70 f i arena.obj
 0001:00036ab0       ??0?$padded_base@Uarena_base@internal@tbb@@$0IA@$07@internal@tbb@@QEAA@XZ 0000000180037ab0 f i arena.obj
 0001:00036af0       ??0?$padded_base@Uintrusive_list_node@internal@tbb@@$0IA@$0BA@@internal@tbb@@QEAA@XZ 0000000180037af0 f i arena.obj
 0001:00036b30       ??0?$ptr_converter@PEAPEAVtask_group_context@tbb@@@?$atomic_impl@PEAVtask_group_context@tbb@@@internal@tbb@@QEAA@PEAPEAVtask_group_context@3@@Z 0000000180037b30 f i arena.obj
 0001:00036b50       ??0?$ptr_converter@PEA_J@?$atomic_impl@_J@internal@tbb@@QEAA@PEA_J@Z 0000000180037b50 f i arena.obj
 0001:00036b70       ??0?$queue_and_mutex@PEAVtask@tbb@@Vspin_mutex@2@@internal@tbb@@QEAA@XZ 0000000180037b70 f i arena.obj
 0001:00036bd0       ??0?$task_stream@$02@internal@tbb@@QEAA@XZ 0000000180037bd0 f i arena.obj
 0001:00036c50       ??0?$tbb_allocator@PEAVtask@tbb@@@tbb@@QEAA@XZ 0000000180037c50 f i arena.obj
 0001:00036c60       ??0_Container_base12@std@@QEAA@XZ 0000000180037c60 f i arena.obj
 0001:00036c80       ??0_Container_proxy@std@@QEAA@XZ 0000000180037c80 f i arena.obj
 0001:00036cb0       ??0_Iterator_base12@std@@QEAA@XZ 0000000180037cb0 f i arena.obj
 0001:00036ce0       ??0arena_base@internal@tbb@@QEAA@XZ 0000000180037ce0 f i arena.obj
 0001:00036d60       ??0auto_empty_task@internal@tbb@@QEAA@PEAVgeneric_scheduler@12@PEAVtask_group_context@2@@Z 0000000180037d60 f i arena.obj
 0001:00036de0       ??0delegated_task@internal@interface7@tbb@@QEAA@AEAVdelegate_base@123@AEAVconcurrent_monitor@13@PEAVtask@3@@Z 0000000180037de0 f i arena.obj
 0001:00036e60       ??0empty_task@tbb@@QEAA@XZ 0000000180037e60 f i arena.obj
 0001:00036eb0       ??0isolation_guard@internal@interface7@tbb@@QEAA@AEA_J@Z 0000000180037eb0 f i arena.obj
 0001:00036ee0       ??0mail_inbox@internal@tbb@@QEAA@XZ 0000000180037ee0 f i arena.obj
 0001:00036f00       ??0nested_arena_context@internal@tbb@@QEAA@PEAVgeneric_scheduler@12@PEAVarena@12@_K_N3@Z 0000000180037f00 f i arena.obj
 0001:00037010       ??0numa_binding_observer@internal@tbb@@QEAA@PEAVtask_arena@interface7@2@HH@Z 0000000180038010 f i arena.obj
 0001:00037090       ??0observer_list@internal@tbb@@QEAA@XZ 0000000180038090 f i arena.obj
 0001:000370c0       ??0outermost_context@?1??execute@delegated_task@internal@interface7@tbb@@EEAAPEAVtask@5@XZ@QEAA@PEAV2345@AEAVgeneric_scheduler@35@@Z 00000001800380c0 f i arena.obj
 0001:000371f0       ??0scheduler_state@internal@tbb@@QEAA@XZ 00000001800381f0 f i arena.obj
 0001:00037230       ??0task_scheduler_observer@interface6@tbb@@QEAA@AEAVtask_arena@interface7@2@@Z 0000000180038230 f i arena.obj
 0001:00037290       ??0task_scheduler_observer_v3@internal@tbb@@QEAA@XZ 0000000180038290 f i arena.obj
 0001:000372f0       ??0wait_task@internal@interface7@tbb@@QEAA@AEAVbinary_semaphore@13@@Z 00000001800382f0 f i arena.obj
 0001:00037350       ??1?$_Deque_alloc@U?$_Deque_base_types@PEAVtask@tbb@@V?$tbb_allocator@PEAVtask@tbb@@@2@@std@@@std@@QEAA@XZ 0000000180038350 f i arena.obj
 0001:00037390       ??1?$_Deque_const_iterator@V?$_Deque_val@U?$_Deque_simple_types@PEAVtask@tbb@@@std@@@std@@@std@@QEAA@XZ 0000000180038390 f i arena.obj
 0001:000373c0       ??1?$_Deque_iterator@V?$_Deque_val@U?$_Deque_simple_types@PEAVtask@tbb@@@std@@@std@@@std@@QEAA@XZ 00000001800383c0 f i arena.obj
 0001:000373f0       ??1?$_Uninitialized_backout_al@PEAPEAPEAVtask@tbb@@V?$tbb_allocator@PEAPEAVtask@tbb@@@2@@std@@QEAA@XZ 00000001800383f0 f i arena.obj
 0001:00037440       ??1?$context_guard_helper@$0A@@internal@tbb@@QEAA@XZ 0000000180038440 f i arena.obj
 0001:000374c0       ??1?$deque@PEAVtask@tbb@@V?$tbb_allocator@PEAVtask@tbb@@@2@@std@@QEAA@XZ 00000001800384c0 f i arena.obj
 0001:00037510       ??1?$function_task@Vspawn_functor@graph@interface10@flow@tbb@@@internal@tbb@@UEAA@XZ 0000000180038510 f i arena.obj
 0001:00037540       ??1?$padded@U?$queue_and_mutex@PEAVtask@tbb@@Vspin_mutex@2@@internal@tbb@@$0IA@@internal@tbb@@QEAA@XZ 0000000180038540 f i arena.obj
 0001:00037570       ??1?$padded@Uarena_base@internal@tbb@@$0IA@@internal@tbb@@QEAA@XZ 0000000180038570 f i arena.obj
 0001:000375a0       ??1?$padded_base@U?$queue_and_mutex@PEAVtask@tbb@@Vspin_mutex@2@@internal@tbb@@$0IA@$0DA@@internal@tbb@@QEAA@XZ 00000001800385a0 f i arena.obj
 0001:000375d0       ??1?$padded_base@Uarena_base@internal@tbb@@$0IA@$07@internal@tbb@@QEAA@XZ 00000001800385d0 f i arena.obj
 0001:00037600       ??1?$queue_and_mutex@PEAVtask@tbb@@Vspin_mutex@2@@internal@tbb@@QEAA@XZ 0000000180038600 f i arena.obj
 0001:00037640       ??1?$task_stream@$02@internal@tbb@@QEAA@XZ 0000000180038640 f i arena.obj
 0001:000376e0       ??1_Iterator_base12@std@@QEAA@XZ 00000001800386e0 f i arena.obj
 0001:00037750       ??1arena@internal@tbb@@QEAA@XZ 0000000180038750 f i arena.obj
 0001:00037780       ??1arena_base@internal@tbb@@QEAA@XZ 0000000180038780 f i arena.obj
 0001:000377d0       ??1auto_empty_task@internal@tbb@@QEAA@XZ 00000001800387d0 f i arena.obj
 0001:00037820       ??1delegated_task@internal@interface7@tbb@@EEAA@XZ 0000000180038820 f i arena.obj
 0001:000378e0       ??1empty_task@tbb@@UEAA@XZ 00000001800388e0 f i arena.obj
 0001:00037910       ??1isolation_guard@internal@interface7@tbb@@QEAA@XZ 0000000180038910 f i arena.obj
 0001:00037930       ??1nested_arena_context@internal@tbb@@QEAA@XZ 0000000180038930 f i arena.obj
 0001:00037a10       ??1numa_binding_observer@internal@tbb@@UEAA@XZ 0000000180038a10 f i arena.obj
 0001:00037a70       ??1outermost_context@?1??execute@delegated_task@internal@interface7@tbb@@EEAAPEAVtask@5@XZ@QEAA@XZ 0000000180038a70 f i arena.obj
 0001:00037af0       ??1task_scheduler_observer@interface6@tbb@@UEAA@XZ 0000000180038af0 f i arena.obj
 0001:00037b50       ??1task_scheduler_observer_v3@internal@tbb@@UEAA@XZ 0000000180038b50 f i arena.obj
 0001:00037bb0       ??1wait_task@internal@interface7@tbb@@UEAA@XZ 0000000180038bb0 f i arena.obj
 0001:00037be0       ??4?$atomic@PEAVtask_group_context@tbb@@@tbb@@QEAAPEAVtask_group_context@1@PEAV21@@Z 0000000180038be0 f i arena.obj
 0001:00037c20       ??8?$_Deque_const_iterator@V?$_Deque_val@U?$_Deque_simple_types@PEAVtask@tbb@@@std@@@std@@@std@@QEBA_NAEBV01@@Z 0000000180038c20 f i arena.obj
 0001:00037c90       ??9?$_Deque_const_iterator@V?$_Deque_val@U?$_Deque_simple_types@PEAVtask@tbb@@@std@@@std@@@std@@QEBA_NAEBV01@@Z 0000000180038c90 f i arena.obj
 0001:00037cf0       ??9cpu_ctl_env@internal@tbb@@QEBA_NAEBV012@@Z 0000000180038cf0 f i arena.obj
 0001:00037d60       ??Bauto_empty_task@internal@tbb@@QEAAAEAVtask@2@XZ 0000000180038d60 f i arena.obj
 0001:00037d70       ??D?$_Deque_const_iterator@V?$_Deque_val@U?$_Deque_simple_types@PEAVtask@tbb@@@std@@@std@@@std@@QEBAAEBQEAVtask@tbb@@XZ 0000000180038d70 f i arena.obj
 0001:00037f20       ??D?$_Deque_iterator@V?$_Deque_val@U?$_Deque_simple_types@PEAVtask@tbb@@@std@@@std@@@std@@QEBAAEAPEAVtask@tbb@@XZ 0000000180038f20 f i arena.obj
 0001:00037f50       ??E?$_Deque_const_iterator@V?$_Deque_val@U?$_Deque_simple_types@PEAVtask@tbb@@@std@@@std@@@std@@QEAAAEAV01@XZ 0000000180038f50 f i arena.obj
 0001:000380b0       ??E?$_Deque_iterator@V?$_Deque_val@U?$_Deque_simple_types@PEAVtask@tbb@@@std@@@std@@@std@@QEAAAEAV01@XZ 00000001800390b0 f i arena.obj
 0001:000380f0       ??Iauto_empty_task@internal@tbb@@QEAAPEAVtask@2@XZ 00000001800390f0 f i arena.obj
 0001:00038100       ??R?$less@I@std@@QEBA_NAEBI0@Z 0000000180039100 f i arena.obj
 0001:00038160       ??R?$less@_J@std@@QEBA_NAEB_J0@Z 0000000180039160 f i arena.obj
 0001:000381c0       ??Rdelegated_task@internal@interface7@tbb@@QEBA_N_K@Z 00000001800391c0 f i arena.obj
 0001:00038210       ??Rspawn_functor@graph@interface10@flow@tbb@@QEBAXXZ 0000000180039210 f i arena.obj
 0001:00038250       ??Y?$atomic_impl_with_arithmetic@_J_JD@internal@tbb@@QEAA_J_J@Z 0000000180039250 f i arena.obj
 0001:00038290       ??Z?$atomic_impl_with_arithmetic@IID@internal@tbb@@QEAAII@Z 0000000180039290 f i arena.obj
 0001:000382d0       ??_E?$padded@U?$queue_and_mutex@PEAVtask@tbb@@Vspin_mutex@2@@internal@tbb@@$0IA@@internal@tbb@@QEAAPEAXI@Z 00000001800392d0 f i arena.obj
 0001:00038390       ??_G?$function_task@Vspawn_functor@graph@interface10@flow@tbb@@@internal@tbb@@UEAAPEAXI@Z 0000000180039390 f i arena.obj
 0001:00038390       ??_E?$function_task@Vspawn_functor@graph@interface10@flow@tbb@@@internal@tbb@@UEAAPEAXI@Z 0000000180039390 f i arena.obj
 0001:000383f0       ??_Garena@internal@tbb@@QEAAPEAXI@Z 00000001800393f0 f i arena.obj
 0001:00038450       ??_Edelegated_task@internal@interface7@tbb@@EEAAPEAXI@Z 0000000180039450 f i arena.obj
 0001:00038450       ??_Gdelegated_task@internal@interface7@tbb@@EEAAPEAXI@Z 0000000180039450 f i arena.obj
 0001:000384b0       ??_Gempty_task@tbb@@UEAAPEAXI@Z 00000001800394b0 f i arena.obj
 0001:000384b0       ??_Eempty_task@tbb@@UEAAPEAXI@Z 00000001800394b0 f i arena.obj
 0001:00038510       ??_Gnuma_binding_observer@internal@tbb@@UEAAPEAXI@Z 0000000180039510 f i arena.obj
 0001:00038510       ??_Enuma_binding_observer@internal@tbb@@UEAAPEAXI@Z 0000000180039510 f i arena.obj
 0001:00038570       ??_Gtask_group_context@tbb@@QEAAPEAXI@Z 0000000180039570 f i arena.obj
 0001:000385d0       ??_Gtask_scheduler_observer@interface6@tbb@@UEAAPEAXI@Z 00000001800395d0 f i arena.obj
 0001:000385d0       ??_Etask_scheduler_observer@interface6@tbb@@UEAAPEAXI@Z 00000001800395d0 f i arena.obj
 0001:00038630       ??_Etask_scheduler_observer_v3@internal@tbb@@UEAAPEAXI@Z 0000000180039630 f i arena.obj
 0001:00038630       ??_Gtask_scheduler_observer_v3@internal@tbb@@UEAAPEAXI@Z 0000000180039630 f i arena.obj
 0001:00038690       ??_Gwait_task@internal@interface7@tbb@@UEAAPEAXI@Z 0000000180039690 f i arena.obj
 0001:00038690       ??_Ewait_task@internal@interface7@tbb@@UEAAPEAXI@Z 0000000180039690 f i arena.obj
 0001:000386f0       ?_Adopt@_Iterator_base12@std@@QEAAXPEBU_Container_base12@2@@Z 00000001800396f0 f i arena.obj
 0001:000387e0       ?_Alloc_proxy@?$_Deque_alloc@U?$_Deque_base_types@PEAVtask@tbb@@V?$tbb_allocator@PEAVtask@tbb@@@2@@std@@@std@@QEAAXXZ 00000001800397e0 f i arena.obj
 0001:000388c0       ?_Clrcont@_Iterator_base12@std@@QEAAXXZ 00000001800398c0 f i arena.obj
 0001:000388e0       ?_Compat@?$_Deque_const_iterator@V?$_Deque_val@U?$_Deque_simple_types@PEAVtask@tbb@@@std@@@std@@@std@@QEBAXAEBV12@@Z 00000001800398e0 f i arena.obj
 0001:000389b0       ?_Free_proxy@?$_Deque_alloc@U?$_Deque_base_types@PEAVtask@tbb@@V?$tbb_allocator@PEAVtask@tbb@@@2@@std@@@std@@QEAAXXZ 00000001800399b0 f i arena.obj
 0001:00038a50       ?_Get_data@?$_Deque_alloc@U?$_Deque_base_types@PEAVtask@tbb@@V?$tbb_allocator@PEAVtask@tbb@@@2@@std@@@std@@QEAAAEAV?$_Deque_val@U?$_Deque_simple_types@PEAVtask@tbb@@@std@@@2@XZ 0000000180039a50 f i arena.obj
 0001:00038a90       ?_Get_data@?$_Deque_alloc@U?$_Deque_base_types@PEAVtask@tbb@@V?$tbb_allocator@PEAVtask@tbb@@@2@@std@@@std@@QEBAAEBV?$_Deque_val@U?$_Deque_simple_types@PEAVtask@tbb@@@std@@@2@XZ 0000000180039a90 f i arena.obj
 0001:00038ad0       ?_Get_first@?$_Compressed_pair@V?$tbb_allocator@PEAVtask@tbb@@@tbb@@V?$_Deque_val@U?$_Deque_simple_types@PEAVtask@tbb@@@std@@@std@@$00@std@@QEAAAEAV?$tbb_allocator@PEAVtask@tbb@@@tbb@@XZ 0000000180039ad0 f i arena.obj
 0001:00038ae0       ?_Get_first@?$_Compressed_pair@V?$tbb_allocator@PEAVtask@tbb@@@tbb@@V?$_Deque_val@U?$_Deque_simple_types@PEAVtask@tbb@@@std@@@std@@$00@std@@QEBAAEBV?$tbb_allocator@PEAVtask@tbb@@@tbb@@XZ 0000000180039ae0 f i arena.obj
 0001:00038af0       ?_Get_second@?$_Compressed_pair@V?$tbb_allocator@PEAVtask@tbb@@@tbb@@V?$_Deque_val@U?$_Deque_simple_types@PEAVtask@tbb@@@std@@@std@@$00@std@@QEAAAEAV?$_Deque_val@U?$_Deque_simple_types@PEAVtask@tbb@@@std@@@2@XZ 0000000180039af0 f i arena.obj
 0001:00038b00       ?_Get_second@?$_Compressed_pair@V?$tbb_allocator@PEAVtask@tbb@@@tbb@@V?$_Deque_val@U?$_Deque_simple_types@PEAVtask@tbb@@@std@@@std@@$00@std@@QEBAAEBV?$_Deque_val@U?$_Deque_simple_types@PEAVtask@tbb@@@std@@@2@XZ 0000000180039b00 f i arena.obj
 0001:00038b10       ?_Getal@?$_Deque_alloc@U?$_Deque_base_types@PEAVtask@tbb@@V?$tbb_allocator@PEAVtask@tbb@@@2@@std@@@std@@QEAAAEAV?$tbb_allocator@PEAVtask@tbb@@@tbb@@XZ 0000000180039b10 f i arena.obj
 0001:00038b50       ?_Getal@?$_Deque_alloc@U?$_Deque_base_types@PEAVtask@tbb@@V?$tbb_allocator@PEAVtask@tbb@@@2@@std@@@std@@QEBAAEBV?$tbb_allocator@PEAVtask@tbb@@@tbb@@XZ 0000000180039b50 f i arena.obj
 0001:00038b90       ?_Getblock@?$_Deque_alloc@U?$_Deque_base_types@PEAVtask@tbb@@V?$tbb_allocator@PEAVtask@tbb@@@2@@std@@@std@@QEBA_K_K@Z 0000000180039b90 f i arena.obj
 0001:00038bd0       ?_Getblock@?$_Deque_val@U?$_Deque_simple_types@PEAVtask@tbb@@@std@@@std@@QEBA_K_K@Z 0000000180039bd0 f i arena.obj
 0001:00038c00       ?_Getcont@_Iterator_base12@std@@QEBAPEBU_Container_base12@2@XZ 0000000180039c00 f i arena.obj
 0001:00038c50       ?_Getpfirst@?$_Deque_alloc@U?$_Deque_base_types@PEAVtask@tbb@@V?$tbb_allocator@PEAVtask@tbb@@@2@@std@@@std@@QEBAPEAPEAU_Iterator_base12@2@XZ 0000000180039c50 f i arena.obj
 0001:00038c90       ?_Getpfirst@_Container_base12@std@@QEBAPEAPEAU_Iterator_base12@2@XZ 0000000180039c90 f i arena.obj
 0001:00038ce0       ?_Getpnext@_Iterator_base12@std@@QEAAPEAPEAU12@XZ 0000000180039ce0 f i arena.obj
 0001:00038d00       ?_Growmap@?$deque@PEAVtask@tbb@@V?$tbb_allocator@PEAVtask@tbb@@@2@@std@@IEAAX_K@Z 0000000180039d00 f i arena.obj
 0001:00039150       ?_Map@?$_Deque_alloc@U?$_Deque_base_types@PEAVtask@tbb@@V?$tbb_allocator@PEAVtask@tbb@@@2@@std@@@std@@QEAAAEAPEAPEAPEAVtask@tbb@@XZ 000000018003a150 f i arena.obj
 0001:00039190       ?_Mapsize@?$_Deque_alloc@U?$_Deque_base_types@PEAVtask@tbb@@V?$tbb_allocator@PEAVtask@tbb@@@2@@std@@@std@@QEAAAEA_KXZ 000000018003a190 f i arena.obj
 0001:000391d0       ?_Max_size1@?$_Normal_allocator_traits@V?$tbb_allocator@PEAVtask@tbb@@@tbb@@@std@@SA_KAEBV?$tbb_allocator@PEAVtask@tbb@@@tbb@@U?$integral_constant@_N$00@2@@Z 000000018003a1d0 f i arena.obj
 0001:00039210       ?_Myoff@?$_Deque_alloc@U?$_Deque_base_types@PEAVtask@tbb@@V?$tbb_allocator@PEAVtask@tbb@@@2@@std@@@std@@QEAAAEA_KXZ 000000018003a210 f i arena.obj
 0001:00039250       ?_Myoff@?$_Deque_alloc@U?$_Deque_base_types@PEAVtask@tbb@@V?$tbb_allocator@PEAVtask@tbb@@@2@@std@@@std@@QEBAAEB_KXZ 000000018003a250 f i arena.obj
 0001:00039290       ?_Myproxy@?$_Deque_alloc@U?$_Deque_base_types@PEAVtask@tbb@@V?$tbb_allocator@PEAVtask@tbb@@@2@@std@@@std@@QEAAAEAPEAU_Container_proxy@2@XZ 000000018003a290 f i arena.obj
 0001:000392c0       ?_Mysize@?$_Deque_alloc@U?$_Deque_base_types@PEAVtask@tbb@@V?$tbb_allocator@PEAVtask@tbb@@@2@@std@@@std@@QEAAAEA_KXZ 000000018003a2c0 f i arena.obj
 0001:00039300       ?_Mysize@?$_Deque_alloc@U?$_Deque_base_types@PEAVtask@tbb@@V?$tbb_allocator@PEAVtask@tbb@@@2@@std@@@std@@QEBAAEB_KXZ 000000018003a300 f i arena.obj
 0001:00039340       ?_Orphan_all@?$_Deque_alloc@U?$_Deque_base_types@PEAVtask@tbb@@V?$tbb_allocator@PEAVtask@tbb@@@2@@std@@@std@@QEAAXXZ 000000018003a340 f i arena.obj
 0001:00039380       ?_Orphan_all@_Container_base12@std@@QEAAXXZ 000000018003a380 f i arena.obj
 0001:00039440       ?_Orphan_me@_Iterator_base12@std@@QEAAXXZ 000000018003a440 f i arena.obj
 0001:00039550       ?_Orphan_off@?$deque@PEAVtask@tbb@@V?$tbb_allocator@PEAVtask@tbb@@@2@@std@@IEBAX_K@Z 000000018003a550 f i arena.obj
 0001:000396c0       ?_Release@?$_Uninitialized_backout_al@PEAPEAPEAVtask@tbb@@V?$tbb_allocator@PEAPEAVtask@tbb@@@2@@std@@QEAAPEAPEAPEAVtask@tbb@@XZ 000000018003a6c0 f i arena.obj
 0001:000396f0       ?_RethrowException@exception_ptr@std@@QEBAXXZ 000000018003a6f0 f i arena.obj
 0001:00039720       ?_Setcont@?$_Deque_const_iterator@V?$_Deque_val@U?$_Deque_simple_types@PEAVtask@tbb@@@std@@@std@@@std@@QEAAXPEBV?$_Deque_val@U?$_Deque_simple_types@PEAVtask@tbb@@@std@@@2@@Z 000000018003a720 f i arena.obj
 0001:00039760       ?_Tidy@?$deque@PEAVtask@tbb@@V?$tbb_allocator@PEAVtask@tbb@@@2@@std@@IEAAXXZ 000000018003a760 f i arena.obj
 0001:000398e0       ?_Xlen@?$deque@PEAVtask@tbb@@V?$tbb_allocator@PEAVtask@tbb@@@2@@std@@IEBAXXZ 000000018003a8e0 f i arena.obj
 0001:00039910       ?allocate@?$tbb_allocator@PEAPEAVtask@tbb@@@tbb@@QEAAPEAPEAPEAVtask@2@_KPEBX@Z 000000018003a910 f i arena.obj
 0001:00039950       ?allocate@?$tbb_allocator@PEAVtask@tbb@@@tbb@@QEAAPEAPEAVtask@2@_KPEBX@Z 000000018003a950 f i arena.obj
 0001:00039990       ?allocate@?$tbb_allocator@U_Container_proxy@std@@@tbb@@QEAAPEAU_Container_proxy@std@@_KPEBX@Z 000000018003a990 f i arena.obj
 0001:000399d0       ?allocation_size@arena@internal@tbb@@SAHI@Z 000000018003a9d0 f i arena.obj
 0001:000399f0       ?assert_context_valid@generic_scheduler@internal@tbb@@SAXPEBVtask_group_context@3@@Z 000000018003a9f0 f i arena.obj
 0001:00039c20       ?attach@mail_inbox@internal@tbb@@QEAAXAEAVmail_outbox@23@@Z 000000018003ac20 f i arena.obj
 0001:00039c40       ?attach_mailbox@generic_scheduler@internal@tbb@@QEAAXG@Z 000000018003ac40 f i arena.obj
 0001:00039cd0       ?begin@?$deque@PEAVtask@tbb@@V?$tbb_allocator@PEAVtask@tbb@@@2@@std@@QEAA?AV?$_Deque_iterator@V?$_Deque_val@U?$_Deque_simple_types@PEAVtask@tbb@@@std@@@std@@@2@XZ 000000018003acd0 f i arena.obj
 0001:00039d50       ?clear@?$deque@PEAVtask@tbb@@V?$tbb_allocator@PEAVtask@tbb@@@2@@std@@QEAAXXZ 000000018003ad50 f i arena.obj
 0001:00039d90       ?clear_one_bit@internal@tbb@@YAXAEA_KH@Z 000000018003ad90 f i arena.obj
 0001:00039e30       ?compare_and_swap@?$atomic_impl@PEAVarena@internal@tbb@@@internal@tbb@@QEAAPEAVarena@23@PEAV423@0@Z 000000018003ae30 f i arena.obj
 0001:00039e80       ?compare_and_swap@?$atomic_impl@PEAVgeneric_scheduler@internal@tbb@@@internal@tbb@@QEAAPEAVgeneric_scheduler@23@PEAV423@0@Z 000000018003ae80 f i arena.obj
 0001:00039ed0       ?compare_and_swap@?$atomic_impl@PEAVtask@tbb@@@internal@tbb@@QEAAPEAVtask@3@PEAV43@0@Z 000000018003aed0 f i arena.obj
 0001:00039f20       ?compare_and_swap@?$atomic_impl@_J@internal@tbb@@QEAA_J_J0@Z 000000018003af20 f i arena.obj
 0001:00039f70       ?construct@mail_outbox@internal@tbb@@QEAAXXZ 000000018003af70 f i arena.obj
 0001:0003a060       ?current_thread_index@task_arena@interface7@tbb@@SAHXZ 000000018003b060 f i arena.obj
 0001:0003a080       ?current_thread_index@this_task_arena@tbb@@YAHXZ 000000018003b080 f i arena.obj
 0001:0003a0d0       ?deallocate@?$_Normal_allocator_traits@V?$tbb_allocator@U_Container_proxy@std@@@tbb@@@std@@SAXAEAV?$tbb_allocator@U_Container_proxy@std@@@tbb@@PEAU_Container_proxy@2@_K@Z 000000018003b0d0 f i arena.obj
 0001:0003a120       ?deallocate@?$tbb_allocator@PEAPEAVtask@tbb@@@tbb@@QEAAXPEAPEAPEAVtask@2@_K@Z 000000018003b120 f i arena.obj
 0001:0003a160       ?deallocate@?$tbb_allocator@PEAVtask@tbb@@@tbb@@QEAAXPEAPEAVtask@2@_K@Z 000000018003b160 f i arena.obj
 0001:0003a1a0       ?deallocate@?$tbb_allocator@U_Container_proxy@std@@@tbb@@QEAAXPEAU_Container_proxy@std@@_K@Z 000000018003b1a0 f i arena.obj
 0001:0003a1e0       ?destroy@?$tbb_allocator@PEAPEAVtask@tbb@@@tbb@@QEAAXPEAPEAPEAVtask@2@@Z 000000018003b1e0 f i arena.obj
 0001:0003a1f0       ?destroy@?$tbb_allocator@PEAVtask@tbb@@@tbb@@QEAAXPEAPEAVtask@2@@Z 000000018003b1f0 f i arena.obj
 0001:0003a200       ?destroy@?$tbb_allocator@U_Container_proxy@std@@@tbb@@QEAAXPEAU_Container_proxy@std@@@Z 000000018003b200 f i arena.obj
 0001:0003a210       ?detach@mail_inbox@internal@tbb@@QEAAXXZ 000000018003b210 f i arena.obj
 0001:0003a270       ?drain@?$task_stream@$02@internal@tbb@@QEAA_JXZ 000000018003b270 f i arena.obj
 0001:0003a490       ?drain@mail_outbox@internal@tbb@@QEAA_JXZ 000000018003b490 f i arena.obj
 0001:0003a510       ?empty@?$deque@PEAVtask@tbb@@V?$tbb_allocator@PEAVtask@tbb@@@2@@std@@QEBA_NXZ 000000018003b510 f i arena.obj
 0001:0003a560       ?empty@observer_list@internal@tbb@@QEBA_NXZ 000000018003b560 f i arena.obj
 0001:0003a5b0       ?end@?$deque@PEAVtask@tbb@@V?$tbb_allocator@PEAVtask@tbb@@@2@@std@@QEAA?AV?$_Deque_iterator@V?$_Deque_val@U?$_Deque_simple_types@PEAVtask@tbb@@@std@@@std@@@2@XZ 000000018003b5b0 f i arena.obj
 0001:0003a640       ?execute@?$function_task@Vspawn_functor@graph@interface10@flow@tbb@@@internal@tbb@@EEAAPEAVtask@3@XZ 000000018003b640 f i arena.obj
 0001:0003a680       ?execute@delegated_task@internal@interface7@tbb@@EEAAPEAVtask@4@XZ 000000018003b680 f i arena.obj
 0001:0003a770       ?execute@empty_task@tbb@@EEAAPEAVtask@2@XZ 000000018003b770 f i arena.obj
 0001:0003a780       ?execute@wait_task@internal@interface7@tbb@@EEAAPEAVtask@4@XZ 000000018003b780 f i arena.obj
 0001:0003a8b0       ?fetch_and_add@?$atomic_impl_with_arithmetic@_J_JD@internal@tbb@@QEAA_J_J@Z 000000018003b8b0 f i arena.obj
 0001:0003a8f0       ?free_task_pool@arena_slot@internal@tbb@@QEAAXXZ 000000018003b8f0 f i arena.obj
 0001:0003a980       ?get@FastRandom@internal@tbb@@QEAAGAEAI@Z 000000018003b980 f i arena.obj
 0001:0003aa10       ?get@FastRandom@internal@tbb@@QEAAGXZ 000000018003ba10 f i arena.obj
 0001:0003aa50       ?initialize@?$task_stream@$02@internal@tbb@@QEAAXI@Z 000000018003ba50 f i arena.obj
 0001:0003aca0       ?inlineCreateEventEx@@YAPEAXPEAU_SECURITY_ATTRIBUTES@@PEB_WKK@Z 000000018003bca0 f i arena.obj
 0001:0003ad40       ?is_bit_set@internal@tbb@@YA_N_KH@Z 000000018003bd40 f i arena.obj
 0001:0003adf0       ?is_busy_or_empty@arena@internal@tbb@@SA_N_K@Z 000000018003bdf0 f i arena.obj
 0001:0003ae30       ?is_idle_state@mail_inbox@internal@tbb@@QEBA_N_N@Z 000000018003be30 f i arena.obj
 0001:0003ae90       ?is_local_task_pool_quiescent@generic_scheduler@internal@tbb@@QEBA_NXZ 000000018003be90 f i arena.obj
 0001:0003af20       ?is_quiescent_local_task_pool_reset@generic_scheduler@internal@tbb@@QEBA_NXZ 000000018003bf20 f i arena.obj
 0001:0003afd0       ?is_recall_requested@arena@internal@tbb@@QEBA_NXZ 000000018003bfd0 f i arena.obj
 0001:0003b030       ?load_with_acquire@?$machine_load_store@PEAVgeneric_scheduler@internal@tbb@@$07@internal@tbb@@SAPEAVgeneric_scheduler@23@AEDSEAV423@@Z 000000018003c030 f i arena.obj
 0001:0003b070       ?load_with_acquire@?$machine_load_store@PEAVtask@tbb@@$07@internal@tbb@@SAPEAVtask@3@AEDSEAV43@@Z 000000018003c070 f i arena.obj
 0001:0003b0b0       ?mailbox@arena@internal@tbb@@QEAAAEAVmail_outbox@23@G@Z 000000018003c0b0 f i arena.obj
 0001:0003b160       ?max_size@?$_Normal_allocator_traits@V?$tbb_allocator@PEAVtask@tbb@@@tbb@@@std@@SA_KAEBV?$tbb_allocator@PEAVtask@tbb@@@tbb@@@Z 000000018003c160 f i arena.obj
 0001:0003b1a0       ?max_size@?$deque@PEAVtask@tbb@@V?$tbb_allocator@PEAVtask@tbb@@@2@@std@@QEBA_KXZ 000000018003c1a0 f i arena.obj
 0001:0003b1e0       ?max_size@?$tbb_allocator@PEAVtask@tbb@@@tbb@@QEBA_KXZ 000000018003c1e0 f i arena.obj
 0001:0003b240       ?may_have_tasks@arena@internal@tbb@@QEAA_NPEAVgeneric_scheduler@23@AEA_N1@Z 000000018003c240 f i arena.obj
 0001:0003b310       ?mimic_outermost_level@nested_arena_context@internal@tbb@@AEAAXPEAVarena@23@_N@Z 000000018003c310 f i arena.obj
 0001:0003b3e0       ?notify_entry_observers@observer_list@internal@tbb@@QEAAXAEAPEAVobserver_proxy@23@_N@Z 000000018003c3e0 f i arena.obj
 0001:0003b440       ?notify_exit_observers@observer_list@internal@tbb@@QEAAXAEAPEAVobserver_proxy@23@_N@Z 000000018003c440 f i arena.obj
 0001:0003b500       ?notify_one@concurrent_monitor@internal@tbb@@QEAAXXZ 000000018003c500 f i arena.obj
 0001:0003b540       ?num_arena_slots@arena@internal@tbb@@SAII@Z 000000018003c540 f i arena.obj
 0001:0003b580       ?numa_id@task_arena_base@internal@interface7@tbb@@IEAAHXZ 000000018003c580 f i arena.obj
 0001:0003b5d0       ?observe@task_scheduler_observer@interface6@tbb@@QEAAX_N@Z 000000018003c5d0 f i arena.obj
 0001:0003b670       ?on_scheduler_entry@numa_binding_observer@internal@tbb@@UEAAX_N@Z 000000018003c670 f i arena.obj
 0001:0003b6c0       ?on_scheduler_entry@task_scheduler_observer_v3@internal@tbb@@UEAAX_N@Z 000000018003c6c0 f i arena.obj
 0001:0003b6d0       ?on_scheduler_exit@numa_binding_observer@internal@tbb@@UEAAX_N@Z 000000018003c6d0 f i arena.obj
 0001:0003b710       ?on_scheduler_exit@task_scheduler_observer_v3@internal@tbb@@UEAAX_N@Z 000000018003c710 f i arena.obj
 0001:0003b720       ?pop_back@?$deque@PEAVtask@tbb@@V?$tbb_allocator@PEAVtask@tbb@@@2@@std@@QEAAXXZ 000000018003c720 f i arena.obj
 0001:0003b8c0       ?prefix@auto_empty_task@internal@tbb@@QEAAAEAVtask_prefix@23@XZ 000000018003c8c0 f i arena.obj
 0001:0003b900       ?push@?$task_stream@$02@internal@tbb@@QEAAXPEAVtask@3@HAEAVFastRandom@23@@Z 000000018003c900 f i arena.obj
 0001:0003ba20       ?push_back@?$deque@PEAVtask@tbb@@V?$tbb_allocator@PEAVtask@tbb@@@2@@std@@QEAAXAEBQEAVtask@tbb@@@Z 000000018003ca20 f i arena.obj
 0001:0003bc60       ?ref_count@task@tbb@@QEBAHXZ 000000018003cc60 f i arena.obj
 0001:0003bce0       ?restore_default@?$context_guard_helper@$0A@@internal@tbb@@QEAAXXZ 000000018003cce0 f i arena.obj
 0001:0003bd50       ?rethrow_exception@std@@YAXVexception_ptr@1@@Z 000000018003cd50 f i arena.obj
 0001:0003bda0       ?rethrow_exception_broken@governor@internal@tbb@@SA_NXZ 000000018003cda0 f i arena.obj
 0001:0003bdb0       ?set_ctx@?$context_guard_helper@$0A@@internal@tbb@@QEAAXPEBVtask_group_context@3@@Z 000000018003cdb0 f i arena.obj
 0001:0003be90       ?set_env@cpu_ctl_env@internal@tbb@@QEBAXXZ 000000018003ce90 f i arena.obj
 0001:0003bec0       ?set_is_idle@mail_inbox@internal@tbb@@QEAAX_N@Z 000000018003cec0 f i arena.obj
 0001:0003bf40       ?set_one_bit@internal@tbb@@YAXAEA_KH@Z 000000018003cf40 f i arena.obj
 0001:0003bfe0       ?store_with_release@?$atomic_impl@PEAVtask_group_context@tbb@@@internal@tbb@@IEAAPEAVtask_group_context@3@PEAV43@@Z 000000018003cfe0 f i arena.obj
 0001:0003c040       ?store_with_release@?$machine_load_store@PEAVgeneric_scheduler@internal@tbb@@$07@internal@tbb@@SAXAECREAVgeneric_scheduler@23@PEAV423@@Z 000000018003d040 f i arena.obj
 0001:0003c060       ?throw_self@tbb_exception_ptr@internal@tbb@@QEAAXXZ 000000018003d060 f i arena.obj
 0001:0003c0b0       ?update_task_node_count@market@internal@tbb@@QEAAX_J@Z 000000018003d0b0 f i arena.obj
 0001:0003c100       ?worker_outermost_level@generic_scheduler@internal@tbb@@QEBA_NXZ 000000018003d100 f i arena.obj
 0001:0003c2c0       ??1scheduler@internal@tbb@@UEAA@XZ 000000018003d2c0 f   scheduler.obj
 0001:0003c2e0       ?init_stack_info@generic_scheduler@internal@tbb@@QEAAXXZ 000000018003d2e0 f   scheduler.obj
 0001:0003c420       ?get_mailbox_task@generic_scheduler@internal@tbb@@QEAAPEAVtask@3@_J@Z 000000018003d420 f   scheduler.obj
 0001:0003c530       ?steal_task@generic_scheduler@internal@tbb@@QEAAPEAVtask@3@_J@Z 000000018003d530 f   scheduler.obj
 0001:0003c6f0       ?steal_task_from@generic_scheduler@internal@tbb@@QEAAPEAVtask@3@AEAUarena_slot@23@_J@Z 000000018003d6f0 f   scheduler.obj
 0001:0003c9e0       ?create_master@generic_scheduler@internal@tbb@@SAPEAV123@PEAVarena@23@@Z 000000018003d9e0 f   scheduler.obj
 0001:0003cca0       ?cleanup_master@generic_scheduler@internal@tbb@@QEAA_N_N@Z 000000018003dca0 f   scheduler.obj
 0001:0003d050       ?create_worker@generic_scheduler@internal@tbb@@SAPEAV123@AEAVmarket@23@_K_N@Z 000000018003e050 f   scheduler.obj
 0001:0003d130       ?cleanup_worker@generic_scheduler@internal@tbb@@SAXPEAX_N@Z 000000018003e130 f   scheduler.obj
 0001:0003d1d0       ??0generic_scheduler@internal@tbb@@IEAA@AEAVmarket@12@_N@Z 000000018003e1d0 f   scheduler.obj
 0001:0003d480       ?spawn@generic_scheduler@internal@tbb@@UEAAXAEAVtask@3@AEAPEAV43@@Z 000000018003e480 f   scheduler.obj
 0001:0003d4d0       ?spawn_root_and_wait@generic_scheduler@internal@tbb@@UEAAXAEAVtask@3@AEAPEAV43@@Z 000000018003e4d0 f   scheduler.obj
 0001:0003d520       ?enqueue@generic_scheduler@internal@tbb@@UEAAXAEAVtask@3@PEAX@Z 000000018003e520 f   scheduler.obj
 0001:0003d5c0       ?local_spawn@generic_scheduler@internal@tbb@@QEAAXPEAVtask@3@AEAPEAV43@@Z 000000018003e5c0 f   scheduler.obj
 0001:0003d910       ?local_spawn_root_and_wait@generic_scheduler@internal@tbb@@QEAAXPEAVtask@3@AEAPEAV43@@Z 000000018003e910 f   scheduler.obj
 0001:0003db80       ?destroy@generic_scheduler@internal@tbb@@QEAAXXZ 000000018003eb80 f   scheduler.obj
 0001:0003dc10       ?cleanup_scheduler@generic_scheduler@internal@tbb@@QEAAXXZ 000000018003ec10 f   scheduler.obj
 0001:0003ddd0       ?allocate_task@generic_scheduler@internal@tbb@@QEAAAEAVtask@3@_KPEAV43@PEAVtask_group_context@3@@Z 000000018003edd0 f   scheduler.obj
 0001:0003e0a0       ?free_nonlocal_small_task@generic_scheduler@internal@tbb@@QEAAXAEAVtask@3@@Z 000000018003f0a0 f   scheduler.obj
 0001:0003e200       ?reload_tasks@generic_scheduler@internal@tbb@@QEAAPEAVtask@3@_J@Z 000000018003f200 f   scheduler.obj
 0001:0003e400       ?reload_tasks@generic_scheduler@internal@tbb@@QEAAPEAVtask@3@AEAPEAV43@AEAPEAPEAV43@_J2@Z 000000018003f400 f   scheduler.obj
 0001:0003e7f0       ?winnow_task_pool@generic_scheduler@internal@tbb@@QEAAPEAVtask@3@_J@Z 000000018003f7f0 f   scheduler.obj
 0001:0003ea90       ?get_task_and_activate_task_pool@generic_scheduler@internal@tbb@@QEAAPEAVtask@3@_K0_J@Z 000000018003fa90 f   scheduler.obj
 0001:0003ed10       ?cleanup_local_context_list@generic_scheduler@internal@tbb@@QEAAXXZ 000000018003fd10 f   scheduler.obj
 0001:0003ef00       ?Scheduler_OneTimeInitialization@internal@tbb@@YAX_N@Z 000000018003ff00 f   scheduler.obj
 0001:0003ef90       ??$__TBB_load_relaxed@PEAUtask_proxy@internal@tbb@@@internal@tbb@@YAPEAUtask_proxy@01@AEDSEAU201@@Z 000000018003ff90 f i scheduler.obj
 0001:0003efc0       ??$__TBB_store_relaxed@PEAPEAVtask@tbb@@PEAPEAV12@@internal@tbb@@YAXAECREAPEAVtask@1@PEAPEAV21@@Z 000000018003ffc0 f i scheduler.obj
 0001:0003f000       ??$__TBB_store_relaxed@PEAUtask_proxy@internal@tbb@@PEAU123@@internal@tbb@@YAXAECREAUtask_proxy@01@PEAU201@@Z 0000000180040000 f i scheduler.obj
 0001:0003f040       ??$__TBB_store_with_release@PEAPEAVtask@tbb@@PEAPEAV12@@internal@tbb@@YAXAECREAPEAVtask@1@PEAPEAV21@@Z 0000000180040040 f i scheduler.obj
 0001:0003f080       ??$advertise_new_work@$00@arena@internal@tbb@@QEAAXXZ 0000000180040080 f i scheduler.obj
 0001:0003f380       ??$advertise_new_work@$0A@@arena@internal@tbb@@QEAAXXZ 0000000180040380 f i scheduler.obj
 0001:0003f680       ??$as_atomic@PEAPEAUtask_proxy@internal@tbb@@@internal@tbb@@YAAEAU?$atomic@PEAPEAUtask_proxy@internal@tbb@@@1@AEAPEAPEAUtask_proxy@01@@Z 0000000180040680 f i scheduler.obj
 0001:0003f690       ??$as_atomic@PEAPEAVtask@tbb@@@internal@tbb@@YAAEAU?$atomic@PEAPEAVtask@tbb@@@1@AEAPEAPEAVtask@1@@Z 0000000180040690 f i scheduler.obj
 0001:0003f6a0       ??$as_atomic@_J@internal@tbb@@YAAEAU?$atomic@_J@1@AEA_J@Z 00000001800406a0 f i scheduler.obj
 0001:0003f6b0       ??$compare_and_swap@$0A@@?$atomic_impl@PEAPEAUtask_proxy@internal@tbb@@@internal@tbb@@QEAAPEAPEAUtask_proxy@12@PEAPEAU312@0@Z 00000001800406b0 f i scheduler.obj
 0001:0003f720       ??$compare_and_swap@$0A@@?$atomic_impl@PEAPEAVtask@tbb@@@internal@tbb@@QEAAPEAPEAVtask@2@PEAPEAV32@0@Z 0000000180040720 f i scheduler.obj
 0001:0003f790       ??$extract_task@$00@task_proxy@internal@tbb@@QEAAPEAVtask@2@XZ 0000000180040790 f i scheduler.obj
 0001:0003f8c0       ??$extract_task@$01@task_proxy@internal@tbb@@QEAAPEAVtask@2@XZ 00000001800408c0 f i scheduler.obj
 0001:0003f9f0       ??$free_task@$01@generic_scheduler@internal@tbb@@QEAAXAEAVtask@2@@Z 00000001800409f0 f i scheduler.obj
 0001:0003fbc0       ??$free_task@$05@generic_scheduler@internal@tbb@@QEAAXAEAVtask@2@@Z 0000000180040bc0 f i scheduler.obj
 0001:0003fd90       ??$free_task@$0A@@generic_scheduler@internal@tbb@@QEAAXAEAVtask@2@@Z 0000000180040d90 f i scheduler.obj
 0001:0003ff50       ??$init@_K@FastRandom@internal@tbb@@QEAAX_K@Z 0000000180040f50 f i scheduler.obj
 0001:0003ff90       ??$is_poisoned@Vtask@tbb@@@internal@tbb@@YA_NPEAVtask@1@@Z 0000000180040f90 f i scheduler.obj
 0001:0003ffd0       ??$poison_pointer@Vtask_group_context@tbb@@@internal@tbb@@YAXAEAPEAVtask_group_context@1@@Z 0000000180040fd0 f i scheduler.obj
 0001:0003fff0       ??$suppress_unused_warning@_N@internal@tbb@@YAXAEB_N@Z 0000000180040ff0 f i scheduler.obj
 0001:00040000       ??$to_bits@PEAPEAUtask_proxy@internal@tbb@@@?$atomic_impl@PEAPEAUtask_proxy@internal@tbb@@@internal@tbb@@SA_JPEAPEAUtask_proxy@12@@Z 0000000180041000 f i scheduler.obj
 0001:00040040       ??$to_bits@PEAPEAVtask@tbb@@@?$atomic_impl@PEAPEAVtask@tbb@@@internal@tbb@@SA_JPEAPEAVtask@2@@Z 0000000180041040 f i scheduler.obj
 0001:00040080       ??$to_value@PEAPEAUtask_proxy@internal@tbb@@@?$atomic_impl@PEAPEAUtask_proxy@internal@tbb@@@internal@tbb@@SAPEAPEAUtask_proxy@12@_J@Z 0000000180041080 f i scheduler.obj
 0001:000400e0       ??$to_value@PEAPEAVtask@tbb@@@?$atomic_impl@PEAPEAVtask@tbb@@@internal@tbb@@SAPEAPEAVtask@2@_J@Z 00000001800410e0 f i scheduler.obj
 0001:00040140       ??0?$context_guard_helper@$00@internal@tbb@@QEAA@XZ 0000000180041140 f i scheduler.obj
 0001:000401a0       ??0?$converter@PEAPEAUtask_proxy@internal@tbb@@@?$atomic_impl@PEAPEAUtask_proxy@internal@tbb@@@internal@tbb@@QEAA@PEAPEAUtask_proxy@23@@Z 00000001800411a0 f i scheduler.obj
 0001:000401c0       ??0?$converter@PEAPEAUtask_proxy@internal@tbb@@@?$atomic_impl@PEAPEAUtask_proxy@internal@tbb@@@internal@tbb@@QEAA@XZ 00000001800411c0 f i scheduler.obj
 0001:000401d0       ??0?$converter@PEAPEAVtask@tbb@@@?$atomic_impl@PEAPEAVtask@tbb@@@internal@tbb@@QEAA@PEAPEAVtask@3@@Z 00000001800411d0 f i scheduler.obj
 0001:000401f0       ??0?$converter@PEAPEAVtask@tbb@@@?$atomic_impl@PEAPEAVtask@tbb@@@internal@tbb@@QEAA@XZ 00000001800411f0 f i scheduler.obj
 0001:00040200       ??0?$custom_scheduler@UDefaultSchedulerTraits@internal@tbb@@@internal@tbb@@AEAA@AEAVmarket@12@_N@Z 0000000180041200 f i scheduler.obj
 0001:00040260       ??0?$custom_scheduler@UIntelSchedulerTraits@internal@tbb@@@internal@tbb@@AEAA@AEAVmarket@12@_N@Z 0000000180041260 f i scheduler.obj
 0001:000402c0       ??0?$fast_reverse_vector@PEAVtask@tbb@@$0BA@@internal@tbb@@QEAA@PEAPEAVtask@2@_K@Z 00000001800412c0 f i scheduler.obj
 0001:00040370       ??0FastRandom@internal@tbb@@QEAA@PEAX@Z 0000000180041370 f i scheduler.obj
 0001:000403b0       ??0auto_indicator@internal@tbb@@QEAA@AEC_N@Z 00000001800413b0 f i scheduler.obj
 0001:000403e0       ??0scheduler@internal@tbb@@QEAA@XZ 00000001800413e0 f i scheduler.obj
 0001:00040400       ??1?$context_guard_helper@$00@internal@tbb@@QEAA@XZ 0000000180041400 f i scheduler.obj
 0001:00040480       ??1?$custom_scheduler@UDefaultSchedulerTraits@internal@tbb@@@internal@tbb@@UEAA@XZ 0000000180041480 f i scheduler.obj
 0001:000404b0       ??1?$custom_scheduler@UIntelSchedulerTraits@internal@tbb@@@internal@tbb@@UEAA@XZ 00000001800414b0 f i scheduler.obj
 0001:000404e0       ??1?$fast_reverse_vector@PEAVtask@tbb@@$0BA@@internal@tbb@@QEAA@XZ 00000001800414e0 f i scheduler.obj
 0001:00040550       ??1auto_indicator@internal@tbb@@QEAA@XZ 0000000180041550 f i scheduler.obj
 0001:00040570       ??1generic_scheduler@internal@tbb@@UEAA@XZ 0000000180041570 f i scheduler.obj
 0001:000405a0       ??_E?$custom_scheduler@UDefaultSchedulerTraits@internal@tbb@@@internal@tbb@@UEAAPEAXI@Z 00000001800415a0 f i scheduler.obj
 0001:000405a0       ??_G?$custom_scheduler@UDefaultSchedulerTraits@internal@tbb@@@internal@tbb@@UEAAPEAXI@Z 00000001800415a0 f i scheduler.obj
 0001:00040600       ??_G?$custom_scheduler@UIntelSchedulerTraits@internal@tbb@@@internal@tbb@@UEAAPEAXI@Z 0000000180041600 f i scheduler.obj
 0001:00040600       ??_E?$custom_scheduler@UIntelSchedulerTraits@internal@tbb@@@internal@tbb@@UEAAPEAXI@Z 0000000180041600 f i scheduler.obj
 0001:00040660       ??_Ggeneric_scheduler@internal@tbb@@UEAAPEAXI@Z 0000000180041660 f i scheduler.obj
 0001:00040660       ??_Egeneric_scheduler@internal@tbb@@UEAAPEAXI@Z 0000000180041660 f i scheduler.obj
 0001:000406c0       ?CancellationInfoPresent@internal@tbb@@YA_NAEAVtask@2@@Z 00000001800416c0 f i scheduler.obj
 0001:00040720       ?ConcurrentWaitsEnabled@internal@tbb@@YA_NAEAVtask@2@@Z 0000000180041720 f i scheduler.obj
 0001:00040780       ?acquire_task_pool@generic_scheduler@internal@tbb@@QEBAXXZ 0000000180041780 f i scheduler.obj
 0001:00040960       ?allocate_scheduler@?$custom_scheduler@UDefaultSchedulerTraits@internal@tbb@@@internal@tbb@@SAPEAVgeneric_scheduler@23@AEAVmarket@23@_N@Z 0000000180041960 f i scheduler.obj
 0001:00040a20       ?allocate_scheduler@?$custom_scheduler@UIntelSchedulerTraits@internal@tbb@@@internal@tbb@@SAPEAVgeneric_scheduler@23@AEAVmarket@23@_N@Z 0000000180041a20 f i scheduler.obj
 0001:00040ae0       ?allocate_scheduler@internal@tbb@@YAPEAVgeneric_scheduler@12@AEAVmarket@12@_N@Z 0000000180041ae0 f i scheduler.obj
 0001:00040b20       ?allocate_task_pool@arena_slot@internal@tbb@@QEAAX_K@Z 0000000180041b20 f i scheduler.obj
 0001:00040bc0       ?assert_ok@?$intrusive_list_base@V?$intrusive_list@Vgeneric_scheduler@internal@tbb@@@internal@tbb@@Vgeneric_scheduler@23@@internal@tbb@@AEBAXXZ 0000000180041bc0 f i scheduler.obj
 0001:00040c40       ?bounded_pause@atomic_backoff@internal@tbb@@QEAA_NXZ 0000000180041c40 f i scheduler.obj
 0001:00040ca0       ?can_steal@generic_scheduler@internal@tbb@@QEAA_NXZ 0000000180041ca0 f i scheduler.obj
 0001:00040cf0       ?commit_relocated_tasks@generic_scheduler@internal@tbb@@QEAAX_K@Z 0000000180041cf0 f i scheduler.obj
 0001:00040d90       ?commit_spawned_tasks@generic_scheduler@internal@tbb@@QEAAX_K@Z 0000000180041d90 f i scheduler.obj
 0001:00040e30       ?compare_and_swap@?$atomic_impl@PEAPEAUtask_proxy@internal@tbb@@@internal@tbb@@QEAAPEAPEAUtask_proxy@23@PEAPEAU423@0@Z 0000000180041e30 f i scheduler.obj
 0001:00040e80       ?compare_and_swap@?$atomic_impl@PEAPEAVtask@tbb@@@internal@tbb@@QEAAPEAPEAVtask@3@PEAPEAV43@0@Z 0000000180041e80 f i scheduler.obj
 0001:00040ed0       ?copy_memory@?$fast_reverse_vector@PEAVtask@tbb@@$0BA@@internal@tbb@@QEBAXPEAPEAVtask@3@@Z 0000000180041ed0 f i scheduler.obj
 0001:00040fe0       ?effective_reference_priority@generic_scheduler@internal@tbb@@QEBA_JXZ 0000000180041fe0 f i scheduler.obj
 0001:00041070       ?empty@mail_inbox@internal@tbb@@QEAA_NXZ 0000000180042070 f i scheduler.obj
 0001:000410b0       ?empty@mail_outbox@internal@tbb@@QEAA_NXZ 00000001800420b0 f i scheduler.obj
 0001:00041100       ?fill_with_canary_pattern@arena_slot@internal@tbb@@QEAAX_K0@Z 0000000180042100 f i scheduler.obj
 0001:00041180       ?front@?$deque@PEAVtask@tbb@@V?$tbb_allocator@PEAVtask@tbb@@@2@@std@@QEAAAEAPEAVtask@tbb@@XZ 0000000180042180 f i scheduler.obj
 0001:000411f0       ?get_task@generic_scheduler@internal@tbb@@QEAAPEAVtask@3@_J@Z 00000001800421f0 f i scheduler.obj
 0001:00041760       ?get_task@generic_scheduler@internal@tbb@@QEAAPEAVtask@3@_K_JAEA_N@Z 0000000180042760 f i scheduler.obj
 0001:000419b0       ?init@FastRandom@internal@tbb@@QEAAXIU?$int_to_type@$03@23@@Z 00000001800429b0 f i scheduler.obj
 0001:000419f0       ?init@FastRandom@internal@tbb@@QEAAX_KU?$int_to_type@$07@23@@Z 00000001800429f0 f i scheduler.obj
 0001:00041a40       ?internal_pop@mail_outbox@internal@tbb@@AEAAPEAUtask_proxy@23@_J@Z 0000000180042a40 f i scheduler.obj
 0001:00041c00       ?is_enqueued_task@task@tbb@@QEBA_NXZ 0000000180042c00 f i scheduler.obj
 0001:00041c60       ?is_proxy@generic_scheduler@internal@tbb@@SA_NAEBVtask@3@@Z 0000000180042c60 f i scheduler.obj
 0001:00041cb0       ?is_quiescent_local_task_pool_empty@generic_scheduler@internal@tbb@@QEBA_NXZ 0000000180042cb0 f i scheduler.obj
 0001:00041d60       ?is_shared@task_proxy@internal@tbb@@SA_N_J@Z 0000000180042d60 f i scheduler.obj
 0001:00041db0       ?is_task_pool_published@generic_scheduler@internal@tbb@@QEBA_NXZ 0000000180042db0 f i scheduler.obj
 0001:00041e30       ?is_version_3_task@generic_scheduler@internal@tbb@@SA_NAEAVtask@3@@Z 0000000180042e30 f i scheduler.obj
 0001:00041e90       ?leave_task_pool@generic_scheduler@internal@tbb@@QEAAXXZ 0000000180042e90 f i scheduler.obj
 0001:00041fe0       ?load@?$machine_load_store_relaxed@PEAUtask_proxy@internal@tbb@@$07@internal@tbb@@SAPEAUtask_proxy@23@AEDSEAU423@@Z 0000000180042fe0 f i scheduler.obj
 0001:00041ff0       ?local_wait_for_all@?$custom_scheduler@UDefaultSchedulerTraits@internal@tbb@@@internal@tbb@@EEAAXAEAVtask@3@PEAV43@@Z 0000000180042ff0 f i scheduler.obj
 0001:00042bc0       ?local_wait_for_all@?$custom_scheduler@UIntelSchedulerTraits@internal@tbb@@@internal@tbb@@EEAAXAEAVtask@3@PEAV43@@Z 0000000180043bc0 f i scheduler.obj
 0001:00043790       ?lock_task_pool@generic_scheduler@internal@tbb@@QEBAPEAPEAVtask@3@PEAUarena_slot@23@@Z 0000000180044790 f i scheduler.obj
 0001:000438e0       ?node@?$intrusive_list@Vgeneric_scheduler@internal@tbb@@@internal@tbb@@CAAEAUintrusive_list_node@23@AEAVgeneric_scheduler@23@@Z 00000001800448e0 f i scheduler.obj
 0001:00043900       ?node@?$intrusive_list_base@V?$intrusive_list@Vgeneric_scheduler@internal@tbb@@@internal@tbb@@Vgeneric_scheduler@23@@internal@tbb@@CAAEAUintrusive_list_node@23@AEAVgeneric_scheduler@23@@Z 0000000180044900 f i scheduler.obj
 0001:00043930       ?offload_task@generic_scheduler@internal@tbb@@QEAAXAEAVtask@3@_J@Z 0000000180044930 f i scheduler.obj
 0001:00043a10       ?outbox@mail_inbox@internal@tbb@@QEBAPEAXXZ 0000000180044a10 f i scheduler.obj
 0001:00043a20       ?plugged_return_list@generic_scheduler@internal@tbb@@SAPEAVtask@3@XZ 0000000180044a20 f i scheduler.obj
 0001:00043a30       ?pop@?$task_stream@$02@internal@tbb@@QEAAPEAVtask@3@HAEAI@Z 0000000180044a30 f i scheduler.obj
 0001:00043bf0       ?pop@mail_inbox@internal@tbb@@QEAAPEAUtask_proxy@23@_J@Z 0000000180044bf0 f i scheduler.obj
 0001:00043c30       ?pop_front@?$deque@PEAVtask@tbb@@V?$tbb_allocator@PEAVtask@tbb@@@2@@std@@QEAAXXZ 0000000180044c30 f i scheduler.obj
 0001:00043dd0       ?prepare_for_spawning@generic_scheduler@internal@tbb@@QEAAPEAVtask@3@PEAV43@@Z 0000000180044dd0 f i scheduler.obj
 0001:00044040       ?prepare_task_pool@generic_scheduler@internal@tbb@@QEAA_K_K@Z 0000000180045040 f i scheduler.obj
 0001:000443c0       ?priority@internal@tbb@@YAAEA_JAEAVtask@2@@Z 00000001800453c0 f i scheduler.obj
 0001:00044400       ?process_bypass_loop@?$custom_scheduler@UDefaultSchedulerTraits@internal@tbb@@@internal@tbb@@AEAA_NAEAV?$context_guard_helper@$00@23@PEAVtask@3@_J@Z 0000000180045400 f i scheduler.obj
 0001:00044c00       ?process_bypass_loop@?$custom_scheduler@UIntelSchedulerTraits@internal@tbb@@@internal@tbb@@AEAA_NAEAV?$context_guard_helper@$0A@@23@PEAVtask@3@_J@Z 0000000180045c00 f i scheduler.obj
 0001:00045400       ?prolonged_pause@internal@tbb@@YAXXZ 0000000180046400 f i scheduler.obj
 0001:00045490       ?publish_task_pool@generic_scheduler@internal@tbb@@QEAAXXZ 0000000180046490 f i scheduler.obj
 0001:00045630       ?push@mail_outbox@internal@tbb@@QEAAXPEAUtask_proxy@23@@Z 0000000180046630 f i scheduler.obj
 0001:000456c0       ?push_back@?$fast_reverse_vector@PEAVtask@tbb@@$0BA@@internal@tbb@@QEAAXAEBQEAVtask@3@@Z 00000001800466c0 f i scheduler.obj
 0001:00045850       ?push_front@?$intrusive_list_base@V?$intrusive_list@Vgeneric_scheduler@internal@tbb@@@internal@tbb@@Vgeneric_scheduler@23@@internal@tbb@@QEAAXAEAVgeneric_scheduler@23@@Z 0000000180046850 f i scheduler.obj
 0001:00045960       ?receive_or_steal_task@?$custom_scheduler@UDefaultSchedulerTraits@internal@tbb@@@internal@tbb@@UEAAPEAVtask@3@AEA_J_J@Z 0000000180046960 f i scheduler.obj
 0001:00046410       ?receive_or_steal_task@?$custom_scheduler@UIntelSchedulerTraits@internal@tbb@@@internal@tbb@@UEAAPEAVtask@3@AEA_J_J@Z 0000000180047410 f i scheduler.obj
 0001:00046ea0       ?recipient_is_idle@mail_outbox@internal@tbb@@QEAA_NXZ 0000000180047ea0 f i scheduler.obj
 0001:00046ec0       ?register_master@market@internal@tbb@@QEAAXAEAPEAX@Z 0000000180047ec0 f i scheduler.obj
 0001:00046f40       ?release_task_pool@generic_scheduler@internal@tbb@@QEBAXXZ 0000000180047f40 f i scheduler.obj
 0001:00047020       ?remove@?$intrusive_list_base@V?$intrusive_list@Vgeneric_scheduler@internal@tbb@@@internal@tbb@@Vgeneric_scheduler@23@@internal@tbb@@QEAAXAEAVgeneric_scheduler@23@@Z 0000000180048020 f i scheduler.obj
 0001:000471d0       ?reset_extra_state@internal@tbb@@YAXPEAVtask@2@@Z 00000001800481d0 f i scheduler.obj
 0001:00047220       ?reset_task_pool_and_leave@generic_scheduler@internal@tbb@@QEAAXXZ 0000000180048220 f i scheduler.obj
 0001:000472b0       ?restore_default@?$context_guard_helper@$00@internal@tbb@@QEAAXXZ 00000001800482b0 f i scheduler.obj
 0001:00047320       ?set_ctx@?$context_guard_helper@$00@internal@tbb@@QEAAXPEBVtask_group_context@3@@Z 0000000180048320 f i scheduler.obj
 0001:00047410       ?size@?$fast_reverse_vector@PEAVtask@tbb@@$0BA@@internal@tbb@@QEBA_KXZ 0000000180048410 f i scheduler.obj
 0001:00047440       ?store@?$machine_load_store_relaxed@PEAPEAVtask@tbb@@$07@internal@tbb@@SAXAECREAPEAVtask@3@PEAPEAV43@@Z 0000000180048440 f i scheduler.obj
 0001:00047460       ?store@?$machine_load_store_relaxed@PEAUtask_proxy@internal@tbb@@$07@internal@tbb@@SAXAECREAUtask_proxy@23@PEAU423@@Z 0000000180048460 f i scheduler.obj
 0001:00047480       ?store_with_release@?$machine_load_store@PEAPEAVtask@tbb@@$07@internal@tbb@@SAXAECREAPEAVtask@3@PEAPEAV43@@Z 0000000180048480 f i scheduler.obj
 0001:000474a0       ?tally_completion_of_predecessor@?$custom_scheduler@UDefaultSchedulerTraits@internal@tbb@@@internal@tbb@@AEAAXAEAVtask@3@AEAPEAV43@_J@Z 00000001800484a0 f i scheduler.obj
 0001:000476a0       ?tally_completion_of_predecessor@?$custom_scheduler@UIntelSchedulerTraits@internal@tbb@@@internal@tbb@@AEAAXAEAVtask@3@AEAPEAV43@_J@Z 00000001800486a0 f i scheduler.obj
 0001:000478a0       ?task_ptr@task_proxy@internal@tbb@@SAPEAVtask@3@_J@Z 00000001800488a0 f i scheduler.obj
 0001:000478c0       ?unlock_task_pool@generic_scheduler@internal@tbb@@QEBAXPEAUarena_slot@23@PEAPEAVtask@3@@Z 00000001800488c0 f i scheduler.obj
 0001:00047980       ?unregister_master@market@internal@tbb@@QEBAXAEAPEAX@Z 0000000180048980 f i scheduler.obj
 0001:000479d0       ?wait_for_all@?$custom_scheduler@UDefaultSchedulerTraits@internal@tbb@@@internal@tbb@@EEAAXAEAVtask@3@PEAV43@@Z 00000001800489d0 f i scheduler.obj
 0001:00047a20       ?wait_for_all@?$custom_scheduler@UIntelSchedulerTraits@internal@tbb@@@internal@tbb@@EEAAXAEAVtask@3@PEAV43@@Z 0000000180048a20 f i scheduler.obj
 0001:00047a70       NtCurrentTeb               0000000180048a70 f i scheduler.obj
 0001:00047b60       ?observe@task_scheduler_observer_v3@internal@tbb@@QEAAX_N@Z 0000000180048b60 f   observer_proxy.obj
 0001:00048090       ?do_notify_entry_observers@observer_list@internal@tbb@@AEAAXAEAPEAVobserver_proxy@23@_N@Z 0000000180049090 f   observer_proxy.obj
 0001:000483b0       ?do_notify_exit_observers@observer_list@internal@tbb@@AEAAXPEAVobserver_proxy@23@_N@Z 00000001800493b0 f   observer_proxy.obj
 0001:00048690       ?clear@observer_list@internal@tbb@@QEAAXXZ 0000000180049690 f   observer_proxy.obj
 0001:00048930       ?insert@observer_list@internal@tbb@@QEAAXPEAVobserver_proxy@23@@Z 0000000180049930 f   observer_proxy.obj
 0001:000489e0       ?remove@observer_list@internal@tbb@@QEAAXPEAVobserver_proxy@23@@Z 00000001800499e0 f   observer_proxy.obj
 0001:00048bd0       ?remove_ref@observer_list@internal@tbb@@QEAAXPEAVobserver_proxy@23@@Z 0000000180049bd0 f   observer_proxy.obj
 0001:00048dc0       ?get_v6_observer@observer_proxy@internal@tbb@@AEAAPEAVtask_scheduler_observer@interface6@3@XZ 0000000180049dc0 f   observer_proxy.obj
 0001:00048df0       ?is_global@observer_proxy@internal@tbb@@AEAA_NXZ 0000000180049df0 f   observer_proxy.obj
 0001:00048e60       ??0observer_proxy@internal@tbb@@AEAA@AEAVtask_scheduler_observer_v3@12@@Z 0000000180049e60 f   observer_proxy.obj
 0001:00048f70       ??1observer_proxy@internal@tbb@@AEAA@XZ 0000000180049f70 f   observer_proxy.obj
 0001:00049010       ??$fetch_and_store@$01@?$atomic_impl@_N@internal@tbb@@QEAA_N_N@Z 000000018004a010 f i observer_proxy.obj
 0001:00049060       ??$load@$02@?$atomic_impl@_J@internal@tbb@@QEBA_JXZ 000000018004a060 f i observer_proxy.obj
 0001:000490b0       ??$load@$02_J@tbb@@YA_JAEBU?$atomic@_J@0@@Z 000000018004a0b0 f i observer_proxy.obj
 0001:000490e0       ??$poison_pointer@Vobserver_proxy@internal@tbb@@@internal@tbb@@YAXAEAPEAVobserver_proxy@01@@Z 000000018004a0e0 f i observer_proxy.obj
 0001:00049100       ??$poison_value@U?$atomic@H@tbb@@@internal@tbb@@YAXAEAU?$atomic@H@1@@Z 000000018004a100 f i observer_proxy.obj
 0001:00049140       ??$punned_cast@PEAU?$atomic@H@tbb@@$$CB_K@internal@tbb@@YAPEAU?$atomic@H@1@PEB_K@Z 000000018004a140 f i observer_proxy.obj
 0001:00049180       ??$punned_cast@PEAVspin_rw_mutex_v3@tbb@@$$CBV?$aligned_space@Vspin_rw_mutex_v3@tbb@@$00@2@@internal@tbb@@YAPEAVspin_rw_mutex_v3@1@PEBV?$aligned_space@Vspin_rw_mutex_v3@tbb@@$00@1@@Z 000000018004a180 f i observer_proxy.obj
 0001:000491c0       ??$to_bits@H@?$atomic_impl@H@internal@tbb@@SAHH@Z 000000018004a1c0 f i observer_proxy.obj
 0001:00049200       ??$to_bits_ref@$$CB_J@?$atomic_impl@_J@internal@tbb@@SAAEA_JAEB_J@Z 000000018004a200 f i observer_proxy.obj
 0001:00049240       ??$to_bits_ref@H@?$atomic_impl@H@internal@tbb@@SAAEAHAEAH@Z 000000018004a240 f i observer_proxy.obj
 0001:00049280       ??0?$padded@Vobserver_list@internal@tbb@@$0IA@@internal@tbb@@QEAA@XZ 000000018004a280 f i observer_proxy.obj
 0001:000492c0       ??0?$padded_base@Vobserver_list@internal@tbb@@$0IA@$0CA@@internal@tbb@@QEAA@XZ 000000018004a2c0 f i observer_proxy.obj
 0001:00049300       ??0?$ptr_converter@PEB_J@?$atomic_impl@_J@internal@tbb@@QEAA@PEB_J@Z 000000018004a300 f i observer_proxy.obj
 0001:00049320       ??1check_observer_proxy_count@internal@tbb@@QEAA@XZ 000000018004a320 f i observer_proxy.obj
 0001:00049380       ??4?$atomic@H@tbb@@QEAAAEAU01@AEBU01@@Z 000000018004a380 f i observer_proxy.obj
 0001:000493d0       ??4?$atomic@_J@tbb@@QEAA_J_J@Z 000000018004a3d0 f i observer_proxy.obj
 0001:00049410       ??E?$atomic_impl_with_arithmetic@_J_JD@internal@tbb@@QEAA_JXZ 000000018004a410 f i observer_proxy.obj
 0001:00049450       ??F?$atomic_impl_with_arithmetic@_J_JD@internal@tbb@@QEAA_JXZ 000000018004a450 f i observer_proxy.obj
 0001:00049490       ??_Gobserver_proxy@internal@tbb@@AEAAPEAXI@Z 000000018004a490 f i observer_proxy.obj
 0001:000494f0       ?begin@?$aligned_space@Vspin_rw_mutex_v3@tbb@@$00@tbb@@QEBAPEAVspin_rw_mutex_v3@2@XZ 000000018004a4f0 f i observer_proxy.obj
 0001:00049520       ?fetch_and_store@?$atomic_traits@$00$01@internal@tbb@@SACPECXC@Z 000000018004a520 f i observer_proxy.obj
 0001:00049560       ?initialize@task_arena@interface7@tbb@@QEAAXXZ 000000018004a560 f i observer_proxy.obj
 0001:000495b0       ?mark_initialized@task_arena@interface7@tbb@@AEAAXXZ 000000018004a5b0 f i observer_proxy.obj
 0001:00049650       ?mutex@observer_list@internal@tbb@@QEAAAEAVspin_rw_mutex_v3@3@XZ 000000018004a650 f i observer_proxy.obj
 0001:000496a0       ?remove_ref_fast@observer_list@internal@tbb@@CAXAEAPEAVobserver_proxy@23@@Z 000000018004a6a0 f i observer_proxy.obj
 0001:00049720       ?store_with_release@?$atomic_impl@_J@internal@tbb@@IEAA_J_J@Z 000000018004a720 f i observer_proxy.obj
 0001:00049780       ?internal_create@global_control@interface9@tbb@@AEAAXXZ 000000018004a780 f   tbb_main.obj
 0001:000498c0       ?internal_destroy@global_control@interface9@tbb@@AEAAXXZ 000000018004a8c0 f   tbb_main.obj
 0001:00049b70       ?active_value@global_control@interface9@tbb@@CA_KH@Z 000000018004ab70 f   tbb_main.obj
 0001:00049d80       ?DoOneTimeInitializations@internal@tbb@@YAXXZ 000000018004ad80 f   tbb_main.obj
 0001:00049e60       ?ITT_DoUnsafeOneTimeInitialization@internal@tbb@@YAXXZ 000000018004ae60 f   tbb_main.obj
 0001:00049f10       ?add_ref@__TBB_InitOnce@internal@tbb@@SAXXZ 000000018004af10 f   tbb_main.obj
 0001:00049f50       ?remove_ref@__TBB_InitOnce@internal@tbb@@SAXXZ 000000018004af50 f   tbb_main.obj
 0001:00049fc0       ?itt_set_sync_name_v3@internal@tbb@@YAXPEAXPEB_W@Z 000000018004afc0 f   tbb_main.obj
 0001:0004a020       ?call_itt_notify_v5@internal@tbb@@YAXHPEAX@Z 000000018004b020 f   tbb_main.obj
 0001:0004a0e0       ?itt_store_pointer_with_release_v3@internal@tbb@@YAXPEAX0@Z 000000018004b0e0 f   tbb_main.obj
 0001:0004a140       ?itt_load_pointer_with_acquire_v3@internal@tbb@@YAPEAXPEBX@Z 000000018004b140 f   tbb_main.obj
 0001:0004a1a0       ?itt_load_pointer_v3@internal@tbb@@YAPEAXPEBX@Z 000000018004b1a0 f   tbb_main.obj
 0001:0004a1e0       ?itt_make_task_group_v7@internal@tbb@@YAXW4itt_domain_enum@12@PEAX_K12W4string_index@12@@Z 000000018004b1e0 f   tbb_main.obj
 0001:0004a3a0       ?itt_metadata_str_add_v7@internal@tbb@@YAXW4itt_domain_enum@12@PEAX_KW4string_index@12@PEBD@Z 000000018004b3a0 f   tbb_main.obj
 0001:0004a4f0       ?itt_metadata_ptr_add_v11@internal@tbb@@YAXW4itt_domain_enum@12@PEAX_KW4string_index@12@1@Z 000000018004b4f0 f   tbb_main.obj
 0001:0004a630       ?itt_relation_add_v7@internal@tbb@@YAXW4itt_domain_enum@12@PEAX_KW4itt_relation@12@12@Z 000000018004b630 f   tbb_main.obj
 0001:0004a7a0       ?itt_task_begin_v7@internal@tbb@@YAXW4itt_domain_enum@12@PEAX_K12W4string_index@12@@Z 000000018004b7a0 f   tbb_main.obj
 0001:0004a930       ?itt_task_end_v7@internal@tbb@@YAXW4itt_domain_enum@12@@Z 000000018004b930 f   tbb_main.obj
 0001:0004a9a0       ?itt_region_begin_v9@internal@tbb@@YAXW4itt_domain_enum@12@PEAX_K12W4string_index@12@@Z 000000018004b9a0 f   tbb_main.obj
 0001:0004ab10       ?itt_region_end_v9@internal@tbb@@YAXW4itt_domain_enum@12@PEAX_K@Z 000000018004bb10 f   tbb_main.obj
 0001:0004ac10       ?app_parallelism_limit@market@internal@tbb@@SAIXZ 000000018004bc10 f   tbb_main.obj
 0001:0004aec0       ITT_DoOneTimeInitialization 000000018004bec0 f   tbb_main.obj
 0001:0004af10       DllMain                    000000018004bf10 f   tbb_main.obj
 0001:0004b100       ??$__TBB_load_with_acquire@PEAX@internal@tbb@@YAPEAXAEDSEAX@Z 000000018004c100 f i tbb_main.obj
 0001:0004b130       ??$__TBB_store_with_release@PEAXPEAX@internal@tbb@@YAXAECREAXPEAX@Z 000000018004c130 f i tbb_main.obj
 0001:0004b170       ??$min@_K@internal@tbb@@YA_KAEB_K0@Z 000000018004c170 f i tbb_main.obj
 0001:0004b1d0       ??$suppress_unused_warning@$$BY0HM@D@internal@tbb@@YAXAEAY0HM@$$CBD@Z 000000018004c1d0 f i tbb_main.obj
 0001:0004b1e0       ??$suppress_unused_warning@PEAXPEB_W@internal@tbb@@YAXAEBQEAXAEBQEB_W@Z 000000018004c1e0 f i tbb_main.obj
 0001:0004b1f0       ??$to_bits@PEAVglobal_control@interface9@tbb@@@?$atomic_impl@PEAVglobal_control@interface9@tbb@@@internal@tbb@@CA_JPEAVglobal_control@interface9@2@@Z 000000018004c1f0 f i tbb_main.obj
 0001:0004b230       ??$to_bits_ref@PEAVglobal_control@interface9@tbb@@@?$atomic_impl@PEAVglobal_control@interface9@tbb@@@internal@tbb@@CAAEA_JAEAPEAVglobal_control@interface9@2@@Z 000000018004c230 f i tbb_main.obj
 0001:0004b270       ??$to_bits_ref@SEAVglobal_control@interface9@tbb@@@?$atomic_impl@PEAVglobal_control@interface9@tbb@@@internal@tbb@@CAAEA_JAEDSEAVglobal_control@interface9@2@@Z 000000018004c270 f i tbb_main.obj
 0001:0004b2b0       ??$to_value@PEAVglobal_control@interface9@tbb@@@?$atomic_impl@PEAVglobal_control@interface9@tbb@@@internal@tbb@@CAPEAVglobal_control@interface9@2@_J@Z 000000018004c2b0 f i tbb_main.obj
 0001:0004b310       ??0?$converter@PEAVglobal_control@interface9@tbb@@@?$atomic_impl@PEAVglobal_control@interface9@tbb@@@internal@tbb@@QEAA@PEAVglobal_control@interface9@3@@Z 000000018004c310 f i tbb_main.obj
 0001:0004b330       ??0?$converter@PEAVglobal_control@interface9@tbb@@@?$atomic_impl@PEAVglobal_control@interface9@tbb@@@internal@tbb@@QEAA@XZ 000000018004c330 f i tbb_main.obj
 0001:0004b340       ??0?$padded@Vcontrol_storage@internal@tbb@@$0IA@@internal@tbb@@QEAA@XZ 000000018004c340 f i tbb_main.obj
 0001:0004b390       ??0?$padded_base@Vcontrol_storage@internal@tbb@@$0IA@$0CA@@internal@tbb@@QEAA@XZ 000000018004c390 f i tbb_main.obj
 0001:0004b3e0       ??0?$ptr_converter@PEAPEAVglobal_control@interface9@tbb@@@?$atomic_impl@PEAVglobal_control@interface9@tbb@@@internal@tbb@@QEAA@PEAPEAVglobal_control@interface9@3@@Z 000000018004c3e0 f i tbb_main.obj
 0001:0004b400       ??0?$ptr_converter@PEDSEAVglobal_control@interface9@tbb@@@?$atomic_impl@PEAVglobal_control@interface9@tbb@@@internal@tbb@@QEAA@PEDSEAVglobal_control@interface9@3@@Z 000000018004c400 f i tbb_main.obj
 0001:0004b420       ??0allowed_parallelism_control@internal@tbb@@QEAA@XZ 000000018004c420 f i tbb_main.obj
 0001:0004b470       ??0control_storage@internal@tbb@@QEAA@XZ 000000018004c470 f i tbb_main.obj
 0001:0004b4c0       ??0stack_size_control@internal@tbb@@QEAA@XZ 000000018004c4c0 f i tbb_main.obj
 0001:0004b510       ??4?$atomic@PEAVglobal_control@interface9@tbb@@@tbb@@QEAAPEAVglobal_control@interface9@1@PEAV231@@Z 000000018004c510 f i tbb_main.obj
 0001:0004b550       ??B?$atomic_impl@PEAVglobal_control@interface9@tbb@@@internal@tbb@@QEDAPEAVglobal_control@interface9@2@XZ 000000018004c550 f i tbb_main.obj
 0001:0004b5a0       ??C?$atomic@PEAVglobal_control@interface9@tbb@@@tbb@@QEBAPEAVglobal_control@interface9@1@XZ 000000018004c5a0 f i tbb_main.obj
 0001:0004b5d0       ?active_value@allowed_parallelism_control@internal@tbb@@EEBA_KXZ 000000018004c5d0 f i tbb_main.obj
 0001:0004b670       ?active_value@control_storage@internal@tbb@@MEBA_KXZ 000000018004c670 f i tbb_main.obj
 0001:0004b6e0       ?active_value_if_present@allowed_parallelism_control@internal@tbb@@QEBA_KXZ 000000018004c6e0 f i tbb_main.obj
 0001:0004b740       ?apply_active@allowed_parallelism_control@internal@tbb@@EEBAXXZ 000000018004c740 f i tbb_main.obj
 0001:0004b7a0       ?apply_active@control_storage@internal@tbb@@MEBAXXZ 000000018004c7a0 f i tbb_main.obj
 0001:0004b7b0       ?apply_active@stack_size_control@internal@tbb@@EEBAXXZ 000000018004c7b0 f i tbb_main.obj
 0001:0004b7c0       ?default_page_size@governor@internal@tbb@@SA_KXZ 000000018004c7c0 f i tbb_main.obj
 0001:0004b810       ?default_value@allowed_parallelism_control@internal@tbb@@EEBA_KXZ 000000018004c810 f i tbb_main.obj
 0001:0004b860       ?default_value@stack_size_control@internal@tbb@@EEBA_KXZ 000000018004c860 f i tbb_main.obj
 0001:0004b870       ?is_first_arg_preferred@allowed_parallelism_control@internal@tbb@@EEBA_N_K0@Z 000000018004c870 f i tbb_main.obj
 0001:0004b8c0       ?is_first_arg_preferred@control_storage@internal@tbb@@MEBA_N_K0@Z 000000018004c8c0 f i tbb_main.obj
 0001:0004b910       ?load_with_acquire@?$machine_load_store@PEAX$07@internal@tbb@@SAPEAXAEDSEAX@Z 000000018004c910 f i tbb_main.obj
 0001:0004b950       ?lock@__TBB_InitOnce@internal@tbb@@SAXXZ 000000018004c950 f i tbb_main.obj
 0001:0004b980       ?max_num_workers@market@internal@tbb@@SAIXZ 000000018004c980 f i tbb_main.obj
 0001:0004ba00       ?store_with_release@?$atomic_impl@PEAVglobal_control@interface9@tbb@@@internal@tbb@@IEAAPEAVglobal_control@interface9@3@PEAV453@@Z 000000018004ca00 f i tbb_main.obj
 0001:0004ba60       ?store_with_release@?$machine_load_store@PEAX$07@internal@tbb@@SAXAECREAXPEAX@Z 000000018004ca60 f i tbb_main.obj
 0001:0004ba80       ?terminate_auto_initialized_scheduler@governor@internal@tbb@@SAXXZ 000000018004ca80 f i tbb_main.obj
 0001:0004bab0       ?unlock@__TBB_InitOnce@internal@tbb@@SAXXZ 000000018004cab0 f i tbb_main.obj
 0001:0004bae0       __itt_id_make              000000018004cae0 f i tbb_main.obj
 0001:0004bca0       ?internal_reserve@concurrent_vector_base@internal@tbb@@IEAAX_K00@Z 000000018004cca0 f   concurrent_vector_v2.obj
 0001:0004bdd0       ?internal_capacity@concurrent_vector_base@internal@tbb@@IEBA_KXZ 000000018004cdd0 f   concurrent_vector_v2.obj
 0001:0004be10       ?internal_grow_to_at_least@concurrent_vector_base@internal@tbb@@IEAAX_K0P6AXPEAX0@Z@Z 000000018004ce10 f   concurrent_vector_v2.obj
 0001:0004bec0       ?internal_grow@concurrent_vector_base@internal@tbb@@IEAAX_K00P6AXPEAX0@Z@Z 000000018004cec0 f   concurrent_vector_v2.obj
 0001:0004c140       ?internal_grow_by@concurrent_vector_base@internal@tbb@@IEAA_K_K0P6AXPEAX0@Z@Z 000000018004d140 f   concurrent_vector_v2.obj
 0001:0004c1d0       ?internal_push_back@concurrent_vector_base@internal@tbb@@IEAAPEAX_KAEA_K@Z 000000018004d1d0 f   concurrent_vector_v2.obj
 0001:0004c3c0       ?internal_clear@concurrent_vector_base@internal@tbb@@IEAAXP6AXPEAX_K@Z_N@Z 000000018004d3c0 f   concurrent_vector_v2.obj
 0001:0004c640       ?internal_copy@concurrent_vector_base@internal@tbb@@IEAAXAEBV123@_KP6AXPEAXPEBX1@Z@Z 000000018004d640 f   concurrent_vector_v2.obj
 0001:0004c810       ?internal_assign@concurrent_vector_base@internal@tbb@@IEAAXAEBV123@_KP6AXPEAX1@ZP6AX2PEBX1@Z5@Z 000000018004d810 f   concurrent_vector_v2.obj
 0001:0004cc10       ?extend_segment@helper@concurrent_vector_base@internal@tbb@@CAXAEAV234@@Z 000000018004dc10 f   concurrent_vector_v2.obj
 0001:0004cd50       ??$compare_and_swap@$0A@@?$atomic_impl@PEAUsegment_t@concurrent_vector_base@internal@tbb@@@internal@tbb@@QEAAPEAUsegment_t@concurrent_vector_base@12@PEAU3412@0@Z 000000018004dd50 f i concurrent_vector_v2.obj
 0001:0004cdc0       ??$spin_wait_while_eq@PEAXPEAX@internal@tbb@@YAXAEDSEAXPEAX@Z 000000018004ddc0 f i concurrent_vector_v2.obj
 0001:0004ce20       ??$to_bits@PEAUsegment_t@concurrent_vector_base@internal@tbb@@@?$atomic_impl@PEAUsegment_t@concurrent_vector_base@internal@tbb@@@internal@tbb@@CA_JPEAUsegment_t@concurrent_vector_base@12@@Z 000000018004de20 f i concurrent_vector_v2.obj
 0001:0004ce60       ??$to_bits_ref@PEAUsegment_t@concurrent_vector_base@internal@tbb@@@?$atomic_impl@PEAUsegment_t@concurrent_vector_base@internal@tbb@@@internal@tbb@@CAAEA_JAEAPEAUsegment_t@concurrent_vector_base@12@@Z 000000018004de60 f i concurrent_vector_v2.obj
 0001:0004cea0       ??$to_bits_ref@SEAUsegment_t@concurrent_vector_base@internal@tbb@@@?$atomic_impl@PEAUsegment_t@concurrent_vector_base@internal@tbb@@@internal@tbb@@CAAEA_JAEDSEAUsegment_t@concurrent_vector_base@12@@Z 000000018004dea0 f i concurrent_vector_v2.obj
 0001:0004cee0       ??$to_value@PEAUsegment_t@concurrent_vector_base@internal@tbb@@@?$atomic_impl@PEAUsegment_t@concurrent_vector_base@internal@tbb@@@internal@tbb@@CAPEAUsegment_t@concurrent_vector_base@12@_J@Z 000000018004dee0 f i concurrent_vector_v2.obj
 0001:0004cf40       ??0?$converter@PEAUsegment_t@concurrent_vector_base@internal@tbb@@@?$atomic_impl@PEAUsegment_t@concurrent_vector_base@internal@tbb@@@internal@tbb@@QEAA@PEAUsegment_t@concurrent_vector_base@23@@Z 000000018004df40 f i concurrent_vector_v2.obj
 0001:0004cf60       ??0?$converter@PEAUsegment_t@concurrent_vector_base@internal@tbb@@@?$atomic_impl@PEAUsegment_t@concurrent_vector_base@internal@tbb@@@internal@tbb@@QEAA@XZ 000000018004df60 f i concurrent_vector_v2.obj
 0001:0004cf70       ??0?$ptr_converter@PEAPEAUsegment_t@concurrent_vector_base@internal@tbb@@@?$atomic_impl@PEAUsegment_t@concurrent_vector_base@internal@tbb@@@internal@tbb@@QEAA@PEAPEAUsegment_t@concurrent_vector_base@23@@Z 000000018004df70 f i concurrent_vector_v2.obj
 0001:0004cf90       ??0?$ptr_converter@PEDSEAUsegment_t@concurrent_vector_base@internal@tbb@@@?$atomic_impl@PEAUsegment_t@concurrent_vector_base@internal@tbb@@@internal@tbb@@QEAA@PEDSEAUsegment_t@concurrent_vector_base@23@@Z 000000018004df90 f i concurrent_vector_v2.obj
 0001:0004cfb0       ??4?$atomic@PEAUsegment_t@concurrent_vector_base@internal@tbb@@@tbb@@QEAAPEAUsegment_t@concurrent_vector_base@internal@1@PEAU2341@@Z 000000018004dfb0 f i concurrent_vector_v2.obj
 0001:0004cff0       ??4segment_t@concurrent_vector_base@internal@tbb@@QEAAAEAU0123@AEBU0123@@Z 000000018004dff0 f i concurrent_vector_v2.obj
 0001:0004d020       ??B?$atomic_impl@PEAUsegment_t@concurrent_vector_base@internal@tbb@@@internal@tbb@@QEDAPEAUsegment_t@concurrent_vector_base@12@XZ 000000018004e020 f i concurrent_vector_v2.obj
 0001:0004d070       ?compare_and_swap@?$atomic_impl@PEAUsegment_t@concurrent_vector_base@internal@tbb@@@internal@tbb@@QEAAPEAUsegment_t@concurrent_vector_base@23@PEAU4523@0@Z 000000018004e070 f i concurrent_vector_v2.obj
 0001:0004d0c0       ?extend_segment_if_necessary@helper@concurrent_vector_base@internal@tbb@@SAXAEAV234@_K@Z 000000018004e0c0 f i concurrent_vector_v2.obj
 0001:0004d130       ?find_segment_end@helper@concurrent_vector_base@internal@tbb@@SAKAEBV234@@Z 000000018004e130 f i concurrent_vector_v2.obj
 0001:0004d1f0       ?segment_base@concurrent_vector_base@internal@tbb@@KAKK@Z 000000018004e1f0 f i concurrent_vector_v2.obj
 0001:0004d230       ?segment_index_of@concurrent_vector_base@internal@tbb@@KAK_K@Z 000000018004e230 f i concurrent_vector_v2.obj
 0001:0004d280       ?segment_size@concurrent_vector_base@internal@tbb@@KAKK@Z 000000018004e280 f i concurrent_vector_v2.obj
 0001:0004d320       ?store_with_release@?$atomic_impl@PEAUsegment_t@concurrent_vector_base@internal@tbb@@@internal@tbb@@IEAAPEAUsegment_t@concurrent_vector_base@23@PEAU4523@@Z 000000018004e320 f i concurrent_vector_v2.obj
 0001:0004d380       ??0concurrent_queue_base@internal@tbb@@IEAA@_K@Z 000000018004e380 f   concurrent_queue_v2.obj
 0001:0004d660       ??1concurrent_queue_base@internal@tbb@@MEAA@XZ 000000018004e660 f   concurrent_queue_v2.obj
 0001:0004d790       ?internal_push@concurrent_queue_base@internal@tbb@@IEAAXPEBX@Z 000000018004e790 f   concurrent_queue_v2.obj
 0001:0004d870       ?internal_pop@concurrent_queue_base@internal@tbb@@IEAAXPEAX@Z 000000018004e870 f   concurrent_queue_v2.obj
 0001:0004d8f0       ?internal_push_if_not_full@concurrent_queue_base@internal@tbb@@IEAA_NPEBX@Z 000000018004e8f0 f   concurrent_queue_v2.obj
 0001:0004d9f0       ?internal_pop_if_present@concurrent_queue_base@internal@tbb@@IEAA_NPEAX@Z 000000018004e9f0 f   concurrent_queue_v2.obj
 0001:0004dae0       ?internal_size@concurrent_queue_base@internal@tbb@@IEBA_JXZ 000000018004eae0 f   concurrent_queue_v2.obj
 0001:0004db70       ?internal_set_capacity@concurrent_queue_base@internal@tbb@@IEAAX_J_K@Z 000000018004eb70 f   concurrent_queue_v2.obj
 0001:0004dbe0       ??0concurrent_queue_iterator_base@internal@tbb@@IEAA@AEBVconcurrent_queue_base@12@@Z 000000018004ebe0 f   concurrent_queue_v2.obj
 0001:0004dc90       ?assign@concurrent_queue_iterator_base@internal@tbb@@IEAAXAEBV123@@Z 000000018004ec90 f   concurrent_queue_v2.obj
 0001:0004dd80       ?advance@concurrent_queue_iterator_base@internal@tbb@@IEAAXXZ 000000018004ed80 f   concurrent_queue_v2.obj
 0001:0004dee0       ??1concurrent_queue_iterator_base@internal@tbb@@IEAA@XZ 000000018004eee0 f   concurrent_queue_v2.obj
 0001:0004dff0       ?push@micro_queue@internal@tbb@@QEAAXPEBX_KAEAVconcurrent_queue_base@23@@Z 000000018004eff0 f   concurrent_queue_v2.obj
 0001:0004e250       ?pop@micro_queue@internal@tbb@@QEAA_NPEAX_KAEAVconcurrent_queue_base@23@@Z 000000018004f250 f   concurrent_queue_v2.obj
 0001:0004e420       ??$to_bits@PEAUpage@concurrent_queue_base@internal@tbb@@@?$atomic_impl@PEAUpage@concurrent_queue_base@internal@tbb@@@internal@tbb@@CA_JPEAUpage@concurrent_queue_base@12@@Z 000000018004f420 f i concurrent_queue_v2.obj
 0001:0004e460       ??$to_bits_ref@PEAUpage@concurrent_queue_base@internal@tbb@@@?$atomic_impl@PEAUpage@concurrent_queue_base@internal@tbb@@@internal@tbb@@CAAEA_JAEAPEAUpage@concurrent_queue_base@12@@Z 000000018004f460 f i concurrent_queue_v2.obj
 0001:0004e4a0       ??$to_bits_ref@SEAUpage@concurrent_queue_base@internal@tbb@@@?$atomic_impl@PEAUpage@concurrent_queue_base@internal@tbb@@@internal@tbb@@CAAEA_JAEDSEAUpage@concurrent_queue_base@12@@Z 000000018004f4a0 f i concurrent_queue_v2.obj
 0001:0004e4e0       ??$to_value@PEAUpage@concurrent_queue_base@internal@tbb@@@?$atomic_impl@PEAUpage@concurrent_queue_base@internal@tbb@@@internal@tbb@@CAPEAUpage@concurrent_queue_base@12@_J@Z 000000018004f4e0 f i concurrent_queue_v2.obj
 0001:0004e540       ??0?$converter@PEAUpage@concurrent_queue_base@internal@tbb@@@?$atomic_impl@PEAUpage@concurrent_queue_base@internal@tbb@@@internal@tbb@@QEAA@PEAUpage@concurrent_queue_base@23@@Z 000000018004f540 f i concurrent_queue_v2.obj
 0001:0004e560       ??0?$converter@PEAUpage@concurrent_queue_base@internal@tbb@@@?$atomic_impl@PEAUpage@concurrent_queue_base@internal@tbb@@@internal@tbb@@QEAA@XZ 000000018004f560 f i concurrent_queue_v2.obj
 0001:0004e570       ??0?$ptr_converter@PEAPEAUpage@concurrent_queue_base@internal@tbb@@@?$atomic_impl@PEAUpage@concurrent_queue_base@internal@tbb@@@internal@tbb@@QEAA@PEAPEAUpage@concurrent_queue_base@23@@Z 000000018004f570 f i concurrent_queue_v2.obj
 0001:0004e590       ??0?$ptr_converter@PEDSEAUpage@concurrent_queue_base@internal@tbb@@@?$atomic_impl@PEAUpage@concurrent_queue_base@internal@tbb@@@internal@tbb@@QEAA@PEDSEAUpage@concurrent_queue_base@23@@Z 000000018004f590 f i concurrent_queue_v2.obj
 0001:0004e5b0       ??0concurrent_queue_iterator_rep@internal@tbb@@QEAA@AEBVconcurrent_queue_base@12@@Z 000000018004f5b0 f i concurrent_queue_v2.obj
 0001:0004e660       ??0pop_finalizer@micro_queue@internal@tbb@@QEAA@AEAU123@_KPEAUpage@concurrent_queue_base@23@@Z 000000018004f660 f i concurrent_queue_v2.obj
 0001:0004e6b0       ??0push_finalizer@micro_queue@internal@tbb@@QEAA@AEAU123@_K@Z 000000018004f6b0 f i concurrent_queue_v2.obj
 0001:0004e6f0       ??1pop_finalizer@micro_queue@internal@tbb@@QEAA@XZ 000000018004f6f0 f i concurrent_queue_v2.obj
 0001:0004e800       ??1push_finalizer@micro_queue@internal@tbb@@QEAA@XZ 000000018004f800 f i concurrent_queue_v2.obj
 0001:0004e850       ??4?$atomic@PEAUpage@concurrent_queue_base@internal@tbb@@@tbb@@QEAAPEAUpage@concurrent_queue_base@internal@1@PEAU2341@@Z 000000018004f850 f i concurrent_queue_v2.obj
 0001:0004e890       ??B?$atomic_impl@PEAUpage@concurrent_queue_base@internal@tbb@@@internal@tbb@@QEDAPEAUpage@concurrent_queue_base@12@XZ 000000018004f890 f i concurrent_queue_v2.obj
 0001:0004e8e0       ??_Econcurrent_queue_base@internal@tbb@@MEAAPEAXI@Z 000000018004f8e0 f i concurrent_queue_v2.obj
 0001:0004e8e0       ??_Gconcurrent_queue_base@internal@tbb@@MEAAPEAXI@Z 000000018004f8e0 f i concurrent_queue_v2.obj
 0001:0004e940       ?choose@concurrent_queue_iterator_rep@internal@tbb@@QEAAPEAX_K@Z 000000018004f940 f i concurrent_queue_v2.obj
 0001:0004ea30       ?store_with_release@?$atomic_impl@PEAUpage@concurrent_queue_base@internal@tbb@@@internal@tbb@@IEAAPEAUpage@concurrent_queue_base@23@PEAU4523@@Z 000000018004fa30 f i concurrent_queue_v2.obj
 0001:0004ea90       ?internal_itt_releasing@spin_rw_mutex@tbb@@CAXPEAV12@@Z 000000018004fa90 f   spin_rw_mutex_v2.obj
 0001:0004eb00       ?internal_acquire_writer@spin_rw_mutex@tbb@@CA_NPEAV12@@Z 000000018004fb00 f   spin_rw_mutex_v2.obj
 0001:0004ec30       ?internal_release_writer@spin_rw_mutex@tbb@@CAXPEAV12@@Z 000000018004fc30 f   spin_rw_mutex_v2.obj
 0001:0004ecb0       ?internal_acquire_reader@spin_rw_mutex@tbb@@CAXPEAV12@@Z 000000018004fcb0 f   spin_rw_mutex_v2.obj
 0001:0004ede0       ?internal_upgrade@spin_rw_mutex@tbb@@CA_NPEAV12@@Z 000000018004fde0 f   spin_rw_mutex_v2.obj
 0001:0004efd0       ?internal_downgrade@spin_rw_mutex@tbb@@CAXPEAV12@@Z 000000018004ffd0 f   spin_rw_mutex_v2.obj
 0001:0004f0c0       ?internal_release_reader@spin_rw_mutex@tbb@@CAXPEAV12@@Z 00000001800500c0 f   spin_rw_mutex_v2.obj
 0001:0004f180       ?internal_try_acquire_writer@spin_rw_mutex@tbb@@CA_NPEAV12@@Z 0000000180050180 f   spin_rw_mutex_v2.obj
 0001:0004f200       ?internal_try_acquire_reader@spin_rw_mutex@tbb@@CA_NPEAV12@@Z 0000000180050200 f   spin_rw_mutex_v2.obj
 0001:0004f3e0       ??$as_atomic@$$CC_K@internal@tbb@@YAAEAU?$atomic@$$CC_K@1@AEC_K@Z 00000001800503e0 f i spin_rw_mutex_v2.obj
 0001:0004f3f0       ??$compare_and_swap@$0A@@?$atomic_impl@$$CC_K@internal@tbb@@QEAA?C_K_K0@Z 00000001800503f0 f i spin_rw_mutex_v2.obj
 0001:0004f460       ??$to_bits@_K@?$atomic_impl@$$CC_K@internal@tbb@@CA_J_K@Z 0000000180050460 f i spin_rw_mutex_v2.obj
 0001:0004f4a0       ??$to_value@$$CC_K@?$atomic_impl@$$CC_K@internal@tbb@@CA?C_K_J@Z 00000001800504a0 f i spin_rw_mutex_v2.obj
 0001:0004f500       ??0?$converter@$$CC_K@?$atomic_impl@$$CC_K@internal@tbb@@QEAA@XZ 0000000180050500 f i spin_rw_mutex_v2.obj
 0001:0004f510       ??0?$converter@_K@?$atomic_impl@$$CC_K@internal@tbb@@QEAA@_K@Z 0000000180050510 f i spin_rw_mutex_v2.obj
 0001:0004f530       ?compare_and_swap@?$atomic_impl@$$CC_K@internal@tbb@@QEAA?C_K_K0@Z 0000000180050530 f i spin_rw_mutex_v2.obj
 0001:0004f580       ?destroy@task@tbb@@QEAAXAEAV12@@Z 0000000180050580 f   task_v2.obj
 0001:0004f5b3       SwitchToThread             00000001800505b3 f   kernel32:KERNEL32.dll
 0001:0004f5b9       CloseHandle                00000001800505b9 f   kernel32:KERNEL32.dll
 0001:0004f5bf       SetEvent                   00000001800505bf f   kernel32:KERNEL32.dll
 0001:0004f5c5       WaitForSingleObjectEx      00000001800505c5 f   kernel32:KERNEL32.dll
 0001:0004f5cb       GetLastError               00000001800505cb f   kernel32:KERNEL32.dll
 0001:0004f5d1       SetErrorMode               00000001800505d1 f   kernel32:KERNEL32.dll
 0001:0004f5d7       FreeLibrary                00000001800505d7 f   kernel32:KERNEL32.dll
 0001:0004f5dd       GetModuleFileNameA         00000001800505dd f   kernel32:KERNEL32.dll
 0001:0004f5e3       GetModuleHandleExA         00000001800505e3 f   kernel32:KERNEL32.dll
 0001:0004f5e9       GetProcAddress             00000001800505e9 f   kernel32:KERNEL32.dll
 0001:0004f5ef       LoadLibraryA               00000001800505ef f   kernel32:KERNEL32.dll
 0001:0004f5f5       GetEnvironmentVariableA    00000001800505f5 f   kernel32:KERNEL32.dll
 0001:0004f5fb       InitializeCriticalSection  00000001800505fb f   kernel32:KERNEL32.dll
 0001:0004f601       EnterCriticalSection       0000000180050601 f   kernel32:KERNEL32.dll
 0001:0004f607       LeaveCriticalSection       0000000180050607 f   kernel32:KERNEL32.dll
 0001:0004f60d       GetCurrentThreadId         000000018005060d f   kernel32:KERNEL32.dll
 0001:0004f613       lstrcmpA                   0000000180050613 f   kernel32:KERNEL32.dll
 0001:0004f619       ReleaseSemaphore           0000000180050619 f   kernel32:KERNEL32.dll
 0001:0004f61f       CreateSemaphoreW           000000018005061f f   kernel32:KERNEL32.dll
 0001:0004f625       TlsAlloc                   0000000180050625 f   kernel32:KERNEL32.dll
 0001:0004f62b       TlsGetValue                000000018005062b f   kernel32:KERNEL32.dll
 0001:0004f631       TlsSetValue                0000000180050631 f   kernel32:KERNEL32.dll
 0001:0004f637       TlsFree                    0000000180050637 f   kernel32:KERNEL32.dll
 0001:0004f63d       InitializeCriticalSectionAndSpinCount 000000018005063d f   kernel32:KERNEL32.dll
 0001:0004f643       TryEnterCriticalSection    0000000180050643 f   kernel32:KERNEL32.dll
 0001:0004f649       DeleteCriticalSection      0000000180050649 f   kernel32:KERNEL32.dll
 0001:0004f64f       SetLastError               000000018005064f f   kernel32:KERNEL32.dll
 0001:0004f655       QueryPerformanceFrequency  0000000180050655 f   kernel32:KERNEL32.dll
 0001:0004f65b       ResetEvent                 000000018005065b f   kernel32:KERNEL32.dll
 0001:0004f661       CreateEventA               0000000180050661 f   kernel32:KERNEL32.dll
 0001:0004f667       QueryPerformanceCounter    0000000180050667 f   kernel32:KERNEL32.dll
 0001:0004f66d       Sleep                      000000018005066d f   kernel32:KERNEL32.dll
 0001:0004f673       ResumeThread               0000000180050673 f   kernel32:KERNEL32.dll
 0001:0004f679       GetSystemInfo              0000000180050679 f   kernel32:KERNEL32.dll
 0001:0004f67f       FormatMessageA             000000018005067f f   kernel32:KERNEL32.dll
 0001:0004f685       GetCurrentProcess          0000000180050685 f   kernel32:KERNEL32.dll
 0001:0004f68b       GetCurrentThread           000000018005068b f   kernel32:KERNEL32.dll
 0001:0004f691       GetNativeSystemInfo        0000000180050691 f   kernel32:KERNEL32.dll
 0001:0004f697       GetProcessAffinityMask     0000000180050697 f   kernel32:KERNEL32.dll
 0001:0004f69d       CreateEventW               000000018005069d f   kernel32:KERNEL32.dll
 0001:0004f6a3       ?__ExceptionPtrCreate@@YAXPEAX@Z 00000001800506a3 f   msvcprtd:MSVCP140D.dll
 0001:0004f6a9       ?__ExceptionPtrDestroy@@YAXPEAX@Z 00000001800506a9 f   msvcprtd:MSVCP140D.dll
 0001:0004f6af       ?__ExceptionPtrCopy@@YAXPEAXPEBX@Z 00000001800506af f   msvcprtd:MSVCP140D.dll
 0001:0004f6b5       ?__ExceptionPtrCurrentException@@YAXPEAX@Z 00000001800506b5 f   msvcprtd:MSVCP140D.dll
 0001:0004f6bb       ?__ExceptionPtrCopyException@@YAXPEAXPEBX1@Z 00000001800506bb f   msvcprtd:MSVCP140D.dll
 0001:0004f6c1       ??0_Lockit@std@@QEAA@H@Z   00000001800506c1 f   msvcprtd:MSVCP140D.dll
 0001:0004f6c7       ??1_Lockit@std@@QEAA@XZ    00000001800506c7 f   msvcprtd:MSVCP140D.dll
 0001:0004f6cd       ?__ExceptionPtrRethrow@@YAXPEBX@Z 00000001800506cd f   msvcprtd:MSVCP140D.dll
 0001:0004f6d3       ?_Xlength_error@std@@YAXPEBD@Z 00000001800506d3 f   msvcprtd:MSVCP140D.dll
 0001:0004f6e0       _RTC_AllocaHelper          00000001800506e0 f   MSVCRTD:stack.obj
 0001:0004f720       _RTC_CheckStackVars        0000000180050720 f   MSVCRTD:stack.obj
 0001:0004f7b0       _RTC_CheckStackVars2       00000001800507b0 f   MSVCRTD:stack.obj
 0001:0004f8c0       _CRT_RTC_INIT              00000001800508c0 f   MSVCRTD:init.obj
 0001:0004f8d0       _CRT_RTC_INITW             00000001800508d0 f   MSVCRTD:init.obj
 0001:0004f8e0       _RTC_InitBase              00000001800508e0 f   MSVCRTD:init.obj
 0001:0004f920       _RTC_Shutdown              0000000180050920 f   MSVCRTD:init.obj
 0001:0004f950       ??3@YAXPEAX_K@Z            0000000180050950 f   MSVCRTD:delete_scalar_size.obj
 0001:0004f970       __GSHandlerCheck_EH        0000000180050970 f   MSVCRTD:gshandlereh.obj
 0001:0004fa30       __security_check_cookie    0000000180050a30 f   MSVCRTD:amdsecgs.obj
 0001:0004fa60       ??1type_info@@UEAA@XZ      0000000180050a60 f   MSVCRTD:std_type_info_static.obj
 0001:0004fa80       ??_Etype_info@@UEAAPEAXI@Z 0000000180050a80 f i MSVCRTD:std_type_info_static.obj
 0001:0004fa80       ??_Gtype_info@@UEAAPEAXI@Z 0000000180050a80 f i MSVCRTD:std_type_info_static.obj
 0001:0004fac0       ??_M@YAXPEAX_K1P6AX0@Z@Z   0000000180050ac0 f   MSVCRTD:ehvecdtr.obj
 0001:0004fb80       ??_M@YAXPEAX_KHP6AX0@Z@Z   0000000180050b80 f   MSVCRTD:ehvecdtr.obj
 0001:0004fc00       ?__ArrayUnwind@@YAXPEAX_K1P6AX0@Z@Z 0000000180050c00 f   MSVCRTD:ehvecdtr.obj
 0001:0004fc80       __GSHandlerCheck           0000000180050c80 f   MSVCRTD:gshandler.obj
 0001:0004fcc0       __GSHandlerCheckCommon     0000000180050cc0 f   MSVCRTD:gshandler.obj
 0001:0004fdc0       __raise_securityfailure    0000000180050dc0 f   MSVCRTD:gs_report.obj
 0001:0004fe00       __report_gsfailure         0000000180050e00 f   MSVCRTD:gs_report.obj
 0001:0004fee0       __report_rangecheckfailure 0000000180050ee0 f   MSVCRTD:gs_report.obj
 0001:0004ff00       __report_securityfailure   0000000180050f00 f   MSVCRTD:gs_report.obj
 0001:0004ffa0       __report_securityfailureEx 0000000180050fa0 f   MSVCRTD:gs_report.obj
 0001:00050210       ??2@YAPEAX_K@Z             0000000180051210 f   MSVCRTD:new_scalar.obj
 0001:00050270       _alloca_probe              0000000180051270 f   MSVCRTD:chkstk.obj
 0001:00050270       __chkstk                   0000000180051270 f   MSVCRTD:chkstk.obj
 0001:000502d0       ?__scrt_initialize_type_info@@YAXXZ 00000001800512d0 f   MSVCRTD:tncleanup.obj
 0001:000502f0       ?__scrt_uninitialize_type_info@@YAXXZ 00000001800512f0 f   MSVCRTD:tncleanup.obj
 0001:00050350       ??$__crt_fast_decode_pointer@P6AHPEAU_RTL_CONDITION_VARIABLE@@PEAU_RTL_CRITICAL_SECTION@@K@Z@@YAP6AHPEAU_RTL_CONDITION_VARIABLE@@PEAU_RTL_CRITICAL_SECTION@@K@ZQ6AH01K@Z@Z 0000000180051350 f i MSVCRTD:thread_safe_statics.obj
 0001:00050390       ??$__crt_fast_decode_pointer@P6AXPEAU_RTL_CONDITION_VARIABLE@@@Z@@YAP6AXPEAU_RTL_CONDITION_VARIABLE@@@ZQ6AX0@Z@Z 0000000180051390 f i MSVCRTD:thread_safe_statics.obj
 0001:000503d0       ??$__crt_fast_encode_pointer@P6AHPEAU_RTL_CONDITION_VARIABLE@@PEAU_RTL_CRITICAL_SECTION@@K@Z@@YAP6AHPEAU_RTL_CONDITION_VARIABLE@@PEAU_RTL_CRITICAL_SECTION@@K@ZQ6AH01K@Z@Z 00000001800513d0 f i MSVCRTD:thread_safe_statics.obj
 0001:00050410       ??$__crt_fast_encode_pointer@P6AXPEAU_RTL_CONDITION_VARIABLE@@@Z@@YAP6AXPEAU_RTL_CONDITION_VARIABLE@@@ZQ6AX0@Z@Z 0000000180051410 f i MSVCRTD:thread_safe_statics.obj
 0001:00050450       ?__crt_rotate_pointer_value@@YA_K_KH@Z 0000000180051450 f i MSVCRTD:thread_safe_statics.obj
 0001:000505c0       ?__scrt_is_event_api_used@@YA_NQEAX@Z 00000001800515c0 f i MSVCRTD:thread_safe_statics.obj
 0001:00050640       _Init_thread_abort         0000000180051640 f   MSVCRTD:thread_safe_statics.obj
 0001:00050670       _Init_thread_footer        0000000180051670 f   MSVCRTD:thread_safe_statics.obj
 0001:000506d0       _Init_thread_header        00000001800516d0 f   MSVCRTD:thread_safe_statics.obj
 0001:00050760       _Init_thread_lock          0000000180051760 f   MSVCRTD:thread_safe_statics.obj
 0001:00050780       _Init_thread_notify        0000000180051780 f   MSVCRTD:thread_safe_statics.obj
 0001:000507f0       _Init_thread_unlock        00000001800517f0 f   MSVCRTD:thread_safe_statics.obj
 0001:00050810       _Init_thread_wait          0000000180051810 f   MSVCRTD:thread_safe_statics.obj
 0001:000508d0       ??_L@YAXPEAX_K1P6AX0@Z2@Z  00000001800518d0 f   MSVCRTD:ehvecctr.obj
 0001:00050970       ??_L@YAXPEAX_KHP6AX0@Z2@Z  0000000180051970 f   MSVCRTD:ehvecctr.obj
 0001:000509c0       ??_U@YAPEAX_K@Z            00000001800519c0 f   MSVCRTD:new_array.obj
 0001:000509e0       ??_V@YAXPEAX_K@Z           00000001800519e0 f   MSVCRTD:delete_array_size.obj
 0001:00050a00       ??$__crt_fast_decode_pointer@PEAP6AXXZ@@YAPEAP6AXXZQEAP6AXXZ@Z 0000000180051a00 f i MSVCRTD:utility.obj
 0001:00050a40       ??$__crt_fast_encode_pointer@PEAP6AXXZ@@YAPEAP6AXXZQEAP6AXXZ@Z 0000000180051a40 f i MSVCRTD:utility.obj
 0001:00050a80       ?configure_argv@__scrt_narrow_argv_policy@@SAHXZ 0000000180051a80 f i MSVCRTD:utility.obj
 0001:00050b70       ?initialize_environment@__scrt_narrow_environment_policy@@SAHXZ 0000000180051b70 f i MSVCRTD:utility.obj
 0001:00050c10       __scrt_acquire_startup_lock 0000000180051c10 f   MSVCRTD:utility.obj
 0001:00050c80       __scrt_dllmain_after_initialize_c 0000000180051c80 f   MSVCRTD:utility.obj
 0001:00050cb0       __scrt_dllmain_before_initialize_c 0000000180051cb0 f   MSVCRTD:utility.obj
 0001:00050cd0       __scrt_dllmain_crt_thread_attach 0000000180051cd0 f   MSVCRTD:utility.obj
 0001:00050d00       __scrt_dllmain_crt_thread_detach 0000000180051d00 f   MSVCRTD:utility.obj
 0001:00050d20       __scrt_dllmain_exception_filter 0000000180051d20 f   MSVCRTD:utility.obj
 0001:00050d80       __scrt_dllmain_uninitialize_c 0000000180051d80 f   MSVCRTD:utility.obj
 0001:00050db0       __scrt_dllmain_uninitialize_critical 0000000180051db0 f   MSVCRTD:utility.obj
 0001:00050dd0       __scrt_initialize_crt      0000000180051dd0 f   MSVCRTD:utility.obj
 0001:00050e20       __scrt_initialize_onexit_tables 0000000180051e20 f   MSVCRTD:utility.obj
 0001:00050f30       __scrt_is_nonwritable_in_current_image 0000000180051f30 f   MSVCRTD:utility.obj
 0001:00050fc0       __scrt_release_startup_lock 0000000180051fc0 f   MSVCRTD:utility.obj
 0001:00050ff0       __scrt_uninitialize_crt    0000000180051ff0 f   MSVCRTD:utility.obj
 0001:00051030       _onexit                    0000000180052030 f   MSVCRTD:utility.obj
 0001:000510c0       at_quick_exit              00000001800520c0 f   MSVCRTD:utility.obj
 0001:00051110       atexit                     0000000180052110 f   MSVCRTD:utility.obj
 0001:00051150       ??3@YAXPEAX@Z              0000000180052150 f   MSVCRTD:delete_scalar.obj
 0001:00051560       _CRT_INIT                  0000000180052560 f   MSVCRTD:dll_dllmain.obj
 0001:00051590       _DllMainCRTStartup         0000000180052590 f   MSVCRTD:dll_dllmain.obj
 0001:00051660       ?_RTC_AllocaFailure@@YAXPEAXPEAU_RTC_ALLOCA_NODE@@H@Z 0000000180052660 f   MSVCRTD:error.obj
 0001:000517c0       ?_RTC_Failure@@YAXPEAXH@Z  00000001800527c0 f   MSVCRTD:error.obj
 0001:00051810       ?_RTC_StackFailure@@YAXPEAXPEBD@Z 0000000180052810 f   MSVCRTD:error.obj
 0001:00051c40       _RTC_UninitUse             0000000180052c40 f   MSVCRTD:error.obj
 0001:00051d10       _vsprintf_s_l              0000000180052d10 f i MSVCRTD:error.obj
 0001:00051d80       sprintf_s                  0000000180052d80 f i MSVCRTD:error.obj
 0001:00051db0       ?_RTC_GetErrorFunc@@YAP6AHHPEBDH00ZZPEBX@Z 0000000180052db0 f   MSVCRTD:userapi.obj
 0001:00051dc0       ?_RTC_GetErrorFuncW@@YAP6AHHPEB_WH00ZZPEBX@Z 0000000180052dc0 f   MSVCRTD:userapi.obj
 0001:00051dd0       _RTC_GetErrDesc            0000000180052dd0 f   MSVCRTD:userapi.obj
 0001:00051df0       _RTC_NumErrors             0000000180052df0 f   MSVCRTD:userapi.obj
 0001:00051e00       _RTC_SetErrorFunc          0000000180052e00 f   MSVCRTD:userapi.obj
 0001:00051e20       _RTC_SetErrorFuncW         0000000180052e20 f   MSVCRTD:userapi.obj
 0001:00051e40       _RTC_SetErrorType          0000000180052e40 f   MSVCRTD:userapi.obj
 0001:00051e60       _guard_check_icall_nop     0000000180052e60 f i MSVCRTD:guard_support.obj
 0001:00051e70       ReadNoFence64              0000000180052e70 f i MSVCRTD:guard_support.obj
 0001:00051e90       ReadPointerNoFence         0000000180052e90 f i MSVCRTD:guard_support.obj
 0001:00051eb0       _guard_icall_checks_enforced 0000000180052eb0 f i MSVCRTD:guard_support.obj
 0001:00051ef0       _guard_rf_checks_enforced  0000000180052ef0 f i MSVCRTD:guard_support.obj
 0001:00051f00       ??0bad_alloc@std@@AEAA@QEBD@Z 0000000180052f00 f i MSVCRTD:throw_bad_alloc.obj
 0001:00051f40       ??0bad_array_new_length@std@@QEAA@AEBV01@@Z 0000000180052f40 f i MSVCRTD:throw_bad_alloc.obj
 0001:00051f80       ??0bad_array_new_length@std@@QEAA@XZ 0000000180052f80 f i MSVCRTD:throw_bad_alloc.obj
 0001:00051fc0       ??1bad_array_new_length@std@@UEAA@XZ 0000000180052fc0 f i MSVCRTD:throw_bad_alloc.obj
 0001:00051fe0       ??_Ebad_array_new_length@std@@UEAAPEAXI@Z 0000000180052fe0 f i MSVCRTD:throw_bad_alloc.obj
 0001:00051fe0       ??_Gbad_array_new_length@std@@UEAAPEAXI@Z 0000000180052fe0 f i MSVCRTD:throw_bad_alloc.obj
 0001:00052020       ?__scrt_throw_std_bad_alloc@@YAXXZ 0000000180053020 f   MSVCRTD:throw_bad_alloc.obj
 0001:00052050       ?__scrt_throw_std_bad_array_new_length@@YAXXZ 0000000180053050 f   MSVCRTD:throw_bad_alloc.obj
 0001:00052080       __crt_debugger_hook        0000000180053080 f   MSVCRTD:utility_desktop.obj
 0001:00052090       __scrt_fastfail            0000000180053090 f   MSVCRTD:utility_desktop.obj
 0001:00052230       __scrt_get_show_window_mode 0000000180053230 f   MSVCRTD:utility_desktop.obj
 0001:00052290       __scrt_initialize_mta      0000000180053290 f   MSVCRTD:utility_desktop.obj
 0001:000522a0       __scrt_initialize_winrt    00000001800532a0 f   MSVCRTD:utility_desktop.obj
 0001:000522b0       __scrt_is_managed_app      00000001800532b0 f   MSVCRTD:utility_desktop.obj
 0001:00052360       __scrt_set_unhandled_exception_filter 0000000180053360 f   MSVCRTD:utility_desktop.obj
 0001:00052380       __scrt_exe_initialize_mta  0000000180053380 f   MSVCRTD:utility_desktop.obj
 0001:00052380       __scrt_stub_for_initialize_mta 0000000180053380 f   MSVCRTD:utility_desktop.obj
 0001:00052390       __scrt_unhandled_exception_filter 0000000180053390 f   MSVCRTD:utility_desktop.obj
 0001:00052410       ??_V@YAXPEAX@Z             0000000180053410 f   MSVCRTD:delete_array.obj
 0001:00052430       __isa_available_init       0000000180053430 f   MSVCRTD:cpu_disp.obj
 0001:00052780       _get_startup_argv_mode     0000000180053780 f   MSVCRTD:argv_mode.obj
 0001:00052790       __scrt_is_ucrt_dll_in_use  0000000180053790 f   MSVCRTD:ucrt_detection.obj
 0001:00052880       __security_init_cookie     0000000180053880 f   MSVCRTD:gs_support.obj
 0001:00052900       __local_stdio_scanf_options 0000000180053900 f i MSVCRTD:default_local_stdio_options.obj
 0001:00052910       __scrt_initialize_default_local_stdio_options 0000000180053910 f   MSVCRTD:default_local_stdio_options.obj
 0001:00052960       __scrt_get_dyn_tls_init_callback 0000000180053960 f   MSVCRTD:dyn_tls_init.obj
 0001:00052970       _RTC_Initialize            0000000180053970 f   MSVCRTD:initsect.obj
 0001:000529c0       _RTC_Terminate             00000001800539c0 f   MSVCRTD:initsect.obj
 0001:00052f20       ?_RTC_GetSrcLine@@YAHPEAEPEA_WKPEAH1K@Z 0000000180053f20 f   MSVCRTD:pdblkup.obj
 0001:000532f0       _purecall                  00000001800542f0 f   vcruntimed:VCRUNTIME140D.dll
 0001:000532f6       memset                     00000001800542f6 f   vcruntimed:VCRUNTIME140D.dll
 0001:000532fc       _CxxThrowException         00000001800542fc f   vcruntimed:VCRUNTIME140D.dll
 0001:00053302       __CxxFrameHandler3         0000000180054302 f   vcruntimed:VCRUNTIME140D.dll
 0001:00053308       strrchr                    0000000180054308 f   vcruntimed:VCRUNTIME140D.dll
 0001:0005330e       __std_exception_copy       000000018005430e f   vcruntimed:VCRUNTIME140D.dll
 0001:00053314       __std_exception_destroy    0000000180054314 f   vcruntimed:VCRUNTIME140D.dll
 0001:0005331a       __RTtypeid                 000000018005431a f   vcruntimed:VCRUNTIME140D.dll
 0001:00053320       __std_type_info_name       0000000180054320 f   vcruntimed:VCRUNTIME140D.dll
 0001:00053326       __RTDynamicCast            0000000180054326 f   vcruntimed:VCRUNTIME140D.dll
 0001:0005332c       memcpy                     000000018005432c f   vcruntimed:VCRUNTIME140D.dll
 0001:00053332       __C_specific_handler       0000000180054332 f   vcruntimed:VCRUNTIME140D.dll
 0001:00053338       __std_type_info_destroy_list 0000000180054338 f   vcruntimed:VCRUNTIME140D.dll
 0001:0005333e       __C_specific_handler_noexcept 000000018005433e f   vcruntimed:VCRUNTIME140D.dll
 0001:00053344       __vcrt_GetModuleFileNameW  0000000180054344 f   vcruntimed:VCRUNTIME140D.dll
 0001:0005334a       __vcrt_GetModuleHandleW    000000018005434a f   vcruntimed:VCRUNTIME140D.dll
 0001:00053350       __vcrt_LoadLibraryExW      0000000180054350 f   vcruntimed:VCRUNTIME140D.dll
 0001:00053356       _invalid_parameter         0000000180054356 f   ucrtd:ucrtbased.dll
 0001:0005335c       _CrtDbgReport              000000018005435c f   ucrtd:ucrtbased.dll
 0001:00053362       strcat                     0000000180054362 f   ucrtd:ucrtbased.dll
 0001:00053368       strcpy                     0000000180054368 f   ucrtd:ucrtbased.dll
 0001:0005336e       strlen                     000000018005436e f   ucrtd:ucrtbased.dll
 0001:00053374       _wcsdup                    0000000180054374 f   ucrtd:ucrtbased.dll
 0001:0005337a       wcscmp                     000000018005437a f   ucrtd:ucrtbased.dll
 0001:00053380       strncpy_s                  0000000180054380 f   ucrtd:ucrtbased.dll
 0001:00053386       _strdup                    0000000180054386 f   ucrtd:ucrtbased.dll
 0001:0005338c       malloc                     000000018005438c f   ucrtd:ucrtbased.dll
 0001:00053392       free                       0000000180054392 f   ucrtd:ucrtbased.dll
 0001:00053398       _beginthreadex             0000000180054398 f   ucrtd:ucrtbased.dll
 0001:0005339e       _errno                     000000018005439e f   ucrtd:ucrtbased.dll
 0001:000533a4       exit                       00000001800543a4 f   ucrtd:ucrtbased.dll
 0001:000533aa       __acrt_iob_func            00000001800543aa f   ucrtd:ucrtbased.dll
 0001:000533b0       __stdio_common_vfprintf    00000001800543b0 f   ucrtd:ucrtbased.dll
 0001:000533b6       fputs                      00000001800543b6 f   ucrtd:ucrtbased.dll
 0001:000533bc       __stdio_common_vsprintf    00000001800543bc f   ucrtd:ucrtbased.dll
 0001:000533c2       strerror                   00000001800543c2 f   ucrtd:ucrtbased.dll
 0001:000533c8       strncpy                    00000001800543c8 f   ucrtd:ucrtbased.dll
 0001:000533ce       getenv                     00000001800543ce f   ucrtd:ucrtbased.dll
 0001:000533d4       strspn                     00000001800543d4 f   ucrtd:ucrtbased.dll
 0001:000533da       _CrtDbgReportW             00000001800543da f   ucrtd:ucrtbased.dll
 0001:000533e0       terminate                  00000001800543e0 f   ucrtd:ucrtbased.dll
 0001:000533e6       _callnewh                  00000001800543e6 f   ucrtd:ucrtbased.dll
 0001:000533ec       _seh_filter_dll            00000001800543ec f   ucrtd:ucrtbased.dll
 0001:000533f2       _configure_narrow_argv     00000001800543f2 f   ucrtd:ucrtbased.dll
 0001:000533f8       _initialize_narrow_environment 00000001800543f8 f   ucrtd:ucrtbased.dll
 0001:000533fe       _initialize_onexit_table   00000001800543fe f   ucrtd:ucrtbased.dll
 0001:00053404       _register_onexit_function  0000000180054404 f   ucrtd:ucrtbased.dll
 0001:0005340a       _execute_onexit_table      000000018005440a f   ucrtd:ucrtbased.dll
 0001:00053410       _crt_atexit                0000000180054410 f   ucrtd:ucrtbased.dll
 0001:00053416       _crt_at_quick_exit         0000000180054416 f   ucrtd:ucrtbased.dll
 0001:0005341c       _cexit                     000000018005441c f   ucrtd:ucrtbased.dll
 0001:00053422       _free_dbg                  0000000180054422 f   ucrtd:ucrtbased.dll
 0001:00053428       _initterm                  0000000180054428 f   ucrtd:ucrtbased.dll
 0001:0005342e       _initterm_e                000000018005442e f   ucrtd:ucrtbased.dll
 0001:00053434       strcpy_s                   0000000180054434 f   ucrtd:ucrtbased.dll
 0001:0005343a       strcat_s                   000000018005443a f   ucrtd:ucrtbased.dll
 0001:00053440       __stdio_common_vsprintf_s  0000000180054440 f   ucrtd:ucrtbased.dll
 0001:00053446       _wmakepath_s               0000000180054446 f   ucrtd:ucrtbased.dll
 0001:0005344c       _wsplitpath_s              000000018005444c f   ucrtd:ucrtbased.dll
 0001:00053452       wcscpy_s                   0000000180054452 f   ucrtd:ucrtbased.dll
 0001:00053458       RtlCaptureContext          0000000180054458 f   kernel32:KERNEL32.dll
 0001:0005345e       RtlLookupFunctionEntry     000000018005445e f   kernel32:KERNEL32.dll
 0001:00053464       RtlVirtualUnwind           0000000180054464 f   kernel32:KERNEL32.dll
 0001:0005346a       UnhandledExceptionFilter   000000018005446a f   kernel32:KERNEL32.dll
 0001:00053470       SetUnhandledExceptionFilter 0000000180054470 f   kernel32:KERNEL32.dll
 0001:00053476       TerminateProcess           0000000180054476 f   kernel32:KERNEL32.dll
 0001:0005347c       IsProcessorFeaturePresent  000000018005447c f   kernel32:KERNEL32.dll
 0001:00053482       InitializeSListHead        0000000180054482 f   kernel32:KERNEL32.dll
 0001:00053488       GetModuleHandleW           0000000180054488 f   kernel32:KERNEL32.dll
 0001:0005348e       IsDebuggerPresent          000000018005448e f   kernel32:KERNEL32.dll
 0001:00053494       RaiseException             0000000180054494 f   kernel32:KERNEL32.dll
 0001:0005349a       MultiByteToWideChar        000000018005449a f   kernel32:KERNEL32.dll
 0001:000534a0       WideCharToMultiByte        00000001800544a0 f   kernel32:KERNEL32.dll
 0001:000534a6       GetStartupInfoW            00000001800544a6 f   kernel32:KERNEL32.dll
 0001:000534ac       GetCurrentProcessId        00000001800544ac f   kernel32:KERNEL32.dll
 0001:000534b2       GetSystemTimeAsFileTime    00000001800544b2 f   kernel32:KERNEL32.dll
 0001:000534b8       HeapAlloc                  00000001800544b8 f   kernel32:KERNEL32.dll
 0001:000534be       HeapFree                   00000001800544be f   kernel32:KERNEL32.dll
 0001:000534c4       GetProcessHeap             00000001800544c4 f   kernel32:KERNEL32.dll
 0001:000534ca       VirtualQuery               00000001800544ca f   kernel32:KERNEL32.dll
 0001:000534d0       __scrt_stub_for_acrt_initialize 00000001800544d0 f   MSVCRTD:ucrt_stubs.obj
 0001:000534d0       __vcrt_initialize          00000001800544d0 f   MSVCRTD:ucrt_stubs.obj
 0001:000534d0       __acrt_initialize          00000001800544d0 f   MSVCRTD:ucrt_stubs.obj
 0001:000534e0       __acrt_thread_attach       00000001800544e0 f   MSVCRTD:ucrt_stubs.obj
 0001:000534e0       __scrt_stub_for_acrt_thread_attach 00000001800544e0 f   MSVCRTD:ucrt_stubs.obj
 0001:000534e0       __vcrt_thread_attach       00000001800544e0 f   MSVCRTD:ucrt_stubs.obj
 0001:000534f0       __acrt_thread_detach       00000001800544f0 f   MSVCRTD:ucrt_stubs.obj
 0001:000534f0       __vcrt_thread_detach       00000001800544f0 f   MSVCRTD:ucrt_stubs.obj
 0001:000534f0       __scrt_stub_for_acrt_thread_detach 00000001800544f0 f   MSVCRTD:ucrt_stubs.obj
 0001:00053500       __scrt_stub_for_acrt_uninitialize 0000000180054500 f   MSVCRTD:ucrt_stubs.obj
 0001:00053500       __vcrt_uninitialize        0000000180054500 f   MSVCRTD:ucrt_stubs.obj
 0001:00053500       __acrt_uninitialize        0000000180054500 f   MSVCRTD:ucrt_stubs.obj
 0001:00053510       __acrt_uninitialize_critical 0000000180054510 f   MSVCRTD:ucrt_stubs.obj
 0001:00053510       __scrt_stub_for_acrt_uninitialize_critical 0000000180054510 f   MSVCRTD:ucrt_stubs.obj
 0001:00053510       __vcrt_uninitialize_critical 0000000180054510 f   MSVCRTD:ucrt_stubs.obj
 0001:00053520       _is_c_termination_complete 0000000180054520 f   MSVCRTD:ucrt_stubs.obj
 0001:00053520       __scrt_stub_for_is_c_termination_complete 0000000180054520 f   MSVCRTD:ucrt_stubs.obj
 0001:00053540       _guard_dispatch_icall_nop  0000000180054540 f   MSVCRTD:guard_dispatch.obj
 0002:00000000       __imp_SwitchToThread       0000000180057000     kernel32:KERNEL32.dll
 0002:00000008       __imp_CloseHandle          0000000180057008     kernel32:KERNEL32.dll
 0002:00000010       __imp_SetEvent             0000000180057010     kernel32:KERNEL32.dll
 0002:00000018       __imp_WaitForSingleObjectEx 0000000180057018     kernel32:KERNEL32.dll
 0002:00000020       __imp_GetLastError         0000000180057020     kernel32:KERNEL32.dll
 0002:00000028       __imp_SetErrorMode         0000000180057028     kernel32:KERNEL32.dll
 0002:00000030       __imp_FreeLibrary          0000000180057030     kernel32:KERNEL32.dll
 0002:00000038       __imp_GetModuleFileNameA   0000000180057038     kernel32:KERNEL32.dll
 0002:00000040       __imp_GetModuleHandleExA   0000000180057040     kernel32:KERNEL32.dll
 0002:00000048       __imp_GetProcAddress       0000000180057048     kernel32:KERNEL32.dll
 0002:00000050       __imp_LoadLibraryA         0000000180057050     kernel32:KERNEL32.dll
 0002:00000058       __imp_GetEnvironmentVariableA 0000000180057058     kernel32:KERNEL32.dll
 0002:00000060       __imp_InitializeCriticalSection 0000000180057060     kernel32:KERNEL32.dll
 0002:00000068       __imp_EnterCriticalSection 0000000180057068     kernel32:KERNEL32.dll
 0002:00000070       __imp_LeaveCriticalSection 0000000180057070     kernel32:KERNEL32.dll
 0002:00000078       __imp_GetCurrentThreadId   0000000180057078     kernel32:KERNEL32.dll
 0002:00000080       __imp_lstrcmpA             0000000180057080     kernel32:KERNEL32.dll
 0002:00000088       __imp_ReleaseSemaphore     0000000180057088     kernel32:KERNEL32.dll
 0002:00000090       __imp_CreateSemaphoreW     0000000180057090     kernel32:KERNEL32.dll
 0002:00000098       __imp_TlsAlloc             0000000180057098     kernel32:KERNEL32.dll
 0002:000000a0       __imp_TlsGetValue          00000001800570a0     kernel32:KERNEL32.dll
 0002:000000a8       __imp_TlsSetValue          00000001800570a8     kernel32:KERNEL32.dll
 0002:000000b0       __imp_TlsFree              00000001800570b0     kernel32:KERNEL32.dll
 0002:000000b8       __imp_InitializeCriticalSectionAndSpinCount 00000001800570b8     kernel32:KERNEL32.dll
 0002:000000c0       __imp_TryEnterCriticalSection 00000001800570c0     kernel32:KERNEL32.dll
 0002:000000c8       __imp_DeleteCriticalSection 00000001800570c8     kernel32:KERNEL32.dll
 0002:000000d0       __imp_SetLastError         00000001800570d0     kernel32:KERNEL32.dll
 0002:000000d8       __imp_QueryPerformanceFrequency 00000001800570d8     kernel32:KERNEL32.dll
 0002:000000e0       __imp_ResetEvent           00000001800570e0     kernel32:KERNEL32.dll
 0002:000000e8       __imp_CreateEventA         00000001800570e8     kernel32:KERNEL32.dll
 0002:000000f0       __imp_QueryPerformanceCounter 00000001800570f0     kernel32:KERNEL32.dll
 0002:000000f8       __imp_Sleep                00000001800570f8     kernel32:KERNEL32.dll
 0002:00000100       __imp_ResumeThread         0000000180057100     kernel32:KERNEL32.dll
 0002:00000108       __imp_GetSystemInfo        0000000180057108     kernel32:KERNEL32.dll
 0002:00000110       __imp_FormatMessageA       0000000180057110     kernel32:KERNEL32.dll
 0002:00000118       __imp_GetCurrentProcess    0000000180057118     kernel32:KERNEL32.dll
 0002:00000120       __imp_GetCurrentThread     0000000180057120     kernel32:KERNEL32.dll
 0002:00000128       __imp_GetNativeSystemInfo  0000000180057128     kernel32:KERNEL32.dll
 0002:00000130       __imp_GetProcessAffinityMask 0000000180057130     kernel32:KERNEL32.dll
 0002:00000138       __imp_CreateEventW         0000000180057138     kernel32:KERNEL32.dll
 0002:00000140       __imp_GetProcessHeap       0000000180057140     kernel32:KERNEL32.dll
 0002:00000148       __imp_HeapFree             0000000180057148     kernel32:KERNEL32.dll
 0002:00000150       __imp_HeapAlloc            0000000180057150     kernel32:KERNEL32.dll
 0002:00000158       __imp_GetSystemTimeAsFileTime 0000000180057158     kernel32:KERNEL32.dll
 0002:00000160       __imp_GetCurrentProcessId  0000000180057160     kernel32:KERNEL32.dll
 0002:00000168       __imp_GetStartupInfoW      0000000180057168     kernel32:KERNEL32.dll
 0002:00000170       __imp_WideCharToMultiByte  0000000180057170     kernel32:KERNEL32.dll
 0002:00000178       __imp_MultiByteToWideChar  0000000180057178     kernel32:KERNEL32.dll
 0002:00000180       __imp_RaiseException       0000000180057180     kernel32:KERNEL32.dll
 0002:00000188       __imp_IsDebuggerPresent    0000000180057188     kernel32:KERNEL32.dll
 0002:00000190       __imp_GetModuleHandleW     0000000180057190     kernel32:KERNEL32.dll
 0002:00000198       __imp_InitializeSListHead  0000000180057198     kernel32:KERNEL32.dll
 0002:000001a0       __imp_IsProcessorFeaturePresent 00000001800571a0     kernel32:KERNEL32.dll
 0002:000001a8       __imp_TerminateProcess     00000001800571a8     kernel32:KERNEL32.dll
 0002:000001b0       __imp_SetUnhandledExceptionFilter 00000001800571b0     kernel32:KERNEL32.dll
 0002:000001b8       __imp_UnhandledExceptionFilter 00000001800571b8     kernel32:KERNEL32.dll
 0002:000001c0       __imp_RtlVirtualUnwind     00000001800571c0     kernel32:KERNEL32.dll
 0002:000001c8       __imp_RtlLookupFunctionEntry 00000001800571c8     kernel32:KERNEL32.dll
 0002:000001d0       __imp_RtlCaptureContext    00000001800571d0     kernel32:KERNEL32.dll
 0002:000001d8       __imp_VirtualQuery         00000001800571d8     kernel32:KERNEL32.dll
 0002:000001e0       \177KERNEL32_NULL_THUNK_DATA 00000001800571e0     kernel32:KERNEL32.dll
 0002:000001e8       __imp_?_Xlength_error@std@@YAXPEBD@Z 00000001800571e8     msvcprtd:MSVCP140D.dll
 0002:000001f0       __imp_?__ExceptionPtrRethrow@@YAXPEBX@Z 00000001800571f0     msvcprtd:MSVCP140D.dll
 0002:000001f8       __imp_??1_Lockit@std@@QEAA@XZ 00000001800571f8     msvcprtd:MSVCP140D.dll
 0002:00000200       __imp_??0_Lockit@std@@QEAA@H@Z 0000000180057200     msvcprtd:MSVCP140D.dll
 0002:00000208       __imp_?__ExceptionPtrCopyException@@YAXPEAXPEBX1@Z 0000000180057208     msvcprtd:MSVCP140D.dll
 0002:00000210       __imp_?__ExceptionPtrCurrentException@@YAXPEAX@Z 0000000180057210     msvcprtd:MSVCP140D.dll
 0002:00000218       __imp_?__ExceptionPtrCopy@@YAXPEAXPEBX@Z 0000000180057218     msvcprtd:MSVCP140D.dll
 0002:00000220       __imp_?__ExceptionPtrCreate@@YAXPEAX@Z 0000000180057220     msvcprtd:MSVCP140D.dll
 0002:00000228       __imp_?__ExceptionPtrDestroy@@YAXPEAX@Z 0000000180057228     msvcprtd:MSVCP140D.dll
 0002:00000230       \177MSVCP140D_NULL_THUNK_DATA 0000000180057230     msvcprtd:MSVCP140D.dll
 0002:00000238       __imp___std_type_info_name 0000000180057238     vcruntimed:VCRUNTIME140D.dll
 0002:00000240       __imp___vcrt_GetModuleFileNameW 0000000180057240     vcruntimed:VCRUNTIME140D.dll
 0002:00000248       __imp___C_specific_handler_noexcept 0000000180057248     vcruntimed:VCRUNTIME140D.dll
 0002:00000250       __imp___std_type_info_destroy_list 0000000180057250     vcruntimed:VCRUNTIME140D.dll
 0002:00000258       __imp___C_specific_handler 0000000180057258     vcruntimed:VCRUNTIME140D.dll
 0002:00000260       __imp_memcpy               0000000180057260     vcruntimed:VCRUNTIME140D.dll
 0002:00000268       __imp___RTDynamicCast      0000000180057268     vcruntimed:VCRUNTIME140D.dll
 0002:00000270       __imp___vcrt_LoadLibraryExW 0000000180057270     vcruntimed:VCRUNTIME140D.dll
 0002:00000278       __imp__purecall            0000000180057278     vcruntimed:VCRUNTIME140D.dll
 0002:00000280       __imp_memset               0000000180057280     vcruntimed:VCRUNTIME140D.dll
 0002:00000288       __imp__CxxThrowException   0000000180057288     vcruntimed:VCRUNTIME140D.dll
 0002:00000290       __imp___CxxFrameHandler3   0000000180057290     vcruntimed:VCRUNTIME140D.dll
 0002:00000298       __imp_strrchr              0000000180057298     vcruntimed:VCRUNTIME140D.dll
 0002:000002a0       __imp___std_exception_copy 00000001800572a0     vcruntimed:VCRUNTIME140D.dll
 0002:000002a8       __imp___std_exception_destroy 00000001800572a8     vcruntimed:VCRUNTIME140D.dll
 0002:000002b0       __imp___RTtypeid           00000001800572b0     vcruntimed:VCRUNTIME140D.dll
 0002:000002b8       __imp___vcrt_GetModuleHandleW 00000001800572b8     vcruntimed:VCRUNTIME140D.dll
 0002:000002c0       \177VCRUNTIME140D_NULL_THUNK_DATA 00000001800572c0     vcruntimed:VCRUNTIME140D.dll
 0002:000002c8       __imp_getenv               00000001800572c8     ucrtd:ucrtbased.dll
 0002:000002d0       __imp_strspn               00000001800572d0     ucrtd:ucrtbased.dll
 0002:000002d8       __imp__CrtDbgReportW       00000001800572d8     ucrtd:ucrtbased.dll
 0002:000002e0       __imp_terminate            00000001800572e0     ucrtd:ucrtbased.dll
 0002:000002e8       __imp__callnewh            00000001800572e8     ucrtd:ucrtbased.dll
 0002:000002f0       __imp__seh_filter_dll      00000001800572f0     ucrtd:ucrtbased.dll
 0002:000002f8       __imp__configure_narrow_argv 00000001800572f8     ucrtd:ucrtbased.dll
 0002:00000300       __imp_strerror             0000000180057300     ucrtd:ucrtbased.dll
 0002:00000308       __imp__initialize_onexit_table 0000000180057308     ucrtd:ucrtbased.dll
 0002:00000310       __imp__register_onexit_function 0000000180057310     ucrtd:ucrtbased.dll
 0002:00000318       __imp__execute_onexit_table 0000000180057318     ucrtd:ucrtbased.dll
 0002:00000320       __imp__crt_atexit          0000000180057320     ucrtd:ucrtbased.dll
 0002:00000328       __imp__crt_at_quick_exit   0000000180057328     ucrtd:ucrtbased.dll
 0002:00000330       __imp__cexit               0000000180057330     ucrtd:ucrtbased.dll
 0002:00000338       __imp__free_dbg            0000000180057338     ucrtd:ucrtbased.dll
 0002:00000340       __imp__initterm            0000000180057340     ucrtd:ucrtbased.dll
 0002:00000348       __imp__initterm_e          0000000180057348     ucrtd:ucrtbased.dll
 0002:00000350       __imp_strcpy_s             0000000180057350     ucrtd:ucrtbased.dll
 0002:00000358       __imp_strcat_s             0000000180057358     ucrtd:ucrtbased.dll
 0002:00000360       __imp___stdio_common_vsprintf_s 0000000180057360     ucrtd:ucrtbased.dll
 0002:00000368       __imp__wmakepath_s         0000000180057368     ucrtd:ucrtbased.dll
 0002:00000370       __imp__wsplitpath_s        0000000180057370     ucrtd:ucrtbased.dll
 0002:00000378       __imp_wcscpy_s             0000000180057378     ucrtd:ucrtbased.dll
 0002:00000380       __imp_strncpy              0000000180057380     ucrtd:ucrtbased.dll
 0002:00000388       __imp___stdio_common_vsprintf 0000000180057388     ucrtd:ucrtbased.dll
 0002:00000390       __imp_fputs                0000000180057390     ucrtd:ucrtbased.dll
 0002:00000398       __imp___stdio_common_vfprintf 0000000180057398     ucrtd:ucrtbased.dll
 0002:000003a0       __imp___acrt_iob_func      00000001800573a0     ucrtd:ucrtbased.dll
 0002:000003a8       __imp_exit                 00000001800573a8     ucrtd:ucrtbased.dll
 0002:000003b0       __imp__errno               00000001800573b0     ucrtd:ucrtbased.dll
 0002:000003b8       __imp__beginthreadex       00000001800573b8     ucrtd:ucrtbased.dll
 0002:000003c0       __imp_free                 00000001800573c0     ucrtd:ucrtbased.dll
 0002:000003c8       __imp_malloc               00000001800573c8     ucrtd:ucrtbased.dll
 0002:000003d0       __imp__strdup              00000001800573d0     ucrtd:ucrtbased.dll
 0002:000003d8       __imp_strncpy_s            00000001800573d8     ucrtd:ucrtbased.dll
 0002:000003e0       __imp_wcscmp               00000001800573e0     ucrtd:ucrtbased.dll
 0002:000003e8       __imp__wcsdup              00000001800573e8     ucrtd:ucrtbased.dll
 0002:000003f0       __imp_strlen               00000001800573f0     ucrtd:ucrtbased.dll
 0002:000003f8       __imp_strcpy               00000001800573f8     ucrtd:ucrtbased.dll
 0002:00000400       __imp_strcat               0000000180057400     ucrtd:ucrtbased.dll
 0002:00000408       __imp__CrtDbgReport        0000000180057408     ucrtd:ucrtbased.dll
 0002:00000410       __imp__invalid_parameter   0000000180057410     ucrtd:ucrtbased.dll
 0002:00000418       __imp__initialize_narrow_environment 0000000180057418     ucrtd:ucrtbased.dll
 0002:00000420       \177ucrtbased_NULL_THUNK_DATA 0000000180057420     ucrtd:ucrtbased.dll
 0002:00000428       __guard_check_icall_fptr   0000000180057428     MSVCRTD:guard_support.obj
 0002:00000430       __guard_dispatch_icall_fptr 0000000180057430     MSVCRTD:guard_support.obj
 0002:00000438       __xc_a                     0000000180057438     MSVCRTD:initializers.obj
 0002:00000480       __xc_z                     0000000180057480     MSVCRTD:initializers.obj
 0002:00000488       __xi_a                     0000000180057488     MSVCRTD:initializers.obj
 0002:00000498       __xi_z                     0000000180057498     MSVCRTD:initializers.obj
 0002:000004a0       __xl_a                     00000001800574a0     MSVCRTD:tlssup.obj
 0002:000004a8       __xl_z                     00000001800574a8     MSVCRTD:tlssup.obj
 0002:000004b0       __xp_a                     00000001800574b0     MSVCRTD:initializers.obj
 0002:000004b8       __xp_z                     00000001800574b8     MSVCRTD:initializers.obj
 0002:000004c0       __xt_a                     00000001800574c0     MSVCRTD:initializers.obj
 0002:000004c8       __xt_z                     00000001800574c8     MSVCRTD:initializers.obj
 0002:000013d0       ??_7concurrent_queue_base_v3@internal@tbb@@6B@ 00000001800583d0     concurrent_queue.obj
 0002:00001400       ??_C@_0BG@NCNHOMPJ@the?5list?5is?5not?5empty@ 0000000180058400     concurrent_queue.obj
 0002:00001418       ??_C@_0CF@KIMHCJNJ@head?4next?$DN?$DN?$CGhead?5?$CG?$CG?5head?4prev?$DN?$DN@ 0000000180058418     concurrent_queue.obj
 0002:00001440       ??_C@_0CL@MKHFKPCF@g?3?2github?2tbb?2src?2tbb?2concurren@ 0000000180058440     concurrent_queue.obj
 0002:00001470       ??_C@_0CN@PJOPKBDC@attempt?5to?5remove?5an?5item?5from?5@ 0000000180058470     concurrent_queue.obj
 0002:000014a0       ??_C@_09DMMLFBJB@count?5?$DO?50@ 00000001800584a0     concurrent_queue.obj
 0002:000014b0       ??_C@_0DC@HHMBEOFF@use?5of?5commit_wait?$CI?$CJ?5without?5pr@ 00000001800584b0     concurrent_queue.obj
 0002:000014e8       ??_C@_09FABKCACJ@thr?4ready@ 00000001800584e8     concurrent_queue.obj
 0002:000014f8       ??_C@_0BE@EJJDCDNJ@still?5in?5the?5queue?$DP@ 00000001800584f8     concurrent_queue.obj
 0002:00001510       ??_C@_0BA@CPHLNOGI@?$CBthr?4in_waitset@ 0000000180058510     concurrent_queue.obj
 0002:00001520       ??_C@_01JBBJJEPG@p@        0000000180058520     concurrent_queue.obj
 0002:00001528       ??_C@_0CL@JCJIOHJO@g?3?2github?2tbb?2src?2tbb?2concurren@ 0000000180058528     concurrent_queue.obj
 0002:00001558       ??_C@_0CB@NEAGOMBI@Divisor?5should?5be?5a?5power?5of?5tw@ 0000000180058558     concurrent_queue.obj
 0002:00001580       ??_C@_0BJ@FFGCKCGK@is_power_of_two?$CIdivisor?$CJ@ 0000000180058580     concurrent_queue.obj
 0002:000015a0       ??_C@_0CH@KFOGKOBA@g?3?2github?2tbb?2include?2tbb?2tbb_s@ 00000001800585a0     concurrent_queue.obj
 0002:000026c8       ??_C@_02DKCKIIND@?$CFs@    00000001800596c8     concurrent_vector.obj
 0002:000026d0       ??_C@_0FF@BOFMBGMJ@g?3?2microsoft?5visual?5studio?22017@ 00000001800596d0     concurrent_vector.obj
 0002:00002730       ??_C@_1KK@KKLLPDPE@?$AAg?$AA?3?$AA?2?$AAm?$AAi?$AAc?$AAr?$AAo?$AAs?$AAo?$AAf?$AAt?$AA?5?$AAv?$AAi@ 0000000180059730     concurrent_vector.obj
 0002:000027e0       ??_C@_0CA@LKPOEAOC@should?5have?5been?5freed?5by?5clear@ 00000001800597e0     concurrent_vector.obj
 0002:00002800       ??_C@_0CH@LPHMJFBJ@load?$DMrelaxed?$DO?$CI?$CJ?5?$CB?$DN?5segment_allo@ 0000000180059800     concurrent_vector.obj
 0002:00002828       ??_C@_0CO@CABKBIPL@g?3?2github?2tbb?2include?2tbb?2concu@ 0000000180059828     concurrent_vector.obj
 0002:00002858       ??_C@_0BA@LIFNIGJ@start?5?$DM?$DN?5finish@ 0000000180059858     concurrent_vector.obj
 0002:00002868       ??_C@_0CM@LEMMEBGG@g?3?2github?2tbb?2src?2tbb?2concurren@ 0000000180059868     concurrent_vector.obj
 0002:00002898       ??_C@_0BH@JGMCJCL@first_block?5?$HM?$HM?5?$CBfinish@ 0000000180059898     concurrent_vector.obj
 0002:000028b0       ??_C@_0O@KKLAEBPF@base?5?$DM?$DN?5start@ 00000001800598b0     concurrent_vector.obj
 0002:000028c0       ??_C@_0FN@KNAKKIKK@other?5overloads?5of?5store?5should@ 00000001800598c0     concurrent_vector.obj
 0002:00002920       ??_C@_0EC@MHPKPLNC@segment_value_t?$CIallocated_segme@ 0000000180059920     concurrent_vector.obj
 0002:00002970       ??_C@_0EL@EBFKNEI@transition?5from?5?$CCallocated?$CC?5to?5@ 0000000180059970     concurrent_vector.obj
 0002:000029c0       ??_C@_0BB@KBEKGHFK@integer?5overflow@ 00000001800599c0     concurrent_vector.obj
 0002:000029d8       ??_C@_1CM@MJCLAPGA@?$AAs?$AAt?$AAd?$AA?3?$AA?3?$AA_?$AAG?$AAe?$AAt?$AA_?$AAu?$AAn?$AAw?$AAr?$AAa@ 00000001800599d8     concurrent_vector.obj
 0002:00002a08       ??_C@_1CG@NMONALKO@?$AA?$CC?$AAi?$AAn?$AAt?$AAe?$AAg?$AAe?$AAr?$AA?5?$AAo?$AAv?$AAe?$AAr?$AAf?$AAl@ 0000000180059a08     concurrent_vector.obj
 0002:00002a30       ??_C@_0CN@MJBFFPFE@cannot?5seek?5value?9initialized?5a@ 0000000180059a30     concurrent_vector.obj
 0002:00002a60       ??_C@_1NC@FAKBNOIA@?$AAs?$AAt?$AAd?$AA?3?$AA?3?$AA_?$AAA?$AAr?$AAr?$AAa?$AAy?$AA_?$AAc?$AAo?$AAn@ 0000000180059a60     concurrent_vector.obj
 0002:00002b40       ??_C@_1FO@OCIBMCIE@?$AA?$CC?$AAc?$AAa?$AAn?$AAn?$AAo?$AAt?$AA?5?$AAs?$AAe?$AAe?$AAk?$AA?5?$AAv?$AAa@ 0000000180059b40     concurrent_vector.obj
 0002:00002ba0       ??_C@_0CI@IAJIKPDP@cannot?5seek?5array?5iterator?5befo@ 0000000180059ba0     concurrent_vector.obj
 0002:00002bd0       ??_C@_1FE@BIMEFIOA@?$AA?$CC?$AAc?$AAa?$AAn?$AAn?$AAo?$AAt?$AA?5?$AAs?$AAe?$AAe?$AAk?$AA?5?$AAa?$AAr@ 0000000180059bd0     concurrent_vector.obj
 0002:00002c28       ??_C@_0CF@LAPJIGDB@cannot?5seek?5array?5iterator?5afte@ 0000000180059c28     concurrent_vector.obj
 0002:00002c50       ??_C@_1EO@EJLAFFGM@?$AA?$CC?$AAc?$AAa?$AAn?$AAn?$AAo?$AAt?$AA?5?$AAs?$AAe?$AAe?$AAk?$AA?5?$AAa?$AAr@ 0000000180059c50     concurrent_vector.obj
 0002:00002ca0       ??_C@_0BJ@HAJGEHKO@transposed?5pointer?5range@ 0000000180059ca0     concurrent_vector.obj
 0002:00002cc0       ??_C@_1CG@LJCPDKEJ@?$AAs?$AAt?$AAd?$AA?3?$AA?3?$AA_?$AAV?$AAe?$AAr?$AAi?$AAf?$AAy?$AA_?$AAr?$AAa@ 0000000180059cc0     concurrent_vector.obj
 0002:00002ce8       ??_C@_1DG@FJIKMGFD@?$AA?$CC?$AAt?$AAr?$AAa?$AAn?$AAs?$AAp?$AAo?$AAs?$AAe?$AAd?$AA?5?$AAp?$AAo?$AAi@ 0000000180059ce8     concurrent_vector.obj
 0002:00003130       ??_C@_0BM@JGJMBPHJ@Too?5many?5modules?5are?5loaded@ 000000018005a130     dynamic_link.obj
 0002:00003150       ??_C@_07EJHLHDPE@ind?5?$DM?58@ 000000018005a150     dynamic_link.obj
 0002:00003158       ??_C@_0CH@LJIMCMCL@g?3?2github?2tbb?2src?2tbb?2dynamic_l@ 000000018005a158     dynamic_link.obj
 0002:000060b8       ??_7task@tbb@@6B@          000000018005d0b8     pipeline.obj
 0002:000060d0       ??_C@_0BF@FLEJEMAB@execute?5not?5running?$DP@ 000000018005d0d0     pipeline.obj
 0002:000060e8       ??_C@_0BK@BLKDHJIK@prefix?$CI?$CJ?4state?$DN?$DNexecuting@ 000000018005d0e8     pipeline.obj
 0002:00006108       ??_C@_0CB@GKDIAHFD@g?3?2github?2tbb?2include?2tbb?2task?4@ 000000018005d108     pipeline.obj
 0002:00006138       ??_7filter@tbb@@6B@        000000018005d138     pipeline.obj
 0002:00006158       ??_7pipeline@tbb@@6B@      000000018005d158     pipeline.obj
 0002:00006160       ??_C@_07DEMLHIDL@?$CBmy_sem@ 000000018005d160     pipeline.obj
 0002:00006168       ??_C@_0CD@NGFNPNF@g?3?2github?2tbb?2src?2tbb?2pipeline?4@ 000000018005d168     pipeline.obj
 0002:0000618c       ??_C@_06PJFJBKOE@my_sem@   000000018005d18c     pipeline.obj
 0002:00006194       ??_C@_05HIFJDKLD@array@    000000018005d194     pipeline.obj
 0002:000061a0       ??_C@_0CC@OJFIPBCH@?$CItokendiff_t?$CJ?$CItoken?9low_token?$CJ?$DO@ 000000018005d1a0     pipeline.obj
 0002:000061c8       ??_C@_0BN@OAIFFPEB@TLS?5not?5allocated?5for?5filter@ 000000018005d1c8     pipeline.obj
 0002:000061e8       ??_C@_0BN@LCAOOCFI@Failed?5to?5destroy?5filter?5TLS@ 000000018005d1e8     pipeline.obj
 0002:00006210       ??_7stage_task@internal@tbb@@6B@ 000000018005d210     pipeline.obj
 0002:00006228       ??_C@_0DC@FJGKNBB@Trying?5to?5finalize?5the?5task?5tha@ 000000018005d228     pipeline.obj
 0002:00006260       ??_C@_0P@PMGHPDFJ@is_cancelled?$CI?$CJ@ 000000018005d260     pipeline.obj
 0002:00006278       ??_7pipeline_root_task@internal@tbb@@6B@ 000000018005d278     pipeline.obj
 0002:00006290       ??_C@_0BI@HDJOOCC@filter?5is?5thread?9bound?$DP@ 000000018005d290     pipeline.obj
 0002:000062a8       ??_C@_0BM@EKBMLCCI@?$CBcurrent_filter?9?$DOis_bound?$CI?$CJ@ 000000018005d2a8     pipeline.obj
 0002:000062c8       ??_C@_0CF@ELPNJBIG@previous?5filter?5is?5not?5thread?9b@ 000000018005d2c8     pipeline.obj
 0002:000062f0       ??_C@_0DE@MFDJBKCP@current_filter?9?$DOprev_filter_in_@ 000000018005d2f0     pipeline.obj
 0002:00006328       ??_C@_0BF@HJPGMKEL@token?5counting?5error@ 000000018005d328     pipeline.obj
 0002:00006340       ??_C@_0CJ@JJIHJCLA@refcnt?5?$DM?$DN?5int?$CImy_pipeline?4token@ 000000018005d340     pipeline.obj
 0002:00006370       ??_C@_0BI@GHAGBPIJ@my_pipeline?4filter_list@ 000000018005d370     pipeline.obj
 0002:00008e00       ??_C@_0CK@JFFIOEDN@g?3?2github?2tbb?2include?2tbb?2spin_@ 000000018005fe00     x86_rtm_rw_mutex.obj
 0002:00008e30       ??_C@_0BG@BEFAEEMA@holding?5mutex?5already@ 000000018005fe30     x86_rtm_rw_mutex.obj
 0002:00008e48       ??_C@_06MDKGKMGM@?$CBmutex@ 000000018005fe48     x86_rtm_rw_mutex.obj
 0002:00008e50       ??_C@_0BG@OJIPJPBB@mutex?5is?5not?5acquired@ 000000018005fe50     x86_rtm_rw_mutex.obj
 0002:00008e68       ??_C@_05IGMCOAJJ@mutex@    000000018005fe68     x86_rtm_rw_mutex.obj
 0002:00009bf0       ??_C@_0CI@FKHHBFIM@QueryPerformanceFrequency?5retur@ 0000000180060bf0     condition_variable.obj
 0002:00009c18       ??_C@_04HEMGMBLB@rval@     0000000180060c18     condition_variable.obj
 0002:00009c20       ??_C@_0CH@CBBEJFNI@g?3?2github?2tbb?2include?2tbb?2tick_@ 0000000180060c20     condition_variable.obj
 0002:00009c48       __real@3ff0000000000000    0000000180060c48     condition_variable.obj
 0002:00009c50       __real@408f400000000000    0000000180060c50     condition_variable.obj
 0002:00009ea8       ??_C@_0BP@PLJHCHPC@QueryPerformanceCounter?5failed@ 0000000180060ea8     tbb_thread.obj
 0002:00009ec8       ??_C@_0BC@DBAKKFEN@Invalid?5parameter@ 0000000180060ec8     tbb_thread.obj
 0002:00009ee0       ??_C@_0CL@IJCCNLG@g?3?2github?2tbb?2include?2tbb?2globa@ 0000000180060ee0     tbb_thread.obj
 0002:00009f10       ??_C@_0BC@JJJOOGFM@p?5?$DM?5parameter_max@ 0000000180060f10     tbb_thread.obj
 0002:00009f28       __real@41efffffffe00000    0000000180060f28     tbb_thread.obj
 0002:0000aa28       ??_7versioned_object@rml@@6B@ 0000000180061a28     private_server.obj
 0002:0000aa38       ??_7server@rml@@6B@        0000000180061a38     private_server.obj
 0002:0000aa68       ??_7tbb_server@rml@internal@tbb@@6B@ 0000000180061a68     private_server.obj
 0002:0000aaa8       ??_C@_0CP@ECLIENFE@thread_monitor?3?3launch?3?5_begint@ 0000000180061aa8     private_server.obj
 0002:0000aad8       ??_C@_05LAPONLG@false@     0000000180061ad8     private_server.obj
 0002:0000aae8       ??_7private_server@rml@internal@tbb@@6B@ 0000000180061ae8     private_server.obj
 0002:0000ab30       ??_C@_0CJ@PGPOMAPC@g?3?2github?2tbb?2src?2tbb?2private_s@ 0000000180061b30     private_server.obj
 0002:0000ab60       ??_C@_0L@OCONFJAJ@s?$DN?$DNst_quit@ 0000000180061b60     private_server.obj
 0002:0000ab70       ??_C@_0DJ@IIFFPPJI@Should?5not?5wake?5a?5thread?5while?5@ 0000000180061b70     private_server.obj
 0002:0000abb0       ??_C@_08HIPBKMAG@?$CBmy_next@ 0000000180061bb0     private_server.obj
 0002:0000b6b8       ??_7exception@std@@6B@     00000001800626b8     tbb_misc.obj
 0002:0000b6c8       ??_C@_0BC@EOODALEL@Unknown?5exception@ 00000001800626c8     tbb_misc.obj
 0002:0000b6e8       ??_7bad_alloc@std@@6B@     00000001800626e8     tbb_misc.obj
 0002:0000b6f8       ??_C@_0P@GHFPNOJB@bad?5allocation@ 00000001800626f8     tbb_misc.obj
 0002:0000b710       ??_7logic_error@std@@6B@   0000000180062710     tbb_misc.obj
 0002:0000b728       ??_7invalid_argument@std@@6B@ 0000000180062728     tbb_misc.obj
 0002:0000b740       ??_7length_error@std@@6B@  0000000180062740     tbb_misc.obj
 0002:0000b758       ??_7out_of_range@std@@6B@  0000000180062758     tbb_misc.obj
 0002:0000b770       ??_7runtime_error@std@@6B@ 0000000180062770     tbb_misc.obj
 0002:0000b788       ??_7range_error@std@@6B@   0000000180062788     tbb_misc.obj
 0002:0000b7a0       ??_7bad_last_alloc@tbb@@6B@ 00000001800627a0     tbb_misc.obj
 0002:0000b7b8       ??_7improper_lock@tbb@@6B@ 00000001800627b8     tbb_misc.obj
 0002:0000b7d0       ??_7user_abort@tbb@@6B@    00000001800627d0     tbb_misc.obj
 0002:0000b7e8       ??_7missing_wait@tbb@@6B@  00000001800627e8     tbb_misc.obj
 0002:0000b800       ??_7invalid_multiple_scheduling@tbb@@6B@ 0000000180062800     tbb_misc.obj
 0002:0000c690       ??_C@_0CJ@NPKMBLBA@g?3?2github?2tbb?2src?2tbb?2scheduler@ 0000000180063690     task.obj
 0002:0000c6c0       ??_C@_07BHCJEJPF@task?$CB?$DN0@ 00000001800636c0     task.obj
 0002:0000c6c8       ??_C@_0BE@NMBEFKAA@?$CBis_poisoned?$CI?$CGtask?$CJ@ 00000001800636c8     task.obj
 0002:0000c6e0       ??_C@_0BA@EMBLABKF@misaligned?5task@ 00000001800636e0     task.obj
 0002:0000c6f0       ??_C@_0CG@BKBHDKDA@?$CIuintptr_t?$CJtask?5?$CF?5task_alignmen@ 00000001800636f0     task.obj
 0002:0000c718       ??_C@_0BO@KBNGOBAO@task?9?$DOprefix?$CI?$CJ?4ref_count?5?$DO?$DN?50@ 0000000180063718     task.obj
 0002:0000c738       ??_C@_0BN@EHGLMPPM@corrupt?5task?5?$CIinvalid?5state?$CJ@ 0000000180063738     task.obj
 0002:0000c758       ??_C@_0DE@JCDKAFFI@?$CIunsigned?$CJtask?9?$DOstate?$CI?$CJ?$DM?$DN?$CIunsig@ 0000000180063758     task.obj
 0002:0000c790       ??_C@_0CC@LMCJKLAK@g?3?2github?2tbb?2src?2tbb?2scheduler@ 0000000180063790     task.obj
 0002:0000c7b8       ??_C@_08KALFEKOK@my_arena@ 00000001800637b8     task.obj
 0002:0000d968       ??_7tbb_exception@tbb@@6B@ 0000000180064968     task_group_context.obj
 0002:0000d9a0       ??_7captured_exception@tbb@@6B@ 00000001800649a0     task_group_context.obj
 0002:00010c00       ??_C@_0CC@MFNMDHO@p?5?$DO?$DN?50?5?$CG?$CG?5p?5?$DM?5num_priority_leve@ 0000000180067c00     market.obj
 0002:00010c28       ??_C@_0CB@HMEIPHJN@destruction?5of?5an?5acquired?5mute@ 0000000180067c28     market.obj
 0002:00010c4c       ??_C@_06ECFFOEMB@?$CBstate@ 0000000180067c4c     market.obj
 0002:00010c60       ??_7client@rml@@6B@        0000000180067c60     market.obj
 0002:00010ca0       ??_7tbb_client@rml@internal@tbb@@6B@ 0000000180067ca0     market.obj
 0002:00010ce8       ??_7market@internal@tbb@@6B@ 0000000180067ce8     market.obj
 0002:00010d30       ??_C@_0PC@JBKCGBCI@?$CImy_priority_levels?$FLmy_global_t@ 0000000180067d30     market.obj
 0002:00010e28       ??_C@_0BP@KCFANDPC@g?3?2github?2tbb?2src?2tbb?2market?4h@ 0000000180067e28     market.obj
 0002:00010e48       ??_C@_0CF@JJLIEOOD@Element?5to?5remove?5is?5not?5in?5the@ 0000000180067e48     market.obj
 0002:00010e70       ??_C@_0EN@OJCEBKLC@node?$CIval?$CJ?4my_prev_node?5?$CB?$DN?5?$CGnode@ 0000000180067e70     market.obj
 0002:00010ec0       ??_C@_0CH@MLMBBLE@g?3?2github?2tbb?2src?2tbb?2intrusive@ 0000000180067ec0     market.obj
 0002:00010ef0       ??_C@_0GJ@MCBNLHDF@node?$CIval?$CJ?4my_prev_node?9?$DOmy_next@ 0000000180067ef0     market.obj
 0002:00010f60       ??_C@_0FG@ECMKMFAA@Object?5with?5intrusive?5list?5node@ 0000000180067f60     market.obj
 0002:00010fc0       ??_C@_0EN@LEICMHPL@node?$CIval?$CJ?4my_prev_node?5?$DN?$DN?5?$CGnode@ 0000000180067fc0     market.obj
 0002:00011010       ??_C@_0BO@ECOGGHIB@intrusive_list_base?5corrupted@ 0000000180068010     market.obj
 0002:00011030       ??_C@_0GD@OJFKBGDC@?$CImy_head?4my_prev_node?5?$DN?$DN?5?$CGmy_he@ 0000000180068030     market.obj
 0002:00014110       ??_C@_0BJ@LFDBABJJ@ITERATOR?5LIST?5CORRUPTED?$CB@ 000000018006b110     arena.obj
 0002:00014130       ??_C@_1EE@KLDMFDFL@?$AAs?$AAt?$AAd?$AA?3?$AA?3?$AA_?$AAI?$AAt?$AAe?$AAr?$AAa?$AAt?$AAo?$AAr?$AA_@ 000000018006b130     arena.obj
 0002:00014178       ??_C@_1DG@PLBPCAEM@?$AA?$CC?$AAI?$AAT?$AAE?$AAR?$AAA?$AAT?$AAO?$AAR?$AA?5?$AAL?$AAI?$AAS?$AAT?$AA?5@ 000000018006b178     arena.obj
 0002:000141b0       ??_C@_0BH@CBDGOEGG@integer?5overflow?5error@ 000000018006b1b0     arena.obj
 0002:000141c8       ??_C@_0BM@NOGDGACD@ref_count_?$DN?$DNint?$CIref_count_?$CJ@ 000000018006b1c8     arena.obj
 0002:000141f0       ??_7empty_task@tbb@@6B@    000000018006b1f0     arena.obj
 0002:00014208       ??_C@_0BC@JDFJEHHM@my_task_pool_size@ 000000018006b208     arena.obj
 0002:00014220       ??_C@_0CA@IKAHAGJI@g?3?2github?2tbb?2src?2tbb?2mailbox?4h@ 000000018006b220     arena.obj
 0002:00014240       ??_C@_0BP@MNEAKMKM@sizeof?$CI?$CKthis?$CJ?$DN?$DNNFS_MaxLineSize@ 000000018006b240     arena.obj
 0002:00014260       ??_C@_09OBBJHBOG@?$CBmy_first@ 000000018006b260     arena.obj
 0002:00014270       ??_C@_08IBAGIHNA@?$CBmy_last@ 000000018006b270     arena.obj
 0002:00014280       ??_C@_0M@KNJEEGAH@?$CBmy_is_idle@ 000000018006b280     arena.obj
 0002:00014290       ??_C@_0N@IIPOOJBI@not?5attached@ 000000018006b290     arena.obj
 0002:000142a0       ??_C@_09OEPHKDIP@my_putter@ 000000018006b2a0     arena.obj
 0002:000142b0       ??_C@_0DA@EJPFNHBC@attempt?5to?5redundantly?5mark?5mai@ 000000018006b2b0     arena.obj
 0002:000142e0       ??_C@_0BP@JDMDBFAC@my_putter?9?$DOmy_is_idle?5?$HM?$HM?5value@ 000000018006b2e0     arena.obj
 0002:00014300       ??_C@_0CB@KDJNNNFJ@c?5must?5be?5odd?5for?5big?5rng?5perio@ 000000018006b300     arena.obj
 0002:00014324       ??_C@_03NLFEFOO@c?$CG1@    000000018006b324     arena.obj
 0002:00014328       ??_C@_0CB@KOEJKFKG@g?3?2github?2tbb?2src?2tbb?2tbb_misc?4@ 000000018006b328     arena.obj
 0002:00014350       ??_C@_0BO@KFDPICNO@task_group_context?5is?5invalid@ 000000018006b350     arena.obj
 0002:00014370       ??_C@_03DJKOPCOJ@tgc@      000000018006b370     arena.obj
 0002:00014378       ??_C@_0CM@HLNMPAJN@referenced?5task_group_context?5w@ 000000018006b378     arena.obj
 0002:000143a8       ??_C@_0O@JDHKFJME@is_alive?$CIctx?$CJ@ 000000018006b3a8     arena.obj
 0002:000143b8       ??_C@_0DD@GCCMCKLJ@?$CB?$CIctx?$CG?$HO?$CI3?$HM?$CI7?$DM?$DMtask_group_contex@ 000000018006b3b8     arena.obj
 0002:000143f0       ??_C@_0CJ@LFPFLKGK@tgc?9?$DOmy_kind?5?$DM?5task_group_conte@ 000000018006b3f0     arena.obj
 0002:00014420       ??_C@_0EL@PBLIFOPJ@tgc?9?$DOmy_cancellation_requested?5@ 000000018006b420     arena.obj
 0002:00014470       ??_C@_0DJ@LDNDIAH@tgc?9?$DOmy_state?5?$DM?5task_group_cont@ 000000018006b470     arena.obj
 0002:000144b0       ??_C@_0O@DLOLMOAK@tgc?9?$DOmy_owner@ 000000018006b4b0     arena.obj
 0002:000144c0       ??_C@_0CN@NLACLNGC@tgc?9?$DOmy_node?4my_next?5?$CG?$CG?5tgc?9?$DOmy@ 000000018006b4c0     arena.obj
 0002:000144f0       ??_C@_0DA@NDIDNFBO@is_alive?$CItgc?9?$DOmy_parent?9?$DOmy_ver@ 000000018006b4f0     arena.obj
 0002:00014520       ??_C@_06CKCKBIJI@pos?$DO?$DN0@ 000000018006b520     arena.obj
 0002:00014528       ??_C@_0CE@BDPBFMOL@g?3?2github?2tbb?2src?2tbb?2task_stre@ 000000018006b528     arena.obj
 0002:00014550       ??_C@_0CA@GILKEELP@pos?$DMint?$CIsizeof?$CIpopulation_t?$CJ?$CK8?$CJ@ 000000018006b550     arena.obj
 0002:00014578       ??_7task_scheduler_observer_v3@internal@tbb@@6B@ 000000018006b578     arena.obj
 0002:00014598       ??_7task_scheduler_observer@interface6@tbb@@6B@ 000000018006b598     arena.obj
 0002:000145b0       ??_C@_0DH@EPAIFAEG@Inconsistent?5state?5of?5task_sche@ 000000018006b5b0     arena.obj
 0002:000145e8       ??_C@_0P@CGDGEPMD@?$CBmy_busy_count@ 000000018006b5e8     arena.obj
 0002:000145f8       ??_C@_0DE@NGDBNAIK@g?3?2github?2tbb?2include?2tbb?2task_@ 000000018006b5f8     arena.obj
 0002:00014630       ??_C@_0CH@INLOHIMD@g?3?2github?2tbb?2src?2tbb?2observer_@ 000000018006b630     arena.obj
 0002:00014658       ??_C@_0BK@FFKPNNPE@is_alive?$CI?$CIuintptr_t?$CJlast?$CJ@ 000000018006b658     arena.obj
 0002:00014674       ??_C@_04PLGBGIDD@last@     000000018006b674     arena.obj
 0002:00014680       ??_C@_0CF@KAJGPIBO@affinity?5id?5must?5be?5positive?5in@ 000000018006b680     arena.obj
 0002:000146a8       ??_C@_04GEJGKJHB@0?$DMid@  000000018006b6a8     arena.obj
 0002:000146b0       ??_C@_0BO@OLALJDLE@g?3?2github?2tbb?2src?2tbb?2arena?4h@ 000000018006b6b0     arena.obj
 0002:000146d0       ??_C@_0BK@FLEGBGKI@affinity?5id?5out?5of?5bounds@ 000000018006b6d0     arena.obj
 0002:000146f0       ??_C@_0BD@OMMHHPPG@id?5?$DM?$DN?5my_num_slots@ 000000018006b6f0     arena.obj
 0002:00014708       ??_C@_0O@MBNNLPFM@my_arena_slot@ 000000018006b708     arena.obj
 0002:00014718       ??_C@_0BL@ODPIFFEN@Task?5pool?5is?5not?5quiescent@ 000000018006b718     arena.obj
 0002:00014738       ??_C@_0BP@GAMMILEG@is_local_task_pool_quiescent?$CI?$CJ@ 000000018006b738     arena.obj
 0002:00014758       ??_C@_04OIAIIDOD@id?$DO0@  000000018006b758     arena.obj
 0002:00014768       ??_7numa_binding_observer@internal@tbb@@6B@ 000000018006b768     arena.obj
 0002:00014788       ??_7delegated_task@internal@interface7@tbb@@6B@ 000000018006b788     arena.obj
 0002:000147a0       ??_C@_0CB@OMHFKCP@s?4my_innermost_running_task?5?$DN?$DN?5@ 000000018006b7a0     arena.obj
 0002:000147c8       ??_C@_0CA@EFGANEOO@g?3?2github?2tbb?2src?2tbb?2arena?4cpp@ 000000018006b7c8     arena.obj
 0002:000147e8       ??_C@_0DM@HNNILCFL@expected?5to?5be?5enqueued?5and?5rec@ 000000018006b7e8     arena.obj
 0002:00014828       ??_C@_0BE@CFOCPJGK@s?4outermost_level?$CI?$CJ@ 000000018006b828     arena.obj
 0002:00014840       ??_C@_0BK@FMIJOJOB@my_root?9?$DOref_count?$CI?$CJ?5?$DN?$DN?52@ 000000018006b840     arena.obj
 0002:00014868       ??_7?$function_task@Vspawn_functor@graph@interface10@flow@tbb@@@internal@tbb@@6B@ 000000018006b868     arena.obj
 0002:00014888       ??_7wait_task@internal@interface7@tbb@@6B@ 000000018006b888     arena.obj
 0002:000148a0       ??_C@_01LKDEMHDF@s@        000000018006b8a0     arena.obj
 0002:000148a8       ??_C@_0DL@KFGKEBJE@The?5enqueued?5task?5can?5be?5proces@ 000000018006b8a8     arena.obj
 0002:000148e8       ??_C@_0BF@OHGECEBE@s?9?$DOoutermost_level?$CI?$CJ@ 000000018006b8e8     arena.obj
 0002:00014900       ??_C@_0CF@ODNGAPM@s?9?$DOmy_innermost_running_task?5?$DN?$DN@ 000000018006b900     arena.obj
 0002:00014928       ??_C@_0CD@OFNAHHEA@is_bit_set?$CI?5population?$FLlevel?$FN?0?5@ 000000018006b928     arena.obj
 0002:00014950       ??_C@_0BO@CBFHELNN@number?5of?5lanes?5miscalculated@ 000000018006b950     arena.obj
 0002:00014970       ??_C@_0CL@NIIKOCAN@N?$DN?$DNmax_lanes?5?$HM?$HM?5N?$DO?$DNn_lanes?5?$CG?$CG?5?$CI@ 000000018006b970     arena.obj
 0002:000149a0       ??_C@_0BO@GMMHLBMM@N?5?$DM?$DN?5sizeof?$CIpopulation_t?$CJ?5?$CK?58@ 000000018006b9a0     arena.obj
 0002:000149c0       ??_C@_0BD@KHCHLJLI@?$CBpopulation?$FLlevel?$FN@ 000000018006b9c0     arena.obj
 0002:000149d8       ??_C@_0DC@GFMAEIG@cannot?5increment?5value?9initiali@ 000000018006b9d8     arena.obj
 0002:00014a10       ??_C@_0FC@LKFGONNL@g?3?2microsoft?5visual?5studio?22017@ 000000018006ba10     arena.obj
 0002:00014a70       ??_C@_1KE@BEBOENAC@?$AAg?$AA?3?$AA?2?$AAm?$AAi?$AAc?$AAr?$AAo?$AAs?$AAo?$AAf?$AAt?$AA?5?$AAv?$AAi@ 000000018006ba70     arena.obj
 0002:00014b20       ??_C@_1OK@IPOEJLAK@?$AAs?$AAt?$AAd?$AA?3?$AA?3?$AA_?$AAD?$AAe?$AAq?$AAu?$AAe?$AA_?$AAc?$AAo?$AAn@ 000000018006bb20     arena.obj
 0002:00014c10       ??_C@_1GI@POACGDOI@?$AA?$CC?$AAc?$AAa?$AAn?$AAn?$AAo?$AAt?$AA?5?$AAi?$AAn?$AAc?$AAr?$AAe?$AAm?$AAe@ 000000018006bc10     arena.obj
 0002:00014c78       ??_C@_0CJ@GCBJHNIM@cannot?5increment?5deque?5iterator@ 000000018006bc78     arena.obj
 0002:00014cb0       ??_C@_1FG@BGBCEPMC@?$AA?$CC?$AAc?$AAa?$AAn?$AAn?$AAo?$AAt?$AA?5?$AAi?$AAn?$AAc?$AAr?$AAe?$AAm?$AAe@ 000000018006bcb0     arena.obj
 0002:00014d08       ??_C@_0DE@MANMEIKC@cannot?5dereference?5value?9initia@ 000000018006bd08     arena.obj
 0002:00014d40       ??_C@_1OI@HFCPILNI@?$AAs?$AAt?$AAd?$AA?3?$AA?3?$AA_?$AAD?$AAe?$AAq?$AAu?$AAe?$AA_?$AAc?$AAo?$AAn@ 000000018006bd40     arena.obj
 0002:00014e30       ??_C@_1GM@HLAFMPGB@?$AA?$CC?$AAc?$AAa?$AAn?$AAn?$AAo?$AAt?$AA?5?$AAd?$AAe?$AAr?$AAe?$AAf?$AAe?$AAr@ 000000018006be30     arena.obj
 0002:00014ea0       ??_C@_0CN@IEPDPKI@cannot?5deference?5out?5of?5range?5d@ 000000018006bea0     arena.obj
 0002:00014ed0       ??_C@_1FO@KFELHBJF@?$AA?$CC?$AAc?$AAa?$AAn?$AAn?$AAo?$AAt?$AA?5?$AAd?$AAe?$AAf?$AAe?$AAr?$AAe?$AAn@ 000000018006bed0     arena.obj
 0002:00014f30       ??_C@_0BN@DOAGFKAN@deque?5iterators?5incompatible@ 000000018006bf30     arena.obj
 0002:00014f50       ??_C@_1OC@EJJJDGHM@?$AAs?$AAt?$AAd?$AA?3?$AA?3?$AA_?$AAD?$AAe?$AAq?$AAu?$AAe?$AA_?$AAc?$AAo?$AAn@ 000000018006bf50     arena.obj
 0002:00015038       ??_C@_1DO@MEEAMOJI@?$AA?$CC?$AAd?$AAe?$AAq?$AAu?$AAe?$AA?5?$AAi?$AAt?$AAe?$AAr?$AAa?$AAt?$AAo?$AAr@ 000000018006c038     arena.obj
 0002:00015078       ??_C@_0BC@KBDMBKEH@deque?$DMT?$DO?5too?5long@ 000000018006c078     arena.obj
 0002:00015090       ??_C@_0BH@EDKEEENI@deque?5empty?5before?5pop@ 000000018006c090     arena.obj
 0002:000150b0       ??_C@_1KK@IPLLCLGI@?$AAs?$AAt?$AAd?$AA?3?$AA?3?$AAd?$AAe?$AAq?$AAu?$AAe?$AA?$DM?$AAc?$AAl?$AAa?$AAs@ 000000018006c0b0     arena.obj
 0002:00015160       ??_C@_1DC@NJAACHCD@?$AA?$CC?$AAd?$AAe?$AAq?$AAu?$AAe?$AA?5?$AAe?$AAm?$AAp?$AAt?$AAy?$AA?5?$AAb?$AAe@ 000000018006c160     arena.obj
 0002:00015198       ??_C@_0BP@CBDJMBJD@broken?5arena?5reference?5counter@ 000000018006c198     arena.obj
 0002:000151b8       ??_C@_0BL@GOOCMMAL@my_references?5?$DO?$DN?5ref_param@ 000000018006c1b8     arena.obj
 0002:00019b50       ??_7scheduler@internal@tbb@@6B@ 0000000180070b50     scheduler.obj
 0002:00019b78       ??_C@_0BH@PJCFOIOF@?$CBcurr?9?$DOnext_in_mailbox@ 0000000180070b78     scheduler.obj
 0002:00019b90       ??_C@_04PBNCPCJL@curr@     0000000180070b90     scheduler.obj
 0002:00019b98       ??_C@_01PFHFFBPC@t@        0000000180070b98     scheduler.obj
 0002:00019ba8       ??_7generic_scheduler@internal@tbb@@6B@ 0000000180070ba8     scheduler.obj
 0002:00019be0       ??_C@_0BI@CMOLMDHH@RML?5server?5not?5defined?$DP@ 0000000180070be0     scheduler.obj
 0002:00019bf8       ??_C@_09PDIAIGKC@my_server@ 0000000180070bf8     scheduler.obj
 0002:00019c08       ??_C@_0DC@OMPMODAI@Task?5pool?5must?5be?5locked?5when?5r@ 0000000180070c08     scheduler.obj
 0002:00019c40       ??_C@_0DD@IHALEKFF@my_arena_slot?9?$DOtask_pool?5?$DN?$DN?5?$CI?$CIt@ 0000000180070c40     scheduler.obj
 0002:00019c78       ??_C@_0BP@DLJALJOC@task?5deque?5end?5was?5overwritten@ 0000000180070c78     scheduler.obj
 0002:00019c98       ??_C@_0CN@ICKPEFI@new_tail?5?$DM?$DN?5my_arena_slot?9?$DOmy_t@ 0000000180070c98     scheduler.obj
 0002:00019cc8       ??_C@_0DP@GHBJMLBA@Task?5pool?5must?5be?5locked?5when?5c@ 0000000180070cc8     scheduler.obj
 0002:00019d08       ??_C@_0CD@CFIANOHN@The?5proxy?5task?5cannot?5be?5offloa@ 0000000180070d08     scheduler.obj
 0002:00019d30       ??_C@_0N@GOECIDD@?$CBis_proxy?$CIt?$CJ@ 0000000180070d30     scheduler.obj
 0002:00019d40       ??_C@_0EH@OANICANA@my_offloaded_task_list_tail_lin@ 0000000180070d40     scheduler.obj
 0002:00019d90       ??_7?$custom_scheduler@UDefaultSchedulerTraits@internal@tbb@@@internal@tbb@@6B@ 0000000180070d90     scheduler.obj
 0002:00019dd0       ??_7?$custom_scheduler@UIntelSchedulerTraits@internal@tbb@@@internal@tbb@@6B@ 0000000180070dd0     scheduler.obj
 0002:00019e10       ??_C@_0EC@JPJKCONO@?$CBis_task_pool_published?$CI?$CJ?5?$CG?$CG?5is@ 0000000180070e10     scheduler.obj
 0002:00019e58       ??_C@_0CE@BHCELIGE@g?3?2github?2tbb?2src?2tbb?2scheduler@ 0000000180070e58     scheduler.obj
 0002:00019e80       ??_C@_0BO@FFGMFFKH@?$CBmy_arena_slot?9?$DOtask_pool_ptr@ 0000000180070e80     scheduler.obj
 0002:00019ea0       ??_C@_0DH@BMPONNCM@my_arena_slot?9?$DOmy_task_pool_siz@ 0000000180070ea0     scheduler.obj
 0002:00019ed8       ??_C@_0BJ@EBNAOIPB@invalid?5arena?5slot?5index@ 0000000180070ed8     scheduler.obj
 0002:00019ef8       ??_C@_0DF@OAKHJCHO@my_arena_slot?5?$DN?$DN?5my_arena?9?$DOmy_s@ 0000000180070ef8     scheduler.obj
 0002:00019f30       ??_C@_0BI@DDHEOPJ@slot?5ownership?5corrupt?$DP@ 0000000180070f30     scheduler.obj
 0002:00019f50       ??_C@_0ED@DPOFMDLB@tp?5?$DN?$DN?5?$CI?$CItask?$CK?$CK?$CJ?$HO?$CIintptr_t?$CJ0?$CJ?5?$HM?$HM@ 0000000180070f50     scheduler.obj
 0002:00019f98       ??_C@_0BO@BPAKPMEK@not?5really?5acquired?5task?5pool@ 0000000180070f98     scheduler.obj
 0002:00019fb8       ??_C@_0BE@OBDANAJJ@we?5are?5not?5in?5arena@ 0000000180070fb8     scheduler.obj
 0002:00019fd0       ??_C@_0BJ@KAKOPABB@arena?5slot?5is?5not?5locked@ 0000000180070fd0     scheduler.obj
 0002:00019ff0       ??_C@_0CG@DLNDAJCB@not?5really?5locked?5victim?8s?5task@ 0000000180070ff0     scheduler.obj
 0002:0001a020       ??_C@_0IK@MGPPBPLF@victim_task_pool?5?$DN?$DN?5?$CI?$CItask?$CK?$CK?$CJ0?$CJ@ 0000000180071020     scheduler.obj
 0002:0001a0b0       ??_C@_0CA@KPJJIGGI@empty?5victim?5arena?5slot?5pointer@ 00000001800710b0     scheduler.obj
 0002:0001a0d0       ??_C@_0BC@FDIBDHCF@victim_arena_slot@ 00000001800710d0     scheduler.obj
 0002:0001a0e8       ??_C@_0CA@PNKDECOB@victim?5arena?5slot?5is?5not?5locked@ 00000001800710e8     scheduler.obj
 0002:0001a108       ??_C@_0DH@EKDIAKJL@victim_arena_slot?9?$DOtask_pool?5?$DN?$DN@ 0000000180071108     scheduler.obj
 0002:0001a140       ??_C@_0DH@EOPIIHGK@attempt?5to?5spawn?5task?5that?5is?5n@ 0000000180071140     scheduler.obj
 0002:0001a178       ??_C@_0BM@PKOLENLD@t?9?$DOstate?$CI?$CJ?$DN?$DNtask?3?3allocated@ 0000000180071178     scheduler.obj
 0002:0001a198       ??_C@_0DF@OEIDPLN@attempt?5to?5spawn?5task?5whose?5par@ 0000000180071198     scheduler.obj
 0002:0001a1d0       ??_C@_0N@GFHEPNGJ@ref_count?$DO?$DN0@ 00000001800711d0     scheduler.obj
 0002:0001a1e0       ??_C@_0FB@KLFGCIGA@attempt?5to?5spawn?5task?5whose?5par@ 00000001800711e0     scheduler.obj
 0002:0001a238       ??_C@_0N@GNAOLKKA@ref_count?$CB?$DN0@ 0000000180071238     scheduler.obj
 0002:0001a248       ??_C@_0DD@DBDAGODG@backwards?5compatibility?5to?5TBB?5@ 0000000180071248     scheduler.obj
 0002:0001a280       ??_C@_0CJ@OADHCJIC@dst_thread?5?$DN?$DN?50?5?$HM?$HM?5is_version_3@ 0000000180071280     scheduler.obj
 0002:0001a2b0       ??_C@_0CI@GLNIEMEP@Is?5it?5safe?5to?5get?5a?5task?5at?5pos@ 00000001800712b0     scheduler.obj
 0002:0001a2e0       ??_C@_0FB@PEEIAAKN@__TBB_load_relaxed?$CI?5my_arena_sl@ 00000001800712e0     scheduler.obj
 0002:0001a338       ??_C@_0CL@NKJHBMDP@The?5poisoned?5task?5is?5going?5to?5b@ 0000000180071338     scheduler.obj
 0002:0001a368       ??_C@_0BH@JBFJDMFK@?$CBis_poisoned?$CI?5result?5?$CJ@ 0000000180071368     scheduler.obj
 0002:0001a380       ??_C@_0CM@FLLAMAOI@backwards?5compatibility?5with?5TB@ 0000000180071380     scheduler.obj
 0002:0001a3b0       ??_C@_0BI@LOLDPLBP@is_version_3_task?$CI?5?$CKt?5?$CJ@ 00000001800713b0     scheduler.obj
 0002:0001a3c8       ??_C@_0BJ@HJENMGEB@is_task_pool_published?$CI?$CJ@ 00000001800713c8     scheduler.obj
 0002:0001a3e8       ??_C@_07GEMCFJLC@?$CBresult@ 00000001800713e8     scheduler.obj
 0002:0001a3f0       ??_C@_0CL@JFLKFHKK@victim?1thief?5arbitration?5algori@ 00000001800713f0     scheduler.obj
 0002:0001a420       ??_C@_0HB@FMCKPCFE@H0?5?$DN?$DN?5__TBB_load_relaxed?$CI?5my_ar@ 0000000180071420     scheduler.obj
 0002:0001a498       ??_C@_09HNHGNKJM@T0?5?$DN?$DN?5T?$CL1@ 0000000180071498     scheduler.obj
 0002:0001a4a8       ??_C@_0CF@LDHNFBMB@is_quiescent_local_task_pool_re@ 00000001800714a8     scheduler.obj
 0002:0001a4d0       ??_C@_07HCAANLFB@H0?5?$DN?$DN?5T@ 00000001800714d0     scheduler.obj
 0002:0001a4d8       ??_C@_08IAEIEOP@H0?5?$DM?$DN?5T0@ 00000001800714d8     scheduler.obj
 0002:0001a4e4       ??_C@_06KJFADLGN@result@   00000001800714e4     scheduler.obj
 0002:0001a4f0       ??_C@_0DJ@MBBCHFFI@?$CIintptr_t?$CJ__TBB_load_relaxed?$CI?5m@ 00000001800714f0     scheduler.obj
 0002:0001a530       ??_C@_0EA@DGLADJAL@result?5?$HM?$HM?5tasks_omitted?5?$HM?$HM?5is_q@ 0000000180071530     scheduler.obj
 0002:0001a570       ??_C@_0CI@FKMLHL@no?5arena?3?5initialization?5not?5co@ 0000000180071570     scheduler.obj
 0002:0001a598       ??_C@_0CB@LPMOJLPE@arena?5slot?5index?5is?5out?9of?9boun@ 0000000180071598     scheduler.obj
 0002:0001a5c0       ??_C@_0CI@OHFLOHIC@my_arena_index?5?$DM?5my_arena?9?$DOmy_n@ 00000001800715c0     scheduler.obj
 0002:0001a5e8       ??_C@_0DF@PGIDHDB@my_arena_slot?5?$DN?$DN?5?$CGmy_arena?9?$DOmy_@ 00000001800715e8     scheduler.obj
 0002:0001a620       ??_C@_0CE@INOMDMEC@someone?5else?5grabbed?5my?5arena?5s@ 0000000180071620     scheduler.obj
 0002:0001a648       ??_C@_0CI@LGNJBBEB@my_arena_slot?9?$DOtask_pool?5?$DN?$DN?5?$CI?$CIt@ 0000000180071648     scheduler.obj
 0002:0001a670       ??_C@_0CG@GFMBLNBF@entering?5arena?5without?5tasks?5to@ 0000000180071670     scheduler.obj
 0002:0001a6a0       ??_C@_0FC@HABCALHI@__TBB_load_relaxed?$CImy_arena_slo@ 00000001800716a0     scheduler.obj
 0002:0001a6f8       ??_C@_0N@GEHBJNPJ@Not?5in?5arena@ 00000001800716f8     scheduler.obj
 0002:0001a708       ??_C@_0CD@GJBBKPKF@arena?5slot?5and?5slot?5index?5misma@ 0000000180071708     scheduler.obj
 0002:0001a730       ??_C@_0DF@MEJMMJFG@?$CGmy_arena?9?$DOmy_slots?$FLmy_arena_in@ 0000000180071730     scheduler.obj
 0002:0001a768       ??_C@_0CM@PKMMCBAO@Task?5pool?5must?5be?5locked?5when?5l@ 0000000180071768     scheduler.obj
 0002:0001a798       ??_C@_0DD@NMGIJENM@Cannot?5leave?5arena?5when?5the?5tas@ 0000000180071798     scheduler.obj
 0002:0001a7d0       ??_C@_0CF@NPJCDDNF@is_quiescent_local_task_pool_em@ 00000001800717d0     scheduler.obj
 0002:0001a7f8       ??_C@_0BK@LFACAHON@Maximal?5capacity?5exceeded@ 00000001800717f8     scheduler.obj
 0002:0001a818       ??_C@_0BO@MDAELBIO@m_num_segments?5?$DM?5max_segments@ 0000000180071818     scheduler.obj
 0002:0001a838       ??_C@_0CK@EIJANPMK@g?3?2github?2tbb?2src?2tbb?2scheduler@ 0000000180071838     scheduler.obj
 0002:0001a868       ??_C@_0CK@LELAGDPJ@Nonempty?5initial?5segment?5must?5b@ 0000000180071868     scheduler.obj
 0002:0001a898       ??_C@_0CA@KCKFCMBB@initial_segment?5?$CG?$CG?5segment_size@ 0000000180071898     scheduler.obj
 0002:0001a8b8       ??_C@_0CH@JEFMPKMI@Normal?5task?5misinterpreted?5as?5a@ 00000001800718b8     scheduler.obj
 0002:0001a8e0       ??_C@_0CG@CFHFCKPM@prefix?$CI?$CJ?4extra_state?5?$DN?$DN?5es_task@ 00000001800718e0     scheduler.obj
 0002:0001a910       ??_C@_0GI@GIJCFNCK@Proxy?8s?5tag?5cannot?5specify?5both@ 0000000180071910     scheduler.obj
 0002:0001a978       ??_C@_0DF@OJCBPOPH@tat?5?$DN?$DN?5from_bit?5?$HM?$HM?5?$CIis_shared?$CIt@ 0000000180071978     scheduler.obj
 0002:0001a9b0       ??_C@_0DB@IMPNEGJF@Empty?5proxy?5cannot?5contain?5non?9@ 00000001800719b0     scheduler.obj
 0002:0001a9e8       ??_C@_0BJ@NAOIKHFB@task_and_tag?5?$DN?$DN?5from_bit@ 00000001800719e8     scheduler.obj
 0002:0001aa10       ??_C@_1KM@CNDICFPH@?$AAs?$AAt?$AAd?$AA?3?$AA?3?$AAd?$AAe?$AAq?$AAu?$AAe?$AA?$DM?$AAc?$AAl?$AAa?$AAs@ 0000000180071a10     scheduler.obj
 0002:0001aac0       ??_C@_0BA@LNNOBJOP@p?4ref_count?5?$DO?50@ 0000000180071ac0     scheduler.obj
 0002:0001aad0       ??_C@_0CJ@NABJLJKK@g?3?2github?2tbb?2src?2tbb?2custom_sc@ 0000000180071ad0     scheduler.obj
 0002:0001ab00       ??_C@_0EF@DFJMMIPF@completion?5of?5task?5caused?5prede@ 0000000180071b00     scheduler.obj
 0002:0001ab48       ??_C@_0P@KPMFOABG@p?4ref_count?$DN?$DN0@ 0000000180071b48     scheduler.obj
 0002:0001ab58       ??_C@_0DI@KEOEKCDJ@p?4isolation?5?$DN?$DN?5no_isolation?5?$HM?$HM?5@ 0000000180071b58     scheduler.obj
 0002:0001bbe8       ??_C@_0CI@PMFFFLKG@task_arena?5initialization?5is?5in@ 0000000180072be8     observer_proxy.obj
 0002:0001bc10       ??_C@_0CH@KJNDHIKI@g?3?2github?2tbb?2include?2tbb?2task_@ 0000000180072c10     observer_proxy.obj
 0002:0001bc38       ??_C@_0L@KIPAIEID@my_context@ 0000000180072c38     observer_proxy.obj
 0002:0001bc44       ??_C@_01KDCPPGHE@r@        0000000180072c44     observer_proxy.obj
 0002:0001bc48       ??_C@_0CD@KLDPKFDL@Leaked?5?$CFld?5observer_proxy?5objec@ 0000000180072c48     observer_proxy.obj
 0002:0001c9c8       ??_7control_storage@internal@tbb@@6B@ 00000001800739c8     tbb_main.obj
 0002:0001c9f0       ??_7?$padded_base@Vcontrol_storage@internal@tbb@@$0IA@$0CA@@internal@tbb@@6B@ 00000001800739f0     tbb_main.obj
 0002:0001ca18       ??_7?$padded@Vcontrol_storage@internal@tbb@@$0IA@@internal@tbb@@6B@ 0000000180073a18     tbb_main.obj
 0002:0001ca40       ??_7allowed_parallelism_control@internal@tbb@@6B@ 0000000180073a40     tbb_main.obj
 0002:0001ca60       ??_C@_0BD@PLEDMFOC@my_active_value?$DO?$DN1@ 0000000180073a60     tbb_main.obj
 0002:0001ca78       ??_C@_0CD@FOPLLPAN@g?3?2github?2tbb?2src?2tbb?2tbb_main?4@ 0000000180073a78     tbb_main.obj
 0002:0001caa8       ??_7stack_size_control@internal@tbb@@6B@ 0000000180073aa8     tbb_main.obj
 0002:0001d080       ??_C@_0CK@MILFLHAC@result?$DN?$DNsegment_base?$CIk?$CL1?$CJ?9segme@ 0000000180074080     concurrent_vector_v2.obj
 0002:0001d0b0       ??_C@_0CN@BIEOHAKO@g?3?2github?2tbb?2src?2old?2concurren@ 00000001800740b0     concurrent_vector_v2.obj
 0002:0001d838       ??_7concurrent_queue_base@internal@tbb@@6B@ 0000000180074838     concurrent_queue_v2.obj
 0002:0001d850       ??_C@_0CO@IPLPDCDH@g?3?2github?2tbb?2src?2old?2concurren@ 0000000180074850     concurrent_queue_v2.obj
 0002:0001e058       ??_7type_info@@6B@         0000000180075058     MSVCRTD:std_type_info_static.obj
 0002:0001e0c0       ??_C@_17CNPHIMPH@?$AA?$CF?$AAl?$AAs@ 00000001800750c0     MSVCRTD:thread_safe_statics.obj
 0002:0001e0d0       ??_C@_1EC@JIJBPKFM@?$AAa?$AAp?$AAi?$AA?9?$AAm?$AAs?$AA?9?$AAw?$AAi?$AAn?$AA?9?$AAc?$AAo?$AAr?$AAe@ 00000001800750d0     MSVCRTD:thread_safe_statics.obj
 0002:0001e118       ??_C@_1BK@MGMFAEKH@?$AAk?$AAe?$AAr?$AAn?$AAe?$AAl?$AA3?$AA2?$AA?4?$AAd?$AAl?$AAl@ 0000000180075118     MSVCRTD:thread_safe_statics.obj
 0002:0001e138       ??_C@_0BM@HLJJNPAH@InitializeConditionVariable@ 0000000180075138     MSVCRTD:thread_safe_statics.obj
 0002:0001e158       ??_C@_0BJ@JEBJOJFJ@SleepConditionVariableCS@ 0000000180075158     MSVCRTD:thread_safe_statics.obj
 0002:0001e178       ??_C@_0BJ@PGPPEPCC@WakeAllConditionVariable@ 0000000180075178     MSVCRTD:thread_safe_statics.obj
 0002:0001e1a0       ??_C@_1JM@JFDFEGEB@?$AAd?$AA?3?$AA?2?$AAa?$AAg?$AAe?$AAn?$AAt?$AA?2?$AA_?$AAw?$AAo?$AAr?$AAk?$AA?2@ 00000001800751a0     MSVCRTD:thread_safe_statics.obj
 0002:0001e240       _pRawDllMain               0000000180075240     MSVCRTD:dll_dllmain.obj
 0002:0001e240       _pDefaultRawDllMain        0000000180075240     MSVCRTD:dll_dllmain.obj
 0002:0001e310       ??_C@_0NN@NGPKDKPD@The?5value?5of?5ESP?5was?5not?5proper@ 0000000180075310     MSVCRTD:error.obj
 0002:0001e3f0       ??_C@_0BBN@GPMLNJCF@A?5cast?5to?5a?5smaller?5data?5type?5h@ 00000001800753f0     MSVCRTD:error.obj
 0002:0001e510       ??_C@_0BN@FFOINMNJ@Stack?5memory?5was?5corrupted?6?$AN@ 0000000180075510     MSVCRTD:error.obj
 0002:0001e530       ??_C@_0DG@HKJMLLLP@A?5local?5variable?5was?5used?5befor@ 0000000180075530     MSVCRTD:error.obj
 0002:0001e568       ??_C@_0CM@NGINOKPC@Stack?5memory?5around?5_alloca?5was@ 0000000180075568     MSVCRTD:error.obj
 0002:0001e598       ??_C@_0BO@GNIAFIKK@Unknown?5Runtime?5Check?5Error?6?$AN@ 0000000180075598     MSVCRTD:error.obj
 0002:0001e5c0       ??_C@_1GM@OLMCBDMB@?$AAR?$AAu?$AAn?$AAt?$AAi?$AAm?$AAe?$AA?5?$AAC?$AAh?$AAe?$AAc?$AAk?$AA?5?$AAE@ 00000001800755c0     MSVCRTD:error.obj
 0002:0001e630       ??_C@_1EA@NFKNIFJP@?$AAR?$AAu?$AAn?$AA?9?$AAT?$AAi?$AAm?$AAe?$AA?5?$AAC?$AAh?$AAe?$AAc?$AAk?$AA?5@ 0000000180075630     MSVCRTD:error.obj
 0002:0001e670       ??_C@_0BB@PFFGGCJP@Unknown?5Filename@ 0000000180075670     MSVCRTD:error.obj
 0002:0001e688       ??_C@_0BE@GNBOBNCK@Unknown?5Module?5Name@ 0000000180075688     MSVCRTD:error.obj
 0002:0001e6a0       ??_C@_0CA@IODNCDPG@Run?9Time?5Check?5Failure?5?$CD?$CFd?5?9?5?$CFs@ 00000001800756a0     MSVCRTD:error.obj
 0002:0001e6c0       ??_C@_0CG@IAFNJNEE@Stack?5corrupted?5near?5unknown?5va@ 00000001800756c0     MSVCRTD:error.obj
 0002:0001e6e8       ??_C@_05MKKEDADM@?$CF?42X?5@ 00000001800756e8     MSVCRTD:error.obj
 0002:0001e6f0       ??_C@_0EJ@LJKNEOLN@Stack?5area?5around?5_alloca?5memor@ 00000001800756f0     MSVCRTD:error.obj
 0002:0001e73c       ??_C@_01EEMJAFIK@?6@       000000018007573c     MSVCRTD:error.obj
 0002:0001e740       ??_C@_02LLMPMKNF@?$DO?5@   0000000180075740     MSVCRTD:error.obj
 0002:0001e748       ??_C@_08OMAHNMHJ@?6Data?3?5?$DM@ 0000000180075748     MSVCRTD:error.obj
 0002:0001e758       ??_C@_0CK@DKGBICFE@?6Allocation?5number?5within?5this?5@ 0000000180075758     MSVCRTD:error.obj
 0002:0001e788       ??_C@_07DFDJCKFN@?6Size?3?5@ 0000000180075788     MSVCRTD:error.obj
 0002:0001e790       ??_C@_0N@MHFFIMFG@?6Address?3?50x@ 0000000180075790     MSVCRTD:error.obj
 0002:0001e7a0       ??_C@_0EI@CLEPFNGI@Stack?5area?5around?5_alloca?5memor@ 00000001800757a0     MSVCRTD:error.obj
 0002:0001e7e8       ??_C@_0BK@ODNDAGKB@?$CFs?$CFs?$CFp?$CFs?$CFzd?$CFs?$CFd?$CFs?$CFs?$CFs?$CFs?$CFs@ 00000001800757e8     MSVCRTD:error.obj
 0002:0001e808       ??_C@_0DE@OHJBPMBP@A?5variable?5is?5being?5used?5withou@ 0000000180075808     MSVCRTD:error.obj
 0002:0001e868       ??_C@_0BJ@HEGAHDFO@Stack?5pointer?5corruption@ 0000000180075868     MSVCRTD:userapi.obj
 0002:0001e888       ??_C@_0CK@FEGOIOPB@Cast?5to?5smaller?5type?5causing?5lo@ 0000000180075888     MSVCRTD:userapi.obj
 0002:0001e8b8       ??_C@_0BI@CIGMDCBH@Stack?5memory?5corruption@ 00000001800758b8     MSVCRTD:userapi.obj
 0002:0001e8d0       ??_C@_0CK@CNLNOEPB@Local?5variable?5used?5before?5init@ 00000001800758d0     MSVCRTD:userapi.obj
 0002:0001e900       ??_C@_0BP@OGBCLIBO@Stack?5around?5_alloca?5corrupted@ 0000000180075900     MSVCRTD:userapi.obj
 0002:0001e928       ??_7bad_array_new_length@std@@6B@ 0000000180075928     MSVCRTD:throw_bad_alloc.obj
 0002:0001e938       ??_C@_0BF@KINCDENJ@bad?5array?5new?5length@ 0000000180075938     MSVCRTD:throw_bad_alloc.obj
 0002:0001e9b0       ??_C@_1EI@MLPKHBGE@?$AAa?$AAp?$AAi?$AA?9?$AAm?$AAs?$AA?9?$AAw?$AAi?$AAn?$AA?9?$AAc?$AAo?$AAr?$AAe@ 00000001800759b0     MSVCRTD:pdblkup.obj
 0002:0001e9f8       ??_C@_1BK@JHLNAEJL@?$AAa?$AAd?$AAv?$AAa?$AAp?$AAi?$AA3?$AA2?$AA?4?$AAd?$AAl?$AAl@ 00000001800759f8     MSVCRTD:pdblkup.obj
 0002:0001ea18       ??_C@_0O@COHOBMLB@RegOpenKeyExW@ 0000000180075a18     MSVCRTD:pdblkup.obj
 0002:0001ea28       ??_C@_0BB@GLNAEDBD@RegQueryValueExW@ 0000000180075a28     MSVCRTD:pdblkup.obj
 0002:0001ea40       ??_C@_0M@HLOHPNFA@RegCloseKey@ 0000000180075a40     MSVCRTD:pdblkup.obj
 0002:0001ea50       ??_C@_1HE@EBEAGLFB@?$AAS?$AAO?$AAF?$AAT?$AAW?$AAA?$AAR?$AAE?$AA?2?$AAW?$AAo?$AAw?$AA6?$AA4?$AA3@ 0000000180075a50     MSVCRTD:pdblkup.obj
 0002:0001eac8       ??_C@_1BG@EABPBLLF@?$AAP?$AAr?$AAo?$AAd?$AAu?$AAc?$AAt?$AAD?$AAi?$AAr@ 0000000180075ac8     MSVCRTD:pdblkup.obj
 0002:0001eb00       ??_C@_1BC@JINFINNJ@?$AAM?$AAS?$AAP?$AAD?$AAB?$AA1?$AA4?$AA0@ 0000000180075b00     MSVCRTD:pdblkup.obj
 0002:0001eb18       ??_C@_0BB@KCIACLNC@PDBOpenValidate5@ 0000000180075b18     MSVCRTD:pdblkup.obj
 0002:0001eb90       _load_config_used          0000000180075b90     MSVCRTD:loadcfg.obj
 0002:0001ec90       _tls_used                  0000000180075c90     MSVCRTD:tlssup.obj
 0002:0001ecc0       ??_R4concurrent_queue_base_v3@internal@tbb@@6B@ 0000000180075cc0     concurrent_queue.obj
 0002:0001ece8       ??_R3concurrent_queue_base_v3@internal@tbb@@8 0000000180075ce8     concurrent_queue.obj
 0002:0001ed00       ??_R2concurrent_queue_base_v3@internal@tbb@@8 0000000180075d00     concurrent_queue.obj
 0002:0001ed20       ??_R1A@?0A@EA@concurrent_queue_base_v3@internal@tbb@@8 0000000180075d20     concurrent_queue.obj
 0002:0001ed48       ??_R17?0A@EN@no_copy@internal@tbb@@8 0000000180075d48     concurrent_queue.obj
 0002:0001ed70       ??_R3no_copy@internal@tbb@@8 0000000180075d70     concurrent_queue.obj
 0002:0001ed88       ??_R2no_copy@internal@tbb@@8 0000000180075d88     concurrent_queue.obj
 0002:0001eda0       ??_R1A@?0A@EA@no_copy@internal@tbb@@8 0000000180075da0     concurrent_queue.obj
 0002:0001edc8       ??_R1A@?0A@EN@no_assign@internal@tbb@@8 0000000180075dc8     concurrent_queue.obj
 0002:0001edf0       ??_R3no_assign@internal@tbb@@8 0000000180075df0     concurrent_queue.obj
 0002:0001ee08       ??_R2no_assign@internal@tbb@@8 0000000180075e08     concurrent_queue.obj
 0002:0001ee18       ??_R1A@?0A@EA@no_assign@internal@tbb@@8 0000000180075e18     concurrent_queue.obj
 0002:0001ee40       ??_R17?0A@EN@no_assign@internal@tbb@@8 0000000180075e40     concurrent_queue.obj
 0002:0001ee68       ??_R4task@tbb@@6B@         0000000180075e68     pipeline.obj
 0002:0001ee90       ??_R3task@tbb@@8           0000000180075e90     pipeline.obj
 0002:0001eea8       ??_R2task@tbb@@8           0000000180075ea8     pipeline.obj
 0002:0001eed0       ??_R1A@?0A@EA@task@tbb@@8  0000000180075ed0     pipeline.obj
 0002:0001eef8       ??_R17?0A@EA@task_base@internal@interface5@tbb@@8 0000000180075ef8     pipeline.obj
 0002:0001ef20       ??_R3task_base@internal@interface5@tbb@@8 0000000180075f20     pipeline.obj
 0002:0001ef38       ??_R2task_base@internal@interface5@tbb@@8 0000000180075f38     pipeline.obj
 0002:0001ef58       ??_R1A@?0A@EA@task_base@internal@interface5@tbb@@8 0000000180075f58     pipeline.obj
 0002:0001ef80       ??_R1A@?0A@EN@no_copy@internal@tbb@@8 0000000180075f80     pipeline.obj
 0002:0001efa8       ??_R4pipeline@tbb@@6B@     0000000180075fa8     pipeline.obj
 0002:0001efd0       ??_R3pipeline@tbb@@8       0000000180075fd0     pipeline.obj
 0002:0001efe8       ??_R2pipeline@tbb@@8       0000000180075fe8     pipeline.obj
 0002:0001eff8       ??_R1A@?0A@EA@pipeline@tbb@@8 0000000180075ff8     pipeline.obj
 0002:0001f020       ??_R4filter@tbb@@6B@       0000000180076020     pipeline.obj
 0002:0001f048       ??_R3filter@tbb@@8         0000000180076048     pipeline.obj
 0002:0001f060       ??_R2filter@tbb@@8         0000000180076060     pipeline.obj
 0002:0001f080       ??_R1A@?0A@EA@filter@tbb@@8 0000000180076080     pipeline.obj
 0002:0001f0a8       ??_R4stage_task@internal@tbb@@6B@ 00000001800760a8     pipeline.obj
 0002:0001f0d0       ??_R3stage_task@internal@tbb@@8 00000001800760d0     pipeline.obj
 0002:0001f0e8       ??_R2stage_task@internal@tbb@@8 00000001800760e8     pipeline.obj
 0002:0001f120       ??_R1A@?0A@EA@stage_task@internal@tbb@@8 0000000180076120     pipeline.obj
 0002:0001f148       ??_R17?0A@EA@task_info@internal@tbb@@8 0000000180076148     pipeline.obj
 0002:0001f170       ??_R3task_info@internal@tbb@@8 0000000180076170     pipeline.obj
 0002:0001f188       ??_R2task_info@internal@tbb@@8 0000000180076188     pipeline.obj
 0002:0001f198       ??_R1A@?0A@EA@task_info@internal@tbb@@8 0000000180076198     pipeline.obj
 0002:0001f1c0       ??_R4pipeline_root_task@internal@tbb@@6B@ 00000001800761c0     pipeline.obj
 0002:0001f1e8       ??_R3pipeline_root_task@internal@tbb@@8 00000001800761e8     pipeline.obj
 0002:0001f200       ??_R2pipeline_root_task@internal@tbb@@8 0000000180076200     pipeline.obj
 0002:0001f230       ??_R1A@?0A@EA@pipeline_root_task@internal@tbb@@8 0000000180076230     pipeline.obj
 0002:0001f258       ??_R4server@rml@@6B@       0000000180076258     private_server.obj
 0002:0001f280       ??_R3server@rml@@8         0000000180076280     private_server.obj
 0002:0001f298       ??_R2server@rml@@8         0000000180076298     private_server.obj
 0002:0001f2b0       ??_R1A@?0A@EA@server@rml@@8 00000001800762b0     private_server.obj
 0002:0001f2d8       ??_R1A@?0A@EA@versioned_object@rml@@8 00000001800762d8     private_server.obj
 0002:0001f300       ??_R3versioned_object@rml@@8 0000000180076300     private_server.obj
 0002:0001f318       ??_R2versioned_object@rml@@8 0000000180076318     private_server.obj
 0002:0001f328       ??_R4versioned_object@rml@@6B@ 0000000180076328     private_server.obj
 0002:0001f350       ??_R4tbb_server@rml@internal@tbb@@6B@ 0000000180076350     private_server.obj
 0002:0001f378       ??_R3tbb_server@rml@internal@tbb@@8 0000000180076378     private_server.obj
 0002:0001f390       ??_R2tbb_server@rml@internal@tbb@@8 0000000180076390     private_server.obj
 0002:0001f3b0       ??_R1A@?0A@EA@tbb_server@rml@internal@tbb@@8 00000001800763b0     private_server.obj
 0002:0001f3d8       ??_R4private_server@rml@internal@tbb@@6B@ 00000001800763d8     private_server.obj
 0002:0001f400       ??_R3private_server@rml@internal@tbb@@8 0000000180076400     private_server.obj
 0002:0001f418       ??_R2private_server@rml@internal@tbb@@8 0000000180076418     private_server.obj
 0002:0001f450       ??_R1A@?0A@EA@private_server@rml@internal@tbb@@8 0000000180076450     private_server.obj
 0002:0001f478       ??_R4exception@std@@6B@    0000000180076478     tbb_misc.obj
 0002:0001f4a0       ??_R3exception@std@@8      00000001800764a0     tbb_misc.obj
 0002:0001f4b8       ??_R2exception@std@@8      00000001800764b8     tbb_misc.obj
 0002:0001f4c8       ??_R1A@?0A@EA@exception@std@@8 00000001800764c8     tbb_misc.obj
 0002:0001f4f0       ??_R4bad_alloc@std@@6B@    00000001800764f0     tbb_misc.obj
 0002:0001f518       ??_R3bad_alloc@std@@8      0000000180076518     tbb_misc.obj
 0002:0001f530       ??_R2bad_alloc@std@@8      0000000180076530     tbb_misc.obj
 0002:0001f548       ??_R1A@?0A@EA@bad_alloc@std@@8 0000000180076548     tbb_misc.obj
 0002:0001f570       ??_R4logic_error@std@@6B@  0000000180076570     tbb_misc.obj
 0002:0001f598       ??_R3logic_error@std@@8    0000000180076598     tbb_misc.obj
 0002:0001f5b0       ??_R2logic_error@std@@8    00000001800765b0     tbb_misc.obj
 0002:0001f5c8       ??_R1A@?0A@EA@logic_error@std@@8 00000001800765c8     tbb_misc.obj
 0002:0001f5f0       ??_R4invalid_argument@std@@6B@ 00000001800765f0     tbb_misc.obj
 0002:0001f618       ??_R3invalid_argument@std@@8 0000000180076618     tbb_misc.obj
 0002:0001f630       ??_R2invalid_argument@std@@8 0000000180076630     tbb_misc.obj
 0002:0001f650       ??_R1A@?0A@EA@invalid_argument@std@@8 0000000180076650     tbb_misc.obj
 0002:0001f678       ??_R4length_error@std@@6B@ 0000000180076678     tbb_misc.obj
 0002:0001f6a0       ??_R3length_error@std@@8   00000001800766a0     tbb_misc.obj
 0002:0001f6b8       ??_R2length_error@std@@8   00000001800766b8     tbb_misc.obj
 0002:0001f6d8       ??_R1A@?0A@EA@length_error@std@@8 00000001800766d8     tbb_misc.obj
 0002:0001f700       ??_R4out_of_range@std@@6B@ 0000000180076700     tbb_misc.obj
 0002:0001f728       ??_R3out_of_range@std@@8   0000000180076728     tbb_misc.obj
 0002:0001f740       ??_R2out_of_range@std@@8   0000000180076740     tbb_misc.obj
 0002:0001f760       ??_R1A@?0A@EA@out_of_range@std@@8 0000000180076760     tbb_misc.obj
 0002:0001f788       ??_R4runtime_error@std@@6B@ 0000000180076788     tbb_misc.obj
 0002:0001f7b0       ??_R3runtime_error@std@@8  00000001800767b0     tbb_misc.obj
 0002:0001f7c8       ??_R2runtime_error@std@@8  00000001800767c8     tbb_misc.obj
 0002:0001f7e0       ??_R1A@?0A@EA@runtime_error@std@@8 00000001800767e0     tbb_misc.obj
 0002:0001f808       ??_R4range_error@std@@6B@  0000000180076808     tbb_misc.obj
 0002:0001f830       ??_R3range_error@std@@8    0000000180076830     tbb_misc.obj
 0002:0001f848       ??_R2range_error@std@@8    0000000180076848     tbb_misc.obj
 0002:0001f868       ??_R1A@?0A@EA@range_error@std@@8 0000000180076868     tbb_misc.obj
 0002:0001f890       ??_R4bad_last_alloc@tbb@@6B@ 0000000180076890     tbb_misc.obj
 0002:0001f8b8       ??_R3bad_last_alloc@tbb@@8 00000001800768b8     tbb_misc.obj
 0002:0001f8d0       ??_R2bad_last_alloc@tbb@@8 00000001800768d0     tbb_misc.obj
 0002:0001f8f0       ??_R1A@?0A@EA@bad_last_alloc@tbb@@8 00000001800768f0     tbb_misc.obj
 0002:0001f918       ??_R4improper_lock@tbb@@6B@ 0000000180076918     tbb_misc.obj
 0002:0001f940       ??_R3improper_lock@tbb@@8  0000000180076940     tbb_misc.obj
 0002:0001f958       ??_R2improper_lock@tbb@@8  0000000180076958     tbb_misc.obj
 0002:0001f970       ??_R1A@?0A@EA@improper_lock@tbb@@8 0000000180076970     tbb_misc.obj
 0002:0001f998       ??_R4user_abort@tbb@@6B@   0000000180076998     tbb_misc.obj
 0002:0001f9c0       ??_R3user_abort@tbb@@8     00000001800769c0     tbb_misc.obj
 0002:0001f9d8       ??_R2user_abort@tbb@@8     00000001800769d8     tbb_misc.obj
 0002:0001f9f0       ??_R1A@?0A@EA@user_abort@tbb@@8 00000001800769f0     tbb_misc.obj
 0002:0001fa18       ??_R4missing_wait@tbb@@6B@ 0000000180076a18     tbb_misc.obj
 0002:0001fa40       ??_R3missing_wait@tbb@@8   0000000180076a40     tbb_misc.obj
 0002:0001fa58       ??_R2missing_wait@tbb@@8   0000000180076a58     tbb_misc.obj
 0002:0001fa70       ??_R1A@?0A@EA@missing_wait@tbb@@8 0000000180076a70     tbb_misc.obj
 0002:0001fa98       ??_R4invalid_multiple_scheduling@tbb@@6B@ 0000000180076a98     tbb_misc.obj
 0002:0001fac0       ??_R3invalid_multiple_scheduling@tbb@@8 0000000180076ac0     tbb_misc.obj
 0002:0001fad8       ??_R2invalid_multiple_scheduling@tbb@@8 0000000180076ad8     tbb_misc.obj
 0002:0001faf0       ??_R1A@?0A@EA@invalid_multiple_scheduling@tbb@@8 0000000180076af0     tbb_misc.obj
 0002:0001fb18       ??_R4tbb_exception@tbb@@6B@ 0000000180076b18     task_group_context.obj
 0002:0001fb40       ??_R3tbb_exception@tbb@@8  0000000180076b40     task_group_context.obj
 0002:0001fb58       ??_R2tbb_exception@tbb@@8  0000000180076b58     task_group_context.obj
 0002:0001fb70       ??_R1A@?0A@EA@tbb_exception@tbb@@8 0000000180076b70     task_group_context.obj
 0002:0001fb98       ??_R4captured_exception@tbb@@6B@ 0000000180076b98     task_group_context.obj
 0002:0001fbc0       ??_R3captured_exception@tbb@@8 0000000180076bc0     task_group_context.obj
 0002:0001fbd8       ??_R2captured_exception@tbb@@8 0000000180076bd8     task_group_context.obj
 0002:0001fbf8       ??_R1A@?0A@EA@captured_exception@tbb@@8 0000000180076bf8     task_group_context.obj
 0002:0001fc20       ??_R4market@internal@tbb@@6B@ 0000000180076c20     market.obj
 0002:0001fc48       ??_R3market@internal@tbb@@8 0000000180076c48     market.obj
 0002:0001fc60       ??_R2market@internal@tbb@@8 0000000180076c60     market.obj
 0002:0001fc98       ??_R1A@?0A@EA@market@internal@tbb@@8 0000000180076c98     market.obj
 0002:0001fcc0       ??_R1A@?0A@EN@tbb_client@rml@internal@tbb@@8 0000000180076cc0     market.obj
 0002:0001fce8       ??_R3tbb_client@rml@internal@tbb@@8 0000000180076ce8     market.obj
 0002:0001fd00       ??_R2tbb_client@rml@internal@tbb@@8 0000000180076d00     market.obj
 0002:0001fd20       ??_R1A@?0A@EA@tbb_client@rml@internal@tbb@@8 0000000180076d20     market.obj
 0002:0001fd48       ??_R1A@?0A@EA@client@rml@@8 0000000180076d48     market.obj
 0002:0001fd70       ??_R3client@rml@@8         0000000180076d70     market.obj
 0002:0001fd88       ??_R2client@rml@@8         0000000180076d88     market.obj
 0002:0001fda0       ??_R1A@?0A@EJ@client@rml@@8 0000000180076da0     market.obj
 0002:0001fdc8       ??_R1A@?0A@EJ@versioned_object@rml@@8 0000000180076dc8     market.obj
 0002:0001fdf0       ??_R4client@rml@@6B@       0000000180076df0     market.obj
 0002:0001fe18       ??_R4tbb_client@rml@internal@tbb@@6B@ 0000000180076e18     market.obj
 0002:0001fe40       ??_R4empty_task@tbb@@6B@   0000000180076e40     arena.obj
 0002:0001fe68       ??_R3empty_task@tbb@@8     0000000180076e68     arena.obj
 0002:0001fe80       ??_R2empty_task@tbb@@8     0000000180076e80     arena.obj
 0002:0001feb0       ??_R1A@?0A@EA@empty_task@tbb@@8 0000000180076eb0     arena.obj
 0002:0001fed8       ??_R4delegated_task@internal@interface7@tbb@@6B@ 0000000180076ed8     arena.obj
 0002:0001ff00       ??_R3delegated_task@internal@interface7@tbb@@8 0000000180076f00     arena.obj
 0002:0001ff18       ??_R2delegated_task@internal@interface7@tbb@@8 0000000180076f18     arena.obj
 0002:0001ff48       ??_R1A@?0A@EA@delegated_task@internal@interface7@tbb@@8 0000000180076f48     arena.obj
 0002:0001ff70       ??_R4wait_task@internal@interface7@tbb@@6B@ 0000000180076f70     arena.obj
 0002:0001ff98       ??_R3wait_task@internal@interface7@tbb@@8 0000000180076f98     arena.obj
 0002:0001ffb0       ??_R2wait_task@internal@interface7@tbb@@8 0000000180076fb0     arena.obj
 0002:0001ffe0       ??_R1A@?0A@EA@wait_task@internal@interface7@tbb@@8 0000000180076fe0     arena.obj
 0002:00020008       ??_R4task_scheduler_observer_v3@internal@tbb@@6B@ 0000000180077008     arena.obj
 0002:00020030       ??_R3task_scheduler_observer_v3@internal@tbb@@8 0000000180077030     arena.obj
 0002:00020048       ??_R2task_scheduler_observer_v3@internal@tbb@@8 0000000180077048     arena.obj
 0002:00020058       ??_R1A@?0A@EA@task_scheduler_observer_v3@internal@tbb@@8 0000000180077058     arena.obj
 0002:00020080       ??_R4task_scheduler_observer@interface6@tbb@@6B@ 0000000180077080     arena.obj
 0002:000200a8       ??_R3task_scheduler_observer@interface6@tbb@@8 00000001800770a8     arena.obj
 0002:000200c0       ??_R2task_scheduler_observer@interface6@tbb@@8 00000001800770c0     arena.obj
 0002:000200d8       ??_R1A@?0A@EA@task_scheduler_observer@interface6@tbb@@8 00000001800770d8     arena.obj
 0002:00020100       ??_R4numa_binding_observer@internal@tbb@@6B@ 0000000180077100     arena.obj
 0002:00020128       ??_R3numa_binding_observer@internal@tbb@@8 0000000180077128     arena.obj
 0002:00020140       ??_R2numa_binding_observer@internal@tbb@@8 0000000180077140     arena.obj
 0002:00020160       ??_R1A@?0A@EA@numa_binding_observer@internal@tbb@@8 0000000180077160     arena.obj
 0002:00020188       ??_R4?$function_task@Vspawn_functor@graph@interface10@flow@tbb@@@internal@tbb@@6B@ 0000000180077188     arena.obj
 0002:000201b0       ??_R3?$function_task@Vspawn_functor@graph@interface10@flow@tbb@@@internal@tbb@@8 00000001800771b0     arena.obj
 0002:000201c8       ??_R2?$function_task@Vspawn_functor@graph@interface10@flow@tbb@@@internal@tbb@@8 00000001800771c8     arena.obj
 0002:000201f8       ??_R1A@?0A@EA@?$function_task@Vspawn_functor@graph@interface10@flow@tbb@@@internal@tbb@@8 00000001800771f8     arena.obj
 0002:00020220       ??_R4scheduler@internal@tbb@@6B@ 0000000180077220     scheduler.obj
 0002:00020248       ??_R3scheduler@internal@tbb@@8 0000000180077248     scheduler.obj
 0002:00020260       ??_R2scheduler@internal@tbb@@8 0000000180077260     scheduler.obj
 0002:00020280       ??_R1A@?0A@EA@scheduler@internal@tbb@@8 0000000180077280     scheduler.obj
 0002:000202a8       ??_R4generic_scheduler@internal@tbb@@6B@ 00000001800772a8     scheduler.obj
 0002:000202d0       ??_R3generic_scheduler@internal@tbb@@8 00000001800772d0     scheduler.obj
 0002:000202e8       ??_R2generic_scheduler@internal@tbb@@8 00000001800772e8     scheduler.obj
 0002:00020328       ??_R1A@?0A@EA@generic_scheduler@internal@tbb@@8 0000000180077328     scheduler.obj
 0002:00020350       ??_R17?0A@EA@job@rml@@8    0000000180077350     scheduler.obj
 0002:00020378       ??_R3job@rml@@8            0000000180077378     scheduler.obj
 0002:00020390       ??_R2job@rml@@8            0000000180077390     scheduler.obj
 0002:000203a0       ??_R1A@?0A@EA@job@rml@@8   00000001800773a0     scheduler.obj
 0002:000203c8       ??_R1BA@?0A@EA@intrusive_list_node@internal@tbb@@8 00000001800773c8     scheduler.obj
 0002:000203f0       ??_R3intrusive_list_node@internal@tbb@@8 00000001800773f0     scheduler.obj
 0002:00020408       ??_R2intrusive_list_node@internal@tbb@@8 0000000180077408     scheduler.obj
 0002:00020418       ??_R1A@?0A@EA@intrusive_list_node@internal@tbb@@8 0000000180077418     scheduler.obj
 0002:00020440       ??_R1CA@?0A@EA@scheduler_state@internal@tbb@@8 0000000180077440     scheduler.obj
 0002:00020468       ??_R3scheduler_state@internal@tbb@@8 0000000180077468     scheduler.obj
 0002:00020480       ??_R2scheduler_state@internal@tbb@@8 0000000180077480     scheduler.obj
 0002:00020490       ??_R1A@?0A@EA@scheduler_state@internal@tbb@@8 0000000180077490     scheduler.obj
 0002:000204b8       ??_R4?$custom_scheduler@UDefaultSchedulerTraits@internal@tbb@@@internal@tbb@@6B@ 00000001800774b8     scheduler.obj
 0002:000204e0       ??_R3?$custom_scheduler@UDefaultSchedulerTraits@internal@tbb@@@internal@tbb@@8 00000001800774e0     scheduler.obj
 0002:00020500       ??_R2?$custom_scheduler@UDefaultSchedulerTraits@internal@tbb@@@internal@tbb@@8 0000000180077500     scheduler.obj
 0002:00020548       ??_R1A@?0A@EA@?$custom_scheduler@UDefaultSchedulerTraits@internal@tbb@@@internal@tbb@@8 0000000180077548     scheduler.obj
 0002:00020570       ??_R1A@?0A@EN@generic_scheduler@internal@tbb@@8 0000000180077570     scheduler.obj
 0002:00020598       ??_R1A@?0A@EJ@scheduler@internal@tbb@@8 0000000180077598     scheduler.obj
 0002:000205c0       ??_R17?0A@EJ@job@rml@@8    00000001800775c0     scheduler.obj
 0002:000205e8       ??_R1BA@?0A@EJ@intrusive_list_node@internal@tbb@@8 00000001800775e8     scheduler.obj
 0002:00020610       ??_R1CA@?0A@EJ@scheduler_state@internal@tbb@@8 0000000180077610     scheduler.obj
 0002:00020638       ??_R4?$custom_scheduler@UIntelSchedulerTraits@internal@tbb@@@internal@tbb@@6B@ 0000000180077638     scheduler.obj
 0002:00020660       ??_R3?$custom_scheduler@UIntelSchedulerTraits@internal@tbb@@@internal@tbb@@8 0000000180077660     scheduler.obj
 0002:00020680       ??_R2?$custom_scheduler@UIntelSchedulerTraits@internal@tbb@@@internal@tbb@@8 0000000180077680     scheduler.obj
 0002:000206c8       ??_R1A@?0A@EA@?$custom_scheduler@UIntelSchedulerTraits@internal@tbb@@@internal@tbb@@8 00000001800776c8     scheduler.obj
 0002:000206f0       ??_R4control_storage@internal@tbb@@6B@ 00000001800776f0     tbb_main.obj
 0002:00020718       ??_R3control_storage@internal@tbb@@8 0000000180077718     tbb_main.obj
 0002:00020730       ??_R2control_storage@internal@tbb@@8 0000000180077730     tbb_main.obj
 0002:00020740       ??_R1A@?0A@EA@control_storage@internal@tbb@@8 0000000180077740     tbb_main.obj
 0002:00020768       ??_R4allowed_parallelism_control@internal@tbb@@6B@ 0000000180077768     tbb_main.obj
 0002:00020790       ??_R3allowed_parallelism_control@internal@tbb@@8 0000000180077790     tbb_main.obj
 0002:000207a8       ??_R2allowed_parallelism_control@internal@tbb@@8 00000001800777a8     tbb_main.obj
 0002:000207d0       ??_R1A@?0A@EA@allowed_parallelism_control@internal@tbb@@8 00000001800777d0     tbb_main.obj
 0002:000207f8       ??_R1A@?0A@EA@?$padded@Vcontrol_storage@internal@tbb@@$0IA@@internal@tbb@@8 00000001800777f8     tbb_main.obj
 0002:00020820       ??_R3?$padded@Vcontrol_storage@internal@tbb@@$0IA@@internal@tbb@@8 0000000180077820     tbb_main.obj
 0002:00020838       ??_R2?$padded@Vcontrol_storage@internal@tbb@@$0IA@@internal@tbb@@8 0000000180077838     tbb_main.obj
 0002:00020858       ??_R1A@?0A@EA@?$padded_base@Vcontrol_storage@internal@tbb@@$0IA@$0CA@@internal@tbb@@8 0000000180077858     tbb_main.obj
 0002:00020880       ??_R3?$padded_base@Vcontrol_storage@internal@tbb@@$0IA@$0CA@@internal@tbb@@8 0000000180077880     tbb_main.obj
 0002:00020898       ??_R2?$padded_base@Vcontrol_storage@internal@tbb@@$0IA@$0CA@@internal@tbb@@8 0000000180077898     tbb_main.obj
 0002:000208b0       ??_R4?$padded@Vcontrol_storage@internal@tbb@@$0IA@@internal@tbb@@6B@ 00000001800778b0     tbb_main.obj
 0002:000208d8       ??_R4?$padded_base@Vcontrol_storage@internal@tbb@@$0IA@$0CA@@internal@tbb@@6B@ 00000001800778d8     tbb_main.obj
 0002:00020900       ??_R4stack_size_control@internal@tbb@@6B@ 0000000180077900     tbb_main.obj
 0002:00020928       ??_R3stack_size_control@internal@tbb@@8 0000000180077928     tbb_main.obj
 0002:00020940       ??_R2stack_size_control@internal@tbb@@8 0000000180077940     tbb_main.obj
 0002:00020968       ??_R1A@?0A@EA@stack_size_control@internal@tbb@@8 0000000180077968     tbb_main.obj
 0002:00020990       ??_R4concurrent_queue_base@internal@tbb@@6B@ 0000000180077990     concurrent_queue_v2.obj
 0002:000209b8       ??_R3concurrent_queue_base@internal@tbb@@8 00000001800779b8     concurrent_queue_v2.obj
 0002:000209d0       ??_R2concurrent_queue_base@internal@tbb@@8 00000001800779d0     concurrent_queue_v2.obj
 0002:000209f0       ??_R1A@?0A@EA@concurrent_queue_base@internal@tbb@@8 00000001800779f0     concurrent_queue_v2.obj
 0002:00020a18       ??_R4type_info@@6B@        0000000180077a18     MSVCRTD:std_type_info_static.obj
 0002:00020a40       ??_R3type_info@@8          0000000180077a40     MSVCRTD:std_type_info_static.obj
 0002:00020a58       ??_R2type_info@@8          0000000180077a58     MSVCRTD:std_type_info_static.obj
 0002:00020a68       ??_R1A@?0A@EA@type_info@@8 0000000180077a68     MSVCRTD:std_type_info_static.obj
 0002:00020a90       ??_R4bad_array_new_length@std@@6B@ 0000000180077a90     MSVCRTD:throw_bad_alloc.obj
 0002:00020ab8       ??_R3bad_array_new_length@std@@8 0000000180077ab8     MSVCRTD:throw_bad_alloc.obj
 0002:00020ad0       ??_R2bad_array_new_length@std@@8 0000000180077ad0     MSVCRTD:throw_bad_alloc.obj
 0002:00020af0       ??_R1A@?0A@EA@bad_array_new_length@std@@8 0000000180077af0     MSVCRTD:throw_bad_alloc.obj
 0002:00020ed8       __rtc_iaa                  0000000180077ed8     MSVCRTD:initsect.obj
 0002:00020ff8       __rtc_izz                  0000000180077ff8     MSVCRTD:initsect.obj
 0002:00021000       __rtc_taa                  0000000180078000     MSVCRTD:initsect.obj
 0002:00021120       __rtc_tzz                  0000000180078120     MSVCRTD:initsect.obj
 0002:00021128       _tls_start                 0000000180078128     MSVCRTD:tlssup.obj
 0002:0002112c       _Init_thread_epoch         000000018007812c     MSVCRTD:thread_safe_statics.obj
 0002:00021130       _tls_end                   0000000180078130     MSVCRTD:tlssup.obj
 0002:00028440       _TI2?AVruntime_error@std@@ 000000018007f440     tbb_misc.obj
 0002:00028460       _CTA2?AVruntime_error@std@@ 000000018007f460     tbb_misc.obj
 0002:00028478       _CT??_R0?AVruntime_error@std@@@8??0runtime_error@std@@QEAA@AEBV01@@Z24 000000018007f478     tbb_misc.obj
 0002:000284a0       _CT??_R0?AVexception@std@@@8??0exception@std@@QEAA@AEBV01@@Z24 000000018007f4a0     tbb_misc.obj
 0002:000284c8       _TI2?AVbad_alloc@std@@     000000018007f4c8     tbb_misc.obj
 0002:000284e8       _CTA2?AVbad_alloc@std@@    000000018007f4e8     tbb_misc.obj
 0002:00028500       _CT??_R0?AVbad_alloc@std@@@8??0bad_alloc@std@@QEAA@AEBV01@@Z24 000000018007f500     tbb_misc.obj
 0002:00028528       _TI3?AVbad_last_alloc@tbb@@ 000000018007f528     tbb_misc.obj
 0002:00028548       _CTA3?AVbad_last_alloc@tbb@@ 000000018007f548     tbb_misc.obj
 0002:00028568       _CT??_R0?AVbad_last_alloc@tbb@@@8??0bad_last_alloc@tbb@@QEAA@AEBV01@@Z24 000000018007f568     tbb_misc.obj
 0002:00028590       _TI3?AVinvalid_argument@std@@ 000000018007f590     tbb_misc.obj
 0002:000285b0       _CTA3?AVinvalid_argument@std@@ 000000018007f5b0     tbb_misc.obj
 0002:000285d0       _CT??_R0?AVinvalid_argument@std@@@8??0invalid_argument@std@@QEAA@AEBV01@@Z24 000000018007f5d0     tbb_misc.obj
 0002:000285f8       _CT??_R0?AVlogic_error@std@@@8??0logic_error@std@@QEAA@AEBV01@@Z24 000000018007f5f8     tbb_misc.obj
 0002:00028620       _TI3?AVout_of_range@std@@  000000018007f620     tbb_misc.obj
 0002:00028640       _CTA3?AVout_of_range@std@@ 000000018007f640     tbb_misc.obj
 0002:00028660       _CT??_R0?AVout_of_range@std@@@8??0out_of_range@std@@QEAA@AEBV01@@Z24 000000018007f660     tbb_misc.obj
 0002:00028688       _TI3?AVrange_error@std@@   000000018007f688     tbb_misc.obj
 0002:000286a8       _CTA3?AVrange_error@std@@  000000018007f6a8     tbb_misc.obj
 0002:000286c8       _CT??_R0?AVrange_error@std@@@8??0range_error@std@@QEAA@AEBV01@@Z24 000000018007f6c8     tbb_misc.obj
 0002:000286f0       _TI2?AVmissing_wait@tbb@@  000000018007f6f0     tbb_misc.obj
 0002:00028710       _CTA2?AVmissing_wait@tbb@@ 000000018007f710     tbb_misc.obj
 0002:00028728       _CT??_R0?AVmissing_wait@tbb@@@8??0missing_wait@tbb@@QEAA@AEBV01@@Z24 000000018007f728     tbb_misc.obj
 0002:00028750       _TI2?AVinvalid_multiple_scheduling@tbb@@ 000000018007f750     tbb_misc.obj
 0002:00028770       _CTA2?AVinvalid_multiple_scheduling@tbb@@ 000000018007f770     tbb_misc.obj
 0002:00028788       _CT??_R0?AVinvalid_multiple_scheduling@tbb@@@8??0invalid_multiple_scheduling@tbb@@QEAA@AEBV01@@Z24 000000018007f788     tbb_misc.obj
 0002:000287b0       _TI2?AVimproper_lock@tbb@@ 000000018007f7b0     tbb_misc.obj
 0002:000287d0       _CTA2?AVimproper_lock@tbb@@ 000000018007f7d0     tbb_misc.obj
 0002:000287e8       _CT??_R0?AVimproper_lock@tbb@@@8??0improper_lock@tbb@@QEAA@AEBV01@@Z24 000000018007f7e8     tbb_misc.obj
 0002:00028810       _TI3?AVlength_error@std@@  000000018007f810     tbb_misc.obj
 0002:00028830       _CTA3?AVlength_error@std@@ 000000018007f830     tbb_misc.obj
 0002:00028850       _CT??_R0?AVlength_error@std@@@8??0length_error@std@@QEAA@AEBV01@@Z24 000000018007f850     tbb_misc.obj
 0002:00028878       _TI2?AVuser_abort@tbb@@    000000018007f878     tbb_misc.obj
 0002:00028898       _CTA2?AVuser_abort@tbb@@   000000018007f898     tbb_misc.obj
 0002:000288b0       _CT??_R0?AVuser_abort@tbb@@@8??0user_abort@tbb@@QEAA@AEBV01@@Z24 000000018007f8b0     tbb_misc.obj
 0002:000288d8       _TI3?AVcaptured_exception@tbb@@ 000000018007f8d8     task_group_context.obj
 0002:000288f8       _CTA3?AVcaptured_exception@tbb@@ 000000018007f8f8     task_group_context.obj
 0002:00028918       _CT??_R0?AVcaptured_exception@tbb@@@8??0captured_exception@tbb@@QEAA@AEBV01@@Z48 000000018007f918     task_group_context.obj
 0002:00028940       _CT??_R0?AVtbb_exception@tbb@@@8??0tbb_exception@tbb@@QEAA@AEBV01@@Z24 000000018007f940     task_group_context.obj
 0002:00028968       _TI3?AVbad_array_new_length@std@@ 000000018007f968     MSVCRTD:throw_bad_alloc.obj
 0002:00028988       _CTA3?AVbad_array_new_length@std@@ 000000018007f988     MSVCRTD:throw_bad_alloc.obj
 0002:000289a8       _CT??_R0?AVbad_array_new_length@std@@@8??0bad_array_new_length@std@@QEAA@AEBV01@@Z24 000000018007f9a8     MSVCRTD:throw_bad_alloc.obj
 0002:0002cc38       __IMPORT_DESCRIPTOR_KERNEL32 0000000180083c38     kernel32:KERNEL32.dll
 0002:0002cc4c       __IMPORT_DESCRIPTOR_MSVCP140D 0000000180083c4c     msvcprtd:MSVCP140D.dll
 0002:0002cc60       __IMPORT_DESCRIPTOR_VCRUNTIME140D 0000000180083c60     vcruntimed:VCRUNTIME140D.dll
 0002:0002cc74       __IMPORT_DESCRIPTOR_ucrtbased 0000000180083c74     ucrtd:ucrtbased.dll
 0002:0002cc88       __NULL_IMPORT_DESCRIPTOR   0000000180083c88     kernel32:KERNEL32.dll
 0003:00000010       ?__itt__ittapi_global@@3U___itt_global@@A 0000000180085010     itt_notify.obj
 0003:000000b0       __itt_detach_ptr__3_0      00000001800850b0     itt_notify.obj
 0003:000000b8       __itt_sync_createA_ptr__3_0 00000001800850b8     itt_notify.obj
 0003:000000c0       __itt_sync_createW_ptr__3_0 00000001800850c0     itt_notify.obj
 0003:000000c8       __itt_sync_renameA_ptr__3_0 00000001800850c8     itt_notify.obj
 0003:000000d0       __itt_sync_renameW_ptr__3_0 00000001800850d0     itt_notify.obj
 0003:000000d8       __itt_sync_destroy_ptr__3_0 00000001800850d8     itt_notify.obj
 0003:000000e0       __itt_sync_prepare_ptr__3_0 00000001800850e0     itt_notify.obj
 0003:000000e8       __itt_sync_cancel_ptr__3_0 00000001800850e8     itt_notify.obj
 0003:000000f0       __itt_sync_acquired_ptr__3_0 00000001800850f0     itt_notify.obj
 0003:000000f8       __itt_sync_releasing_ptr__3_0 00000001800850f8     itt_notify.obj
 0003:00000100       __itt_suppress_push_ptr__3_0 0000000180085100     itt_notify.obj
 0003:00000108       __itt_suppress_pop_ptr__3_0 0000000180085108     itt_notify.obj
 0003:00000110       __itt_suppress_mark_range_ptr__3_0 0000000180085110     itt_notify.obj
 0003:00000118       __itt_suppress_clear_range_ptr__3_0 0000000180085118     itt_notify.obj
 0003:00000120       __itt_fsync_prepare_ptr__3_0 0000000180085120     itt_notify.obj
 0003:00000128       __itt_fsync_cancel_ptr__3_0 0000000180085128     itt_notify.obj
 0003:00000130       ?SyncType_GlobalLock@tbb@@3PEB_WEB 0000000180085130     itt_notify.obj
 0003:00000138       ?SyncType_Scheduler@tbb@@3PEB_WEB 0000000180085138     itt_notify.obj
 0003:00000140       ?SyncObj_SchedulerInitialization@tbb@@3PEB_WEB 0000000180085140     itt_notify.obj
 0003:00000148       ?SyncObj_SchedulersList@tbb@@3PEB_WEB 0000000180085148     itt_notify.obj
 0003:00000150       ?SyncObj_WorkerLifeCycleMgmt@tbb@@3PEB_WEB 0000000180085150     itt_notify.obj
 0003:00000158       ?SyncObj_TaskStealingLoop@tbb@@3PEB_WEB 0000000180085158     itt_notify.obj
 0003:00000160       ?SyncObj_WorkerTaskPool@tbb@@3PEB_WEB 0000000180085160     itt_notify.obj
 0003:00000168       ?SyncObj_MasterTaskPool@tbb@@3PEB_WEB 0000000180085168     itt_notify.obj
 0003:00000170       ?SyncObj_TaskPoolSpinning@tbb@@3PEB_WEB 0000000180085170     itt_notify.obj
 0003:00000178       ?SyncObj_Mailbox@tbb@@3PEB_WEB 0000000180085178     itt_notify.obj
 0003:00000180       __itt_fsync_acquired_ptr__3_0 0000000180085180     itt_notify.obj
 0003:00000188       ?SyncObj_TaskReturnList@tbb@@3PEB_WEB 0000000180085188     itt_notify.obj
 0003:00000190       ?SyncObj_TaskStream@tbb@@3PEB_WEB 0000000180085190     itt_notify.obj
 0003:00000198       ?SyncObj_ContextsList@tbb@@3PEB_WEB 0000000180085198     itt_notify.obj
 0003:000001a0       __itt_fsync_releasing_ptr__3_0 00000001800851a0     itt_notify.obj
 0003:000001a8       __itt_model_site_begin_ptr__3_0 00000001800851a8     itt_notify.obj
 0003:000001b0       __itt_model_site_end_ptr__3_0 00000001800851b0     itt_notify.obj
 0003:000001b8       __itt_model_task_begin_ptr__3_0 00000001800851b8     itt_notify.obj
 0003:000001c0       __itt_model_task_end_ptr__3_0 00000001800851c0     itt_notify.obj
 0003:000001c8       __itt_model_lock_acquire_ptr__3_0 00000001800851c8     itt_notify.obj
 0003:000001d0       __itt_model_lock_release_ptr__3_0 00000001800851d0     itt_notify.obj
 0003:000001d8       __itt_model_record_allocation_ptr__3_0 00000001800851d8     itt_notify.obj
 0003:000001e0       __itt_model_record_deallocation_ptr__3_0 00000001800851e0     itt_notify.obj
 0003:000001e8       __itt_model_induction_uses_ptr__3_0 00000001800851e8     itt_notify.obj
 0003:000001f0       __itt_model_reduction_uses_ptr__3_0 00000001800851f0     itt_notify.obj
 0003:000001f8       __itt_model_observe_uses_ptr__3_0 00000001800851f8     itt_notify.obj
 0003:00000200       __itt_model_clear_uses_ptr__3_0 0000000180085200     itt_notify.obj
 0003:00000208       __itt_model_site_beginW_ptr__3_0 0000000180085208     itt_notify.obj
 0003:00000210       __itt_model_task_beginW_ptr__3_0 0000000180085210     itt_notify.obj
 0003:00000218       __itt_model_iteration_taskW_ptr__3_0 0000000180085218     itt_notify.obj
 0003:00000220       __itt_model_site_beginA_ptr__3_0 0000000180085220     itt_notify.obj
 0003:00000228       __itt_model_site_beginAL_ptr__3_0 0000000180085228     itt_notify.obj
 0003:00000230       __itt_model_task_beginA_ptr__3_0 0000000180085230     itt_notify.obj
 0003:00000238       __itt_model_task_beginAL_ptr__3_0 0000000180085238     itt_notify.obj
 0003:00000240       __itt_model_iteration_taskA_ptr__3_0 0000000180085240     itt_notify.obj
 0003:00000248       __itt_model_iteration_taskAL_ptr__3_0 0000000180085248     itt_notify.obj
 0003:00000250       __itt_model_site_end_2_ptr__3_0 0000000180085250     itt_notify.obj
 0003:00000258       __itt_model_task_end_2_ptr__3_0 0000000180085258     itt_notify.obj
 0003:00000260       __itt_model_lock_acquire_2_ptr__3_0 0000000180085260     itt_notify.obj
 0003:00000268       __itt_model_lock_release_2_ptr__3_0 0000000180085268     itt_notify.obj
 0003:00000270       __itt_model_aggregate_task_ptr__3_0 0000000180085270     itt_notify.obj
 0003:00000278       __itt_model_disable_push_ptr__3_0 0000000180085278     itt_notify.obj
 0003:00000280       __itt_model_disable_pop_ptr__3_0 0000000180085280     itt_notify.obj
 0003:00000288       __itt_heap_function_createA_ptr__3_0 0000000180085288     itt_notify.obj
 0003:00000290       __itt_heap_function_createW_ptr__3_0 0000000180085290     itt_notify.obj
 0003:00000298       __itt_heap_allocate_begin_ptr__3_0 0000000180085298     itt_notify.obj
 0003:000002a0       __itt_heap_allocate_end_ptr__3_0 00000001800852a0     itt_notify.obj
 0003:000002a8       __itt_heap_free_begin_ptr__3_0 00000001800852a8     itt_notify.obj
 0003:000002b0       __itt_heap_free_end_ptr__3_0 00000001800852b0     itt_notify.obj
 0003:000002b8       __itt_heap_reallocate_begin_ptr__3_0 00000001800852b8     itt_notify.obj
 0003:000002c0       __itt_heap_reallocate_end_ptr__3_0 00000001800852c0     itt_notify.obj
 0003:000002c8       __itt_heap_internal_access_begin_ptr__3_0 00000001800852c8     itt_notify.obj
 0003:000002d0       __itt_heap_internal_access_end_ptr__3_0 00000001800852d0     itt_notify.obj
 0003:000002d8       __itt_heap_record_memory_growth_begin_ptr__3_0 00000001800852d8     itt_notify.obj
 0003:000002e0       __itt_heap_record_memory_growth_end_ptr__3_0 00000001800852e0     itt_notify.obj
 0003:000002e8       __itt_heap_reset_detection_ptr__3_0 00000001800852e8     itt_notify.obj
 0003:000002f0       __itt_heap_record_ptr__3_0 00000001800852f0     itt_notify.obj
 0003:000002f8       __itt_id_create_ptr__3_0   00000001800852f8     itt_notify.obj
 0003:00000300       __itt_id_destroy_ptr__3_0  0000000180085300     itt_notify.obj
 0003:00000308       __itt_get_timestamp_ptr__3_0 0000000180085308     itt_notify.obj
 0003:00000310       __itt_region_begin_ptr__3_0 0000000180085310     itt_notify.obj
 0003:00000318       __itt_region_end_ptr__3_0  0000000180085318     itt_notify.obj
 0003:00000320       __itt_frame_begin_v3_ptr__3_0 0000000180085320     itt_notify.obj
 0003:00000328       __itt_frame_end_v3_ptr__3_0 0000000180085328     itt_notify.obj
 0003:00000330       __itt_frame_submit_v3_ptr__3_0 0000000180085330     itt_notify.obj
 0003:00000338       __itt_task_group_ptr__3_0  0000000180085338     itt_notify.obj
 0003:00000340       __itt_task_begin_ptr__3_0  0000000180085340     itt_notify.obj
 0003:00000348       __itt_task_begin_fn_ptr__3_0 0000000180085348     itt_notify.obj
 0003:00000350       __itt_task_end_ptr__3_0    0000000180085350     itt_notify.obj
 0003:00000358       __itt_counter_inc_v3_ptr__3_0 0000000180085358     itt_notify.obj
 0003:00000360       __itt_counter_inc_delta_v3_ptr__3_0 0000000180085360     itt_notify.obj
 0003:00000368       __itt_counter_dec_v3_ptr__3_0 0000000180085368     itt_notify.obj
 0003:00000370       __itt_counter_dec_delta_v3_ptr__3_0 0000000180085370     itt_notify.obj
 0003:00000378       __itt_marker_ptr__3_0      0000000180085378     itt_notify.obj
 0003:00000380       __itt_metadata_add_ptr__3_0 0000000180085380     itt_notify.obj
 0003:00000388       __itt_metadata_str_addA_ptr__3_0 0000000180085388     itt_notify.obj
 0003:00000390       __itt_metadata_str_addW_ptr__3_0 0000000180085390     itt_notify.obj
 0003:00000398       __itt_relation_add_to_current_ptr__3_0 0000000180085398     itt_notify.obj
 0003:000003a0       __itt_relation_add_ptr__3_0 00000001800853a0     itt_notify.obj
 0003:000003a8       __itt_event_createA_ptr__3_0 00000001800853a8     itt_notify.obj
 0003:000003b0       __itt_event_createW_ptr__3_0 00000001800853b0     itt_notify.obj
 0003:000003b8       __itt_event_start_ptr__3_0 00000001800853b8     itt_notify.obj
 0003:000003c0       __itt_event_end_ptr__3_0   00000001800853c0     itt_notify.obj
 0003:000003c8       __itt_sync_set_nameA_ptr__3_0 00000001800853c8     itt_notify.obj
 0003:000003d0       __itt_sync_set_nameW_ptr__3_0 00000001800853d0     itt_notify.obj
 0003:000003d8       __itt_notify_sync_nameA_ptr__3_0 00000001800853d8     itt_notify.obj
 0003:000003e0       __itt_notify_sync_nameW_ptr__3_0 00000001800853e0     itt_notify.obj
 0003:000003e8       __itt_notify_sync_prepare_ptr__3_0 00000001800853e8     itt_notify.obj
 0003:000003f0       __itt_notify_sync_cancel_ptr__3_0 00000001800853f0     itt_notify.obj
 0003:000003f8       __itt_notify_sync_acquired_ptr__3_0 00000001800853f8     itt_notify.obj
 0003:00000400       __itt_notify_sync_releasing_ptr__3_0 0000000180085400     itt_notify.obj
 0003:00000408       __itt_memory_read_ptr__3_0 0000000180085408     itt_notify.obj
 0003:00000410       __itt_memory_write_ptr__3_0 0000000180085410     itt_notify.obj
 0003:00000418       __itt_memory_update_ptr__3_0 0000000180085418     itt_notify.obj
 0003:00000420       __itt_state_get_ptr__3_0   0000000180085420     itt_notify.obj
 0003:00000428       __itt_state_set_ptr__3_0   0000000180085428     itt_notify.obj
 0003:00000430       __itt_obj_mode_set_ptr__3_0 0000000180085430     itt_notify.obj
 0003:00000438       __itt_thr_mode_set_ptr__3_0 0000000180085438     itt_notify.obj
 0003:00000440       __itt_frame_createA_ptr__3_0 0000000180085440     itt_notify.obj
 0003:00000448       __itt_frame_createW_ptr__3_0 0000000180085448     itt_notify.obj
 0003:00000450       __itt_pt_region_createA_ptr__3_0 0000000180085450     itt_notify.obj
 0003:00000458       __itt_pt_region_createW_ptr__3_0 0000000180085458     itt_notify.obj
 0003:00000460       __itt_frame_begin_ptr__3_0 0000000180085460     itt_notify.obj
 0003:00000468       __itt_frame_end_ptr__3_0   0000000180085468     itt_notify.obj
 0003:00000470       __itt_counter_destroy_ptr__3_0 0000000180085470     itt_notify.obj
 0003:00000478       __itt_counter_inc_ptr__3_0 0000000180085478     itt_notify.obj
 0003:00000480       __itt_counter_inc_delta_ptr__3_0 0000000180085480     itt_notify.obj
 0003:00000488       __itt_counter_dec_ptr__3_0 0000000180085488     itt_notify.obj
 0003:00000490       __itt_counter_dec_delta_ptr__3_0 0000000180085490     itt_notify.obj
 0003:00000498       __itt_counter_set_value_ptr__3_0 0000000180085498     itt_notify.obj
 0003:000004a0       __itt_counter_set_value_ex_ptr__3_0 00000001800854a0     itt_notify.obj
 0003:000004a8       __itt_mark_createA_ptr__3_0 00000001800854a8     itt_notify.obj
 0003:000004b0       __itt_mark_createW_ptr__3_0 00000001800854b0     itt_notify.obj
 0003:000004b8       __itt_markA_ptr__3_0       00000001800854b8     itt_notify.obj
 0003:000004c0       __itt_markW_ptr__3_0       00000001800854c0     itt_notify.obj
 0003:000004c8       __itt_mark_off_ptr__3_0    00000001800854c8     itt_notify.obj
 0003:000004d0       __itt_mark_globalA_ptr__3_0 00000001800854d0     itt_notify.obj
 0003:000004d8       __itt_mark_globalW_ptr__3_0 00000001800854d8     itt_notify.obj
 0003:000004e0       __itt_mark_global_off_ptr__3_0 00000001800854e0     itt_notify.obj
 0003:000004e8       __itt_stack_caller_create_ptr__3_0 00000001800854e8     itt_notify.obj
 0003:000004f0       __itt_stack_caller_destroy_ptr__3_0 00000001800854f0     itt_notify.obj
 0003:000004f8       __itt_stack_callee_enter_ptr__3_0 00000001800854f8     itt_notify.obj
 0003:00000500       __itt_stack_callee_leave_ptr__3_0 0000000180085500     itt_notify.obj
 0003:00000508       __itt_clock_domain_create_ptr__3_0 0000000180085508     itt_notify.obj
 0003:00000510       __itt_clock_domain_reset_ptr__3_0 0000000180085510     itt_notify.obj
 0003:00000518       __itt_id_create_ex_ptr__3_0 0000000180085518     itt_notify.obj
 0003:00000520       __itt_id_destroy_ex_ptr__3_0 0000000180085520     itt_notify.obj
 0003:00000528       __itt_task_begin_ex_ptr__3_0 0000000180085528     itt_notify.obj
 0003:00000530       __itt_task_begin_fn_ex_ptr__3_0 0000000180085530     itt_notify.obj
 0003:00000538       __itt_task_end_ex_ptr__3_0 0000000180085538     itt_notify.obj
 0003:00000540       __itt_task_begin_overlapped_ptr__3_0 0000000180085540     itt_notify.obj
 0003:00000548       __itt_task_begin_overlapped_ex_ptr__3_0 0000000180085548     itt_notify.obj
 0003:00000550       __itt_task_end_overlapped_ptr__3_0 0000000180085550     itt_notify.obj
 0003:00000558       __itt_task_end_overlapped_ex_ptr__3_0 0000000180085558     itt_notify.obj
 0003:00000560       __itt_marker_ex_ptr__3_0   0000000180085560     itt_notify.obj
 0003:00000568       __itt_metadata_add_with_scope_ptr__3_0 0000000180085568     itt_notify.obj
 0003:00000570       __itt_metadata_str_add_with_scopeA_ptr__3_0 0000000180085570     itt_notify.obj
 0003:00000578       __itt_metadata_str_add_with_scopeW_ptr__3_0 0000000180085578     itt_notify.obj
 0003:00000580       __itt_relation_add_to_current_ex_ptr__3_0 0000000180085580     itt_notify.obj
 0003:00000588       __itt_relation_add_ex_ptr__3_0 0000000180085588     itt_notify.obj
 0003:00000590       __itt_track_group_create_ptr__3_0 0000000180085590     itt_notify.obj
 0003:00000598       __itt_track_create_ptr__3_0 0000000180085598     itt_notify.obj
 0003:000005a0       __itt_set_track_ptr__3_0   00000001800855a0     itt_notify.obj
 0003:000005a8       __itt_api_version_ptr__3_0 00000001800855a8     itt_notify.obj
 0003:000005b0       __itt_av_saveA_ptr__3_0    00000001800855b0     itt_notify.obj
 0003:000005b8       __itt_av_saveW_ptr__3_0    00000001800855b8     itt_notify.obj
 0003:000005c0       __itt_module_loadA_ptr__3_0 00000001800855c0     itt_notify.obj
 0003:000005c8       __itt_module_loadW_ptr__3_0 00000001800855c8     itt_notify.obj
 0003:000005d0       __itt_domain_createA_ptr__3_0 00000001800855d0     itt_notify.obj
 0003:000005d8       __itt_domain_createW_ptr__3_0 00000001800855d8     itt_notify.obj
 0003:000005e0       __itt_string_handle_createA_ptr__3_0 00000001800855e0     itt_notify.obj
 0003:000005e8       __itt_string_handle_createW_ptr__3_0 00000001800855e8     itt_notify.obj
 0003:000005f0       __itt_counter_createA_ptr__3_0 00000001800855f0     itt_notify.obj
 0003:000005f8       __itt_counter_createW_ptr__3_0 00000001800855f8     itt_notify.obj
 0003:00000600       __itt_counter_create_typedA_ptr__3_0 0000000180085600     itt_notify.obj
 0003:00000608       __itt_counter_create_typedW_ptr__3_0 0000000180085608     itt_notify.obj
 0003:00000610       __itt_pause_ptr__3_0       0000000180085610     itt_notify.obj
 0003:00000618       __itt_resume_ptr__3_0      0000000180085618     itt_notify.obj
 0003:00000620       __itt_thread_set_nameA_ptr__3_0 0000000180085620     itt_notify.obj
 0003:00000628       __itt_thread_set_nameW_ptr__3_0 0000000180085628     itt_notify.obj
 0003:00000630       __itt_thread_ignore_ptr__3_0 0000000180085630     itt_notify.obj
 0003:00000638       __itt_thr_name_setA_ptr__3_0 0000000180085638     itt_notify.obj
 0003:00000640       __itt_thr_name_setW_ptr__3_0 0000000180085640     itt_notify.obj
 0003:00000648       __itt_thr_ignore_ptr__3_0  0000000180085648     itt_notify.obj
 0003:00000650       __itt_enable_attach_ptr__3_0 0000000180085650     itt_notify.obj
 0003:00002288       ?NumGroups@ProcessorGroupInfo@internal@tbb@@2HA 0000000180087288     tbb_misc_ex.obj
 0003:00002290       ?msg@?1??assert_context_valid@generic_scheduler@internal@tbb@@SAXPEBVtask_group_context@4@@Z@4PEBDEB 0000000180087290     arena.obj
 0003:00002670       __security_cookie_complement 0000000180087670     MSVCRTD:gs_cookie.obj
 0003:00002678       __security_cookie          0000000180087678     MSVCRTD:gs_cookie.obj
 0003:00002680       _fltused                   0000000180087680     MSVCRTD:fltused.obj
 0003:00002690       _Init_global_epoch         0000000180087690     MSVCRTD:thread_safe_statics.obj
 0003:00002694       __scrt_native_dllmain_reason 0000000180087694     MSVCRTD:utility.obj
 0003:00002698       ?_RTC_ErrorLevels@@3PAHA   0000000180087698     MSVCRTD:error.obj
 0003:000026b0       __isa_available            00000001800876b0     MSVCRTD:cpu_disp.obj
 0003:000026b4       __isa_enabled              00000001800876b4     MSVCRTD:cpu_disp.obj
 0003:000026b8       __memcpy_nt_iters          00000001800876b8     MSVCRTD:cpu_disp.obj
 0003:000026c0       __scrt_ucrt_dll_is_in_use  00000001800876c0     MSVCRTD:ucrt_stubs.obj
 0003:000026d0       ??_R0?AVuser_abort@tbb@@@8 00000001800876d0     concurrent_queue.obj
 0003:000026f8       ??_R0?AVconcurrent_queue_base_v3@internal@tbb@@@8 00000001800876f8     concurrent_queue.obj
 0003:00002738       ??_R0?AVno_copy@internal@tbb@@@8 0000000180087738     concurrent_queue.obj
 0003:00002768       ??_R0?AVno_assign@internal@tbb@@@8 0000000180087768     concurrent_queue.obj
 0003:00002798       ??_R0?AVtask@tbb@@@8       0000000180087798     pipeline.obj
 0003:000027b8       ??_R0?AVtask_base@internal@interface5@tbb@@@8 00000001800877b8     pipeline.obj
 0003:000027f0       ??_R0?AVpipeline@tbb@@@8   00000001800877f0     pipeline.obj
 0003:00002818       ??_R0?AVfilter@tbb@@@8     0000000180087818     pipeline.obj
 0003:00002840       ??_R0?AVstage_task@internal@tbb@@@8 0000000180087840     pipeline.obj
 0003:00002870       ??_R0?AUtask_info@internal@tbb@@@8 0000000180087870     pipeline.obj
 0003:000028a0       ??_R0?AVpipeline_root_task@internal@tbb@@@8 00000001800878a0     pipeline.obj
 0003:000028d8       ??_R0?AVserver@rml@@@8     00000001800878d8     private_server.obj
 0003:00002900       ??_R0?AVversioned_object@rml@@@8 0000000180087900     private_server.obj
 0003:00002930       ??_R0?AVtbb_server@rml@internal@tbb@@@8 0000000180087930     private_server.obj
 0003:00002968       ??_R0?AVprivate_server@rml@internal@tbb@@@8 0000000180087968     private_server.obj
 0003:000029a0       ??_R0?AVruntime_error@std@@@8 00000001800879a0     tbb_misc.obj
 0003:000029c8       ??_R0?AVexception@std@@@8  00000001800879c8     tbb_misc.obj
 0003:000029f0       ??_R0?AVbad_alloc@std@@@8  00000001800879f0     tbb_misc.obj
 0003:00002a18       ??_R0?AVbad_last_alloc@tbb@@@8 0000000180087a18     tbb_misc.obj
 0003:00002a48       ??_R0?AVinvalid_argument@std@@@8 0000000180087a48     tbb_misc.obj
 0003:00002a78       ??_R0?AVlogic_error@std@@@8 0000000180087a78     tbb_misc.obj
 0003:00002aa0       ??_R0?AVout_of_range@std@@@8 0000000180087aa0     tbb_misc.obj
 0003:00002ac8       ??_R0?AVrange_error@std@@@8 0000000180087ac8     tbb_misc.obj
 0003:00002af0       ??_R0?AVmissing_wait@tbb@@@8 0000000180087af0     tbb_misc.obj
 0003:00002b18       ??_R0?AVinvalid_multiple_scheduling@tbb@@@8 0000000180087b18     tbb_misc.obj
 0003:00002b50       ??_R0?AVimproper_lock@tbb@@@8 0000000180087b50     tbb_misc.obj
 0003:00002b78       ??_R0?AVlength_error@std@@@8 0000000180087b78     tbb_misc.obj
 0003:00002ba0       ??_R0?AVcaptured_exception@tbb@@@8 0000000180087ba0     task_group_context.obj
 0003:00002bd0       ??_R0?AVtbb_exception@tbb@@@8 0000000180087bd0     task_group_context.obj
 0003:00002bf8       ??_R0?AVmarket@internal@tbb@@@8 0000000180087bf8     market.obj
 0003:00002c28       ??_R0?AVtbb_client@rml@internal@tbb@@@8 0000000180087c28     market.obj
 0003:00002c60       ??_R0?AVclient@rml@@@8     0000000180087c60     market.obj
 0003:00002c88       ??_R0?AVdelegate_base@internal@interface7@tbb@@@8 0000000180087c88     arena.obj
 0003:00002cd0       ??_R0?AV?$delegated_function@Vspawn_functor@graph@interface10@flow@tbb@@X@internal@interface7@tbb@@@8 0000000180087cd0     arena.obj
 0003:00002d40       ??_R0?AVempty_task@tbb@@@8 0000000180087d40     arena.obj
 0003:00002d68       ??_R0?AVdelegated_task@internal@interface7@tbb@@@8 0000000180087d68     arena.obj
 0003:00002da8       ??_R0?AVwait_task@internal@interface7@tbb@@@8 0000000180087da8     arena.obj
 0003:00002de0       ??_R0?AVtask_scheduler_observer_v3@internal@tbb@@@8 0000000180087de0     arena.obj
 0003:00002e20       ??_R0?AVtask_scheduler_observer@interface6@tbb@@@8 0000000180087e20     arena.obj
 0003:00002e60       ??_R0?AVnuma_binding_observer@internal@tbb@@@8 0000000180087e60     arena.obj
 0003:00002ea0       ??_R0?AV?$function_task@Vspawn_functor@graph@interface10@flow@tbb@@@internal@tbb@@@8 0000000180087ea0     arena.obj
 0003:00002f00       ??_R0?AVscheduler@internal@tbb@@@8 0000000180087f00     scheduler.obj
 0003:00002f30       ??_R0?AVgeneric_scheduler@internal@tbb@@@8 0000000180087f30     scheduler.obj
 0003:00002f68       ??_R0?AVjob@rml@@@8        0000000180087f68     scheduler.obj
 0003:00002f88       ??_R0?AUintrusive_list_node@internal@tbb@@@8 0000000180087f88     scheduler.obj
 0003:00002fc0       ??_R0?AUscheduler_state@internal@tbb@@@8 0000000180087fc0     scheduler.obj
 0003:00003000       ??_R0?AV?$custom_scheduler@UDefaultSchedulerTraits@internal@tbb@@@internal@tbb@@@8 0000000180088000     scheduler.obj
 0003:00003060       ??_R0?AV?$custom_scheduler@UIntelSchedulerTraits@internal@tbb@@@internal@tbb@@@8 0000000180088060     scheduler.obj
 0003:000030c0       ??_R0?AVcontrol_storage@internal@tbb@@@8 00000001800880c0     tbb_main.obj
 0003:000030f8       ??_R0?AVallowed_parallelism_control@internal@tbb@@@8 00000001800880f8     tbb_main.obj
 0003:00003140       ??_R0?AU?$padded@Vcontrol_storage@internal@tbb@@$0IA@@internal@tbb@@@8 0000000180088140     tbb_main.obj
 0003:000031a0       ??_R0?AU?$padded_base@Vcontrol_storage@internal@tbb@@$0IA@$0CA@@internal@tbb@@@8 00000001800881a0     tbb_main.obj
 0003:00003200       ??_R0?AVstack_size_control@internal@tbb@@@8 0000000180088200     tbb_main.obj
 0003:00003238       ??_R0?AVconcurrent_queue_base@internal@tbb@@@8 0000000180088238     concurrent_queue_v2.obj
 0003:00003278       ??_R0?AVtype_info@@@8      0000000180088278     MSVCRTD:std_type_info_static.obj
 0003:00003298       ??_R0?AVbad_array_new_length@std@@@8 0000000180088298     MSVCRTD:throw_bad_alloc.obj
 0003:000032e0       ?handles@internal@tbb@@3Uhandles_t@12@A 00000001800882e0     dynamic_link.obj
 0003:00003328       ?init_dl_data_state@internal@tbb@@3U?$atomic@W4do_once_state@internal@tbb@@@2@A 0000000180088328     dynamic_link.obj
 0003:00004448       ?_OptionsStorage@?1??__local_stdio_printf_options@@9@4_KA 0000000180089448     private_server.obj
 0003:00004460       ?HoleIndex@ProcessorGroupInfo@internal@tbb@@2HA 0000000180089460     tbb_misc_ex.obj
 0003:00004470       ?theProcessorGroups@internal@tbb@@3PAUProcessorGroupInfo@12@A 0000000180089470     tbb_misc_ex.obj
 0003:000048c8       ?numa_nodes_count@?A0x135b37b1@numa_topology@internal@tbb@@3HA 00000001800898c8     governor.obj
 0003:000048d0       ?numa_indexes@?A0x135b37b1@numa_topology@internal@tbb@@3PEAHEA 00000001800898d0     governor.obj
 0003:000048d8       ?default_concurrency_list@?A0x135b37b1@numa_topology@internal@tbb@@3PEAHEA 00000001800898d8     governor.obj
 0003:000048f0       ?the_context_state_propagation_epoch@internal@tbb@@3_KA 00000001800898f0     scheduler.obj
 0003:000048f8       ?the_context_state_propagation_mutex@internal@tbb@@3Vspin_mutex@2@A 00000001800898f8     scheduler.obj
 0003:00004a00       ?the_global_observer_list@internal@tbb@@3U?$padded@Vobserver_list@internal@tbb@@$0IA@@12@A 0000000180089a00     observer_proxy.obj
 0003:00004a88       ?theMarket@market@internal@tbb@@0PEAV123@EA 0000000180089a88     tbb_main.obj
 0003:00004a90       ?AllocateSchedulerPtr@internal@tbb@@3P6APEAVgeneric_scheduler@12@AEAVmarket@12@_N@ZEA 0000000180089a90     tbb_main.obj
 0003:00004a98       ?theTLS@governor@internal@tbb@@0V?$basic_tls@_K@23@A 0000000180089a98     tbb_main.obj
 0003:00004a9c       ?DefaultNumberOfThreads@governor@internal@tbb@@0IA 0000000180089a9c     tbb_main.obj
 0003:00004aa0       ?DefaultPageSize@governor@internal@tbb@@0_KA 0000000180089aa0     tbb_main.obj
 0003:00004aa8       ?theRMLServerFactory@governor@internal@tbb@@0Vtbb_factory@rml@23@A 0000000180089aa8     tbb_main.obj
 0003:00004ad0       ?UsePrivateRML@governor@internal@tbb@@0_NA 0000000180089ad0     tbb_main.obj
 0003:00004ad1       ?is_speculation_enabled@governor@internal@tbb@@0_NA 0000000180089ad1     tbb_main.obj
 0003:00004ad2       ?is_rethrow_broken@governor@internal@tbb@@0_NA 0000000180089ad2     tbb_main.obj
 0003:00004ad3       ?InitializationDone@__TBB_InitOnce@internal@tbb@@0_NA 0000000180089ad3     tbb_main.obj
 0003:00004ad4       ?count@__TBB_InitOnce@internal@tbb@@0U?$atomic@H@3@A 0000000180089ad4     tbb_main.obj
 0003:00004ad8       ?InitializationLock@__TBB_InitOnce@internal@tbb@@0EA 0000000180089ad8     tbb_main.obj
 0003:00004ad9       ?theMarketMutex@market@internal@tbb@@0Vspin_mutex@3@A 0000000180089ad9     tbb_main.obj
 0003:00005170       ?__type_info_root_node@@3U__type_info_node@@A 000000018008a170     MSVCRTD:tncleanup.obj
 0003:000051c8       _tls_index                 000000018008a1c8     MSVCRTD:tlssup.obj
 0003:000051d0       __scrt_current_native_startup_state 000000018008a1d0     MSVCRTD:utility.obj
 0003:000051d8       __scrt_native_startup_lock 000000018008a1d8     MSVCRTD:utility.obj
 0003:00005230       __scrt_debugger_hook_flag  000000018008a230     MSVCRTD:utility_desktop.obj
 0003:00005234       __favor                    000000018008a234     MSVCRTD:cpu_disp.obj
 0003:00005238       ?_OptionsStorage@?1??__local_stdio_scanf_options@@9@4_KA 000000018008a238     MSVCRTD:default_local_stdio_options.obj
 0003:00005250       __dyn_tls_init_callback    000000018008a250     <common>

 entry point at        0001:00051590

 Static symbols

 0004:fff75000       $pdata$?compare_and_swap@?$atomic_impl@W4do_once_state@internal@tbb@@@internal@tbb@@QEAA?AW4do_once_state@23@W4423@0@Z 0000000180000000     governor.obj
 0002:fffa9000       $unwind$?__empty_global_delete@@YAXPEAX@Z 0000000180000000     concurrent_queue.obj
 0004:fff75000       $pdata$?__empty_global_delete@@YAXPEAX@Z 0000000180000000     concurrent_queue.obj
 0002:fffa9000       $unwind$?__empty_global_delete@@YAXPEAX_K@Z 0000000180000000     concurrent_queue.obj
 0004:fff75000       $pdata$?__empty_global_delete@@YAXPEAX_K@Z 0000000180000000     concurrent_queue.obj
 0002:fffa9000       $unwind$??B?$atomic_impl@_K@internal@tbb@@QEDA_KXZ 0000000180000000     concurrent_queue.obj
 0004:fff75000       $pdata$??B?$atomic_impl@_K@internal@tbb@@QEDA_KXZ 0000000180000000     concurrent_queue.obj
 0002:fffa9000       $unwind$??$__TBB_load_with_acquire@_J@internal@tbb@@YA_JAED_J@Z 0000000180000000     concurrent_queue.obj
 0004:fff75000       $pdata$??$__TBB_load_with_acquire@_J@internal@tbb@@YA_JAED_J@Z 0000000180000000     concurrent_queue.obj
 0002:fffa9000       $unwind$??0?$converter@_K@?$atomic_impl@_K@internal@tbb@@QEAA@XZ 0000000180000000     concurrent_queue.obj
 0004:fff75000       $pdata$??0?$converter@_K@?$atomic_impl@_K@internal@tbb@@QEAA@XZ 0000000180000000     concurrent_queue.obj
 0002:fffa9000       $unwind$??$to_bits_ref@$$CD_K@?$atomic_impl@_K@internal@tbb@@CAAEA_JAED_K@Z 0000000180000000     concurrent_queue.obj
 0004:fff75000       $pdata$??$to_bits_ref@$$CD_K@?$atomic_impl@_K@internal@tbb@@CAAEA_JAED_K@Z 0000000180000000     concurrent_queue.obj
 0002:fffa9000       ??$to_value@_K@?$atomic_impl@_K@internal@tbb@@CA_K_J@Z$rtcName$0 0000000180000000     concurrent_queue.obj
 0002:fffa9000       $unwind$?compare_and_swap@?$atomic_impl@PEAVtask@tbb@@@internal@tbb@@QEAAPEAVtask@3@PEAV43@0@Z 0000000180000000     scheduler.obj
 0004:fff75000       $pdata$??$as_atomic@PEAVtask@tbb@@@internal@tbb@@YAAEAU?$atomic@PEAVtask@tbb@@@1@AEAPEAVtask@1@@Z 0000000180000000     scheduler.obj
 0002:fffa9000       $unwind$??$to_value@_K@?$atomic_impl@_K@internal@tbb@@CA_K_J@Z 0000000180000000     concurrent_queue.obj
 0004:fff75000       $pdata$??$to_value@_K@?$atomic_impl@_K@internal@tbb@@CA_K_J@Z 0000000180000000     concurrent_queue.obj
 0002:fffa9000       $unwind$?load_with_acquire@?$machine_load_store@_J$07@internal@tbb@@SA_JAED_J@Z 0000000180000000     concurrent_queue.obj
 0004:fff75000       $pdata$?load_with_acquire@?$machine_load_store@_J$07@internal@tbb@@SA_JAED_J@Z 0000000180000000     concurrent_queue.obj
 0002:fffa9000       $unwind$??0?$ptr_converter@PED_K@?$atomic_impl@_K@internal@tbb@@QEAA@PED_K@Z 0000000180000000     concurrent_queue.obj
 0004:fff75000       $pdata$??0?$ptr_converter@PED_K@?$atomic_impl@_K@internal@tbb@@QEAA@PED_K@Z 0000000180000000     concurrent_queue.obj
 0002:fffa9000       $unwind$?__empty_global_delete@@YAXPEAX@Z 0000000180000000     concurrent_vector.obj
 0004:fff75000       $pdata$?__empty_global_delete@@YAXPEAX@Z 0000000180000000     concurrent_vector.obj
 0002:fffa9000       $unwind$?__empty_global_delete@@YAXPEAX_K@Z 0000000180000000     concurrent_vector.obj
 0004:fff75000       $pdata$?__empty_global_delete@@YAXPEAX_K@Z 0000000180000000     concurrent_vector.obj
 0002:fffa9000       $unwind$??2@YAPEAX_KPEAX@Z 0000000180000000     concurrent_vector.obj
 0004:fff75000       $pdata$??2@YAPEAX_KPEAX@Z  0000000180000000     concurrent_vector.obj
 0002:fffa9000       $unwind$?throw_exception@internal@tbb@@YAXW4exception_id@12@@Z 0000000180000000     concurrent_vector.obj
 0004:fff75000       $pdata$?throw_exception@internal@tbb@@YAXW4exception_id@12@@Z 0000000180000000     concurrent_vector.obj
 0002:fffa9000       $unwind$??0atomic_backoff@internal@tbb@@QEAA@XZ 0000000180000000     concurrent_vector.obj
 0004:fff75000       $pdata$??0atomic_backoff@internal@tbb@@QEAA@XZ 0000000180000000     concurrent_vector.obj
 0002:fffa9000       $unwind$??0atomic_backoff@internal@tbb@@QEAA@_N@Z 0000000180000000     concurrent_vector.obj
 0004:fff75000       $pdata$??0atomic_backoff@internal@tbb@@QEAA@_N@Z 0000000180000000     concurrent_vector.obj
 0002:fffa9000       $unwind$?pause@atomic_backoff@internal@tbb@@QEAAXXZ 0000000180000000     concurrent_vector.obj
 0004:fff75000       $pdata$?pause@atomic_backoff@internal@tbb@@QEAAXXZ 0000000180000000     concurrent_vector.obj
 0002:fffa9000       $unwind$?compare_and_swap@?$atomic_impl@_K@internal@tbb@@QEAA_K_K0@Z 0000000180000000     concurrent_vector.obj
 0004:fff75000       $pdata$?compare_and_swap@?$atomic_impl@_K@internal@tbb@@QEAA_K_K0@Z 0000000180000000     concurrent_vector.obj
 0002:fffa9000       $unwind$??B?$atomic_impl@_K@internal@tbb@@QEDA_KXZ 0000000180000000     concurrent_vector.obj
 0004:fff75000       $pdata$??B?$atomic_impl@_K@internal@tbb@@QEDA_KXZ 0000000180000000     concurrent_vector.obj
 0002:fffa9000       $unwind$?store_with_release@?$atomic_impl@_K@internal@tbb@@IEAA_K_K@Z 0000000180000000     concurrent_vector.obj
 0004:fff75000       $pdata$?store_with_release@?$atomic_impl@_K@internal@tbb@@IEAA_K_K@Z 0000000180000000     concurrent_vector.obj
 0002:fffa9000       $unwind$?fetch_and_add@?$atomic_impl_with_arithmetic@_K_KD@internal@tbb@@QEAA_K_K@Z 0000000180000000     concurrent_vector.obj
 0004:fff75000       $pdata$?fetch_and_add@?$atomic_impl_with_arithmetic@_K_KD@internal@tbb@@QEAA_K_K@Z 0000000180000000     concurrent_vector.obj
 0002:fffa9000       $unwind$??4?$atomic@_K@tbb@@QEAA_K_K@Z 0000000180000000     concurrent_vector.obj
 0004:fff75000       $pdata$??4?$atomic@_K@tbb@@QEAA_K_K@Z 0000000180000000     concurrent_vector.obj
 0002:fffa9000       ??$spin_wait_while_eq@U?$atomic@_K@tbb@@_K@internal@tbb@@YAXAEDU?$atomic@_K@1@_K@Z$rtcName$0 0000000180000000     concurrent_vector.obj
 0002:fffa9000       $unwind$??$as_atomic@PEAVtask@tbb@@@internal@tbb@@YAAEAU?$atomic@PEAVtask@tbb@@@1@AEAPEAVtask@1@@Z 0000000180000000     scheduler.obj
 0004:fff75000       $pdata$??$spin_wait_until_eq@U?$atomic@_K@tbb@@I@internal@tbb@@YAXAEDU?$atomic@_K@1@I@Z 0000000180000000     scheduler.obj
 0002:fffa9000       $unwind$??$spin_wait_while_eq@U?$atomic@_K@tbb@@_K@internal@tbb@@YAXAEDU?$atomic@_K@1@_K@Z 0000000180000000     concurrent_vector.obj
 0004:fff75000       $pdata$??$spin_wait_while_eq@U?$atomic@_K@tbb@@_K@internal@tbb@@YAXAEDU?$atomic@_K@1@_K@Z 0000000180000000     concurrent_vector.obj
 0002:fffa9000       $unwind$??$__TBB_load_with_acquire@_J@internal@tbb@@YA_JAED_J@Z 0000000180000000     concurrent_vector.obj
 0004:fff75000       $pdata$??$__TBB_load_with_acquire@_J@internal@tbb@@YA_JAED_J@Z 0000000180000000     concurrent_vector.obj
 0002:fffa9000       $unwind$??$__TBB_store_with_release@_J_J@internal@tbb@@YAXAEC_J_J@Z 0000000180000000     concurrent_vector.obj
 0004:fff75000       $pdata$??$__TBB_store_with_release@_J_J@internal@tbb@@YAXAEC_J_J@Z 0000000180000000     concurrent_vector.obj
 0002:fffa9000       $unwind$??0?$converter@_K@?$atomic_impl@_K@internal@tbb@@QEAA@XZ 0000000180000000     concurrent_vector.obj
 0004:fff75000       $pdata$??0?$converter@_K@?$atomic_impl@_K@internal@tbb@@QEAA@XZ 0000000180000000     concurrent_vector.obj
 0002:fffa9000       $unwind$??0?$converter@_K@?$atomic_impl@_K@internal@tbb@@QEAA@_K@Z 0000000180000000     concurrent_vector.obj
 0004:fff75000       $pdata$??0?$converter@_K@?$atomic_impl@_K@internal@tbb@@QEAA@_K@Z 0000000180000000     concurrent_vector.obj
 0002:fffa9000       $unwind$??$to_bits_ref@_K@?$atomic_impl@_K@internal@tbb@@CAAEA_JAEA_K@Z 0000000180000000     concurrent_vector.obj
 0004:fff75000       $pdata$??$to_bits_ref@_K@?$atomic_impl@_K@internal@tbb@@CAAEA_JAEA_K@Z 0000000180000000     concurrent_vector.obj
 0002:fffa9000       $unwind$??$to_bits@_K@?$atomic_impl@_K@internal@tbb@@CA_J_K@Z 0000000180000000     concurrent_vector.obj
 0004:fff75000       $pdata$??$to_bits@_K@?$atomic_impl@_K@internal@tbb@@CA_J_K@Z 0000000180000000     concurrent_vector.obj
 0002:fffa9000       $unwind$??$to_bits_ref@$$CD_K@?$atomic_impl@_K@internal@tbb@@CAAEA_JAED_K@Z 0000000180000000     concurrent_vector.obj
 0004:fff75000       $pdata$??$to_bits_ref@$$CD_K@?$atomic_impl@_K@internal@tbb@@CAAEA_JAED_K@Z 0000000180000000     concurrent_vector.obj
 0002:fffa9000       ??$to_value@_K@?$atomic_impl@_K@internal@tbb@@CA_K_J@Z$rtcName$0 0000000180000000     concurrent_vector.obj
 0002:fffa9000       $unwind$??$spin_wait_until_eq@U?$atomic@_K@tbb@@I@internal@tbb@@YAXAEDU?$atomic@_K@1@I@Z 0000000180000000     scheduler.obj
 0002:fffa9000       ??$spin_wait_until_eq@U?$atomic@_K@tbb@@I@internal@tbb@@YAXAEDU?$atomic@_K@1@I@Z$rtcName$0 0000000180000000     scheduler.obj
 0002:fffa9000       $unwind$??$to_value@_K@?$atomic_impl@_K@internal@tbb@@CA_K_J@Z 0000000180000000     concurrent_vector.obj
 0004:fff75000       $pdata$??$to_value@_K@?$atomic_impl@_K@internal@tbb@@CA_K_J@Z 0000000180000000     concurrent_vector.obj
 0002:fffa9000       $unwind$??$compare_and_swap@$0A@@?$atomic_impl@_K@internal@tbb@@QEAA_K_K0@Z 0000000180000000     concurrent_vector.obj
 0004:fff75000       $pdata$??$compare_and_swap@$0A@@?$atomic_impl@_K@internal@tbb@@QEAA_K_K0@Z 0000000180000000     concurrent_vector.obj
 0002:fffa9000       $unwind$??$fetch_and_add@$0A@@?$atomic_impl_with_arithmetic@_K_KD@internal@tbb@@QEAA_K_K@Z 0000000180000000     concurrent_vector.obj
 0004:fff75000       $pdata$??$fetch_and_add@$0A@@?$atomic_impl_with_arithmetic@_K_KD@internal@tbb@@QEAA_K_K@Z 0000000180000000     concurrent_vector.obj
 0002:fffa9000       $unwind$?load_with_acquire@?$machine_load_store@_J$07@internal@tbb@@SA_JAED_J@Z 0000000180000000     concurrent_vector.obj
 0004:fff75000       $pdata$?load_with_acquire@?$machine_load_store@_J$07@internal@tbb@@SA_JAED_J@Z 0000000180000000     concurrent_vector.obj
 0002:fffa9000       $unwind$?store_with_release@?$machine_load_store@_J$07@internal@tbb@@SAXAEC_J_J@Z 0000000180000000     concurrent_vector.obj
 0004:fff75000       $pdata$?store_with_release@?$machine_load_store@_J$07@internal@tbb@@SAXAEC_J_J@Z 0000000180000000     concurrent_vector.obj
 0002:fffa9000       $unwind$?compare_and_swap@?$atomic_traits@$07$0A@@internal@tbb@@SA_JPECX_J1@Z 0000000180000000     concurrent_vector.obj
 0004:fff75000       $pdata$?compare_and_swap@?$atomic_traits@$07$0A@@internal@tbb@@SA_JPECX_J1@Z 0000000180000000     concurrent_vector.obj
 0002:fffa9000       $unwind$?fetch_and_add@?$atomic_traits@$07$0A@@internal@tbb@@SA_JPECX_J@Z 0000000180000000     concurrent_vector.obj
 0004:fff75000       $pdata$?fetch_and_add@?$atomic_traits@$07$0A@@internal@tbb@@SA_JPECX_J@Z 0000000180000000     concurrent_vector.obj
 0002:fffa9000       $unwind$??0?$ptr_converter@PEA_K@?$atomic_impl@_K@internal@tbb@@QEAA@PEA_K@Z 0000000180000000     concurrent_vector.obj
 0004:fff75000       $pdata$??0?$ptr_converter@PEA_K@?$atomic_impl@_K@internal@tbb@@QEAA@PEA_K@Z 0000000180000000     concurrent_vector.obj
 0002:fffa9000       $unwind$??0?$ptr_converter@PED_K@?$atomic_impl@_K@internal@tbb@@QEAA@PED_K@Z 0000000180000000     concurrent_vector.obj
 0004:fff75000       $pdata$??0?$ptr_converter@PED_K@?$atomic_impl@_K@internal@tbb@@QEAA@PED_K@Z 0000000180000000     concurrent_vector.obj
 0004:fff75000       $pdata$??$store@$01@?$atomic_impl@_K@internal@tbb@@QEAAX_K@Z 0000000180000000     scheduler.obj
 0002:fffa9000       $unwind$??0atomic_backoff@internal@tbb@@QEAA@XZ 0000000180000000     dynamic_link.obj
 0004:fff75000       $pdata$??0atomic_backoff@internal@tbb@@QEAA@XZ 0000000180000000     dynamic_link.obj
 0002:fffa9000       $unwind$?pause@atomic_backoff@internal@tbb@@QEAAXXZ 0000000180000000     dynamic_link.obj
 0004:fff75000       $pdata$?pause@atomic_backoff@internal@tbb@@QEAAXXZ 0000000180000000     dynamic_link.obj
 0002:fffa9000       $unwind$??B?$atomic_impl@_K@internal@tbb@@QEDA_KXZ 0000000180000000     dynamic_link.obj
 0004:fff75000       $pdata$??B?$atomic_impl@_K@internal@tbb@@QEDA_KXZ 0000000180000000     dynamic_link.obj
 0002:fffa9000       $unwind$?fetch_and_add@?$atomic_impl_with_arithmetic@_K_KD@internal@tbb@@QEAA_K_K@Z 0000000180000000     dynamic_link.obj
 0004:fff75000       $pdata$?fetch_and_add@?$atomic_impl_with_arithmetic@_K_KD@internal@tbb@@QEAA_K_K@Z 0000000180000000     dynamic_link.obj
 0002:fffa9000       $unwind$??E?$atomic_impl_with_arithmetic@_K_KD@internal@tbb@@QEAA_KH@Z 0000000180000000     dynamic_link.obj
 0004:fff75000       $pdata$??E?$atomic_impl_with_arithmetic@_K_KD@internal@tbb@@QEAA_KH@Z 0000000180000000     dynamic_link.obj
 0002:fffa9000       $unwind$??$__TBB_load_with_acquire@_J@internal@tbb@@YA_JAED_J@Z 0000000180000000     dynamic_link.obj
 0004:fff75000       $pdata$??$__TBB_load_with_acquire@_J@internal@tbb@@YA_JAED_J@Z 0000000180000000     dynamic_link.obj
 0002:fffa9000       $unwind$??$__TBB_store_with_release@HH@internal@tbb@@YAXAECHH@Z 0000000180000000     dynamic_link.obj
 0004:fff75000       $pdata$??$__TBB_store_with_release@HH@internal@tbb@@YAXAECHH@Z 0000000180000000     dynamic_link.obj
 0002:fffa9000       $unwind$??$__TBB_load_with_acquire@H@internal@tbb@@YAHAEDH@Z 0000000180000000     dynamic_link.obj
 0004:fff75000       $pdata$??$__TBB_load_with_acquire@H@internal@tbb@@YAHAEDH@Z 0000000180000000     dynamic_link.obj
 0002:fffa9000       $unwind$??0?$converter@_K@?$atomic_impl@_K@internal@tbb@@QEAA@XZ 0000000180000000     dynamic_link.obj
 0004:fff75000       $pdata$??0?$converter@_K@?$atomic_impl@_K@internal@tbb@@QEAA@XZ 0000000180000000     dynamic_link.obj
 0002:fffa9000       $unwind$??$to_bits_ref@$$CD_K@?$atomic_impl@_K@internal@tbb@@CAAEA_JAED_K@Z 0000000180000000     dynamic_link.obj
 0004:fff75000       $pdata$??$to_bits_ref@$$CD_K@?$atomic_impl@_K@internal@tbb@@CAAEA_JAED_K@Z 0000000180000000     dynamic_link.obj
 0002:fffa9000       ??$to_value@_K@?$atomic_impl@_K@internal@tbb@@CA_K_J@Z$rtcName$0 0000000180000000     dynamic_link.obj
 0002:fffa9000       $unwind$??$store@$01@?$atomic_impl@_K@internal@tbb@@QEAAX_K@Z 0000000180000000     scheduler.obj
 0004:fff75000       $pdata$?fetch_and_store@?$atomic_impl@W4kind_type@task_group_context@tbb@@@internal@tbb@@QEAA?AW4kind_type@task_group_context@3@W4453@@Z 0000000180000000     scheduler.obj
 0002:fffa9000       $unwind$??$to_value@_K@?$atomic_impl@_K@internal@tbb@@CA_K_J@Z 0000000180000000     dynamic_link.obj
 0004:fff75000       $pdata$??$to_value@_K@?$atomic_impl@_K@internal@tbb@@CA_K_J@Z 0000000180000000     dynamic_link.obj
 0002:fffa9000       $unwind$??$fetch_and_add@$0A@@?$atomic_impl_with_arithmetic@_K_KD@internal@tbb@@QEAA_K_K@Z 0000000180000000     dynamic_link.obj
 0004:fff75000       $pdata$??$fetch_and_add@$0A@@?$atomic_impl_with_arithmetic@_K_KD@internal@tbb@@QEAA_K_K@Z 0000000180000000     dynamic_link.obj
 0002:fffa9000       $unwind$?load_with_acquire@?$machine_load_store@_J$07@internal@tbb@@SA_JAED_J@Z 0000000180000000     dynamic_link.obj
 0004:fff75000       $pdata$?load_with_acquire@?$machine_load_store@_J$07@internal@tbb@@SA_JAED_J@Z 0000000180000000     dynamic_link.obj
 0002:fffa9000       $unwind$?load_with_acquire@?$machine_load_store@H$03@internal@tbb@@SAHAEDH@Z 0000000180000000     dynamic_link.obj
 0004:fff75000       $pdata$?load_with_acquire@?$machine_load_store@H$03@internal@tbb@@SAHAEDH@Z 0000000180000000     dynamic_link.obj
 0002:fffa9000       $unwind$?store_with_release@?$machine_load_store@H$03@internal@tbb@@SAXAECHH@Z 0000000180000000     dynamic_link.obj
 0004:fff75000       $pdata$?store_with_release@?$machine_load_store@H$03@internal@tbb@@SAXAECHH@Z 0000000180000000     dynamic_link.obj
 0002:fffa9000       $unwind$??0?$ptr_converter@PED_K@?$atomic_impl@_K@internal@tbb@@QEAA@PED_K@Z 0000000180000000     dynamic_link.obj
 0004:fff75000       $pdata$??0?$ptr_converter@PED_K@?$atomic_impl@_K@internal@tbb@@QEAA@PED_K@Z 0000000180000000     dynamic_link.obj
 0002:fffa9000       $unwind$?fetch_and_add@?$atomic_traits@$07$0A@@internal@tbb@@SA_JPECX_J@Z 0000000180000000     dynamic_link.obj
 0004:fff75000       $pdata$?fetch_and_add@?$atomic_traits@$07$0A@@internal@tbb@@SA_JPECX_J@Z 0000000180000000     dynamic_link.obj
 0002:fffa9000       $unwind$?__empty_global_delete@@YAXPEAX@Z 0000000180000000     cache_aligned_allocator.obj
 0004:fff75000       $pdata$?__empty_global_delete@@YAXPEAX@Z 0000000180000000     cache_aligned_allocator.obj
 0002:fffa9000       $unwind$?__empty_global_delete@@YAXPEAX_K@Z 0000000180000000     cache_aligned_allocator.obj
 0004:fff75000       $pdata$?__empty_global_delete@@YAXPEAX_K@Z 0000000180000000     cache_aligned_allocator.obj
 0002:fffa9000       $unwind$?throw_exception@internal@tbb@@YAXW4exception_id@12@@Z 0000000180000000     cache_aligned_allocator.obj
 0004:fff75000       $pdata$?throw_exception@internal@tbb@@YAXW4exception_id@12@@Z 0000000180000000     cache_aligned_allocator.obj
 0002:fffa9000       $unwind$??0atomic_backoff@internal@tbb@@QEAA@XZ 0000000180000000     cache_aligned_allocator.obj
 0004:fff75000       $pdata$??0atomic_backoff@internal@tbb@@QEAA@XZ 0000000180000000     cache_aligned_allocator.obj
 0002:fffa9000       $unwind$?pause@atomic_backoff@internal@tbb@@QEAAXXZ 0000000180000000     cache_aligned_allocator.obj
 0004:fff75000       $pdata$?pause@atomic_backoff@internal@tbb@@QEAAXXZ 0000000180000000     cache_aligned_allocator.obj
 0002:fffa9000       $unwind$?run_initializer@internal@tbb@@YAXP6AXXZAEAU?$atomic@W4do_once_state@internal@tbb@@@2@@Z 0000000180000000     cache_aligned_allocator.obj
 0004:fff75000       $pdata$?run_initializer@internal@tbb@@YAXP6AXXZAEAU?$atomic@W4do_once_state@internal@tbb@@@2@@Z 0000000180000000     cache_aligned_allocator.obj
 0002:fffa9000       $unwind$?compare_and_swap@?$atomic_impl@W4do_once_state@internal@tbb@@@internal@tbb@@QEAA?AW4do_once_state@23@W4423@0@Z 0000000180000000     cache_aligned_allocator.obj
 0004:fff75000       $pdata$?compare_and_swap@?$atomic_impl@W4do_once_state@internal@tbb@@@internal@tbb@@QEAA?AW4do_once_state@23@W4423@0@Z 0000000180000000     cache_aligned_allocator.obj
 0002:fffa9000       $unwind$??B?$atomic_impl@W4do_once_state@internal@tbb@@@internal@tbb@@QEDA?AW4do_once_state@12@XZ 0000000180000000     cache_aligned_allocator.obj
 0004:fff75000       $pdata$??B?$atomic_impl@W4do_once_state@internal@tbb@@@internal@tbb@@QEDA?AW4do_once_state@12@XZ 0000000180000000     cache_aligned_allocator.obj
 0002:fffa9000       $unwind$?store_with_release@?$atomic_impl@W4do_once_state@internal@tbb@@@internal@tbb@@IEAA?AW4do_once_state@23@W4423@@Z 0000000180000000     cache_aligned_allocator.obj
 0004:fff75000       $pdata$?store_with_release@?$atomic_impl@W4do_once_state@internal@tbb@@@internal@tbb@@IEAA?AW4do_once_state@23@W4423@@Z 0000000180000000     cache_aligned_allocator.obj
 0002:fffa9000       $unwind$??4?$atomic@W4do_once_state@internal@tbb@@@tbb@@QEAA?AW4do_once_state@internal@1@W4231@@Z 0000000180000000     cache_aligned_allocator.obj
 0004:fff75000       $pdata$??4?$atomic@W4do_once_state@internal@tbb@@@tbb@@QEAA?AW4do_once_state@internal@1@W4231@@Z 0000000180000000     cache_aligned_allocator.obj
 0002:fffa9000       $unwind$??$atomic_do_once@P6AXXZ@internal@tbb@@YAXAEBQ6AXXZAEAU?$atomic@W4do_once_state@internal@tbb@@@1@@Z 0000000180000000     cache_aligned_allocator.obj
 0004:fff75000       $pdata$??$atomic_do_once@P6AXXZ@internal@tbb@@YAXAEBQ6AXXZAEAU?$atomic@W4do_once_state@internal@tbb@@@1@@Z 0000000180000000     cache_aligned_allocator.obj
 0002:fffa9000       $unwind$??$is_power_of_two@_K@internal@tbb@@YA_N_K@Z 0000000180000000     cache_aligned_allocator.obj
 0004:fff75000       $pdata$??$is_power_of_two@_K@internal@tbb@@YA_N_K@Z 0000000180000000     cache_aligned_allocator.obj
 0002:fffa9000       $unwind$??$__TBB_store_with_release@HH@internal@tbb@@YAXAECHH@Z 0000000180000000     cache_aligned_allocator.obj
 0004:fff75000       $pdata$??$__TBB_store_with_release@HH@internal@tbb@@YAXAECHH@Z 0000000180000000     cache_aligned_allocator.obj
 0002:fffa9000       $unwind$??$__TBB_load_with_acquire@H@internal@tbb@@YAHAEDH@Z 0000000180000000     cache_aligned_allocator.obj
 0004:fff75000       $pdata$??$__TBB_load_with_acquire@H@internal@tbb@@YAHAEDH@Z 0000000180000000     cache_aligned_allocator.obj
 0002:fffa9000       $unwind$??0?$converter@W4do_once_state@internal@tbb@@@?$atomic_impl@W4do_once_state@internal@tbb@@@internal@tbb@@QEAA@XZ 0000000180000000     cache_aligned_allocator.obj
 0004:fff75000       $pdata$??0?$converter@W4do_once_state@internal@tbb@@@?$atomic_impl@W4do_once_state@internal@tbb@@@internal@tbb@@QEAA@XZ 0000000180000000     cache_aligned_allocator.obj
 0002:fffa9000       $unwind$??0?$converter@W4do_once_state@internal@tbb@@@?$atomic_impl@W4do_once_state@internal@tbb@@@internal@tbb@@QEAA@W4do_once_state@23@@Z 0000000180000000     cache_aligned_allocator.obj
 0004:fff75000       $pdata$??0?$converter@W4do_once_state@internal@tbb@@@?$atomic_impl@W4do_once_state@internal@tbb@@@internal@tbb@@QEAA@W4do_once_state@23@@Z 0000000180000000     cache_aligned_allocator.obj
 0002:fffa9000       $unwind$??$to_bits_ref@W4do_once_state@internal@tbb@@@?$atomic_impl@W4do_once_state@internal@tbb@@@internal@tbb@@CAAEAHAEAW4do_once_state@12@@Z 0000000180000000     cache_aligned_allocator.obj
 0004:fff75000       $pdata$??$to_bits_ref@W4do_once_state@internal@tbb@@@?$atomic_impl@W4do_once_state@internal@tbb@@@internal@tbb@@CAAEAHAEAW4do_once_state@12@@Z 0000000180000000     cache_aligned_allocator.obj
 0002:fffa9000       $unwind$??$to_bits@W4do_once_state@internal@tbb@@@?$atomic_impl@W4do_once_state@internal@tbb@@@internal@tbb@@CAHW4do_once_state@12@@Z 0000000180000000     cache_aligned_allocator.obj
 0004:fff75000       $pdata$??$to_bits@W4do_once_state@internal@tbb@@@?$atomic_impl@W4do_once_state@internal@tbb@@@internal@tbb@@CAHW4do_once_state@12@@Z 0000000180000000     cache_aligned_allocator.obj
 0002:fffa9000       ??$spin_wait_while_eq@U?$atomic@W4do_once_state@internal@tbb@@@tbb@@W4do_once_state@internal@2@@internal@tbb@@YAXAEDU?$atomic@W4do_once_state@internal@tbb@@@1@W4do_once_state@01@@Z$rtcName$0 0000000180000000     cache_aligned_allocator.obj
 0002:fffa9000       $unwind$?fetch_and_store@?$atomic_impl@W4kind_type@task_group_context@tbb@@@internal@tbb@@QEAA?AW4kind_type@task_group_context@3@W4453@@Z 0000000180000000     scheduler.obj
 0004:fff75000       $pdata$??$as_atomic@W4kind_type@task_group_context@tbb@@@internal@tbb@@YAAEAU?$atomic@W4kind_type@task_group_context@tbb@@@1@AEAW4kind_type@task_group_context@1@@Z 0000000180000000     scheduler.obj
 0002:fffa9000       $unwind$??$spin_wait_while_eq@U?$atomic@W4do_once_state@internal@tbb@@@tbb@@W4do_once_state@internal@2@@internal@tbb@@YAXAEDU?$atomic@W4do_once_state@internal@tbb@@@1@W4do_once_state@01@@Z 0000000180000000     cache_aligned_allocator.obj
 0004:fff75000       $pdata$??$spin_wait_while_eq@U?$atomic@W4do_once_state@internal@tbb@@@tbb@@W4do_once_state@internal@2@@internal@tbb@@YAXAEDU?$atomic@W4do_once_state@internal@tbb@@@1@W4do_once_state@01@@Z 0000000180000000     cache_aligned_allocator.obj
 0002:fffa9000       $unwind$?load_with_acquire@?$machine_load_store@H$03@internal@tbb@@SAHAEDH@Z 0000000180000000     cache_aligned_allocator.obj
 0004:fff75000       $pdata$?load_with_acquire@?$machine_load_store@H$03@internal@tbb@@SAHAEDH@Z 0000000180000000     cache_aligned_allocator.obj
 0002:fffa9000       $unwind$?store_with_release@?$machine_load_store@H$03@internal@tbb@@SAXAECHH@Z 0000000180000000     cache_aligned_allocator.obj
 0004:fff75000       $pdata$?store_with_release@?$machine_load_store@H$03@internal@tbb@@SAXAECHH@Z 0000000180000000     cache_aligned_allocator.obj
 0002:fffa9000       $unwind$??0?$ptr_converter@PEAW4do_once_state@internal@tbb@@@?$atomic_impl@W4do_once_state@internal@tbb@@@internal@tbb@@QEAA@PEAW4do_once_state@23@@Z 0000000180000000     cache_aligned_allocator.obj
 0004:fff75000       $pdata$??0?$ptr_converter@PEAW4do_once_state@internal@tbb@@@?$atomic_impl@W4do_once_state@internal@tbb@@@internal@tbb@@QEAA@PEAW4do_once_state@23@@Z 0000000180000000     cache_aligned_allocator.obj
 0002:fffa9000       $unwind$??$to_bits_ref@$$CDW4do_once_state@internal@tbb@@@?$atomic_impl@W4do_once_state@internal@tbb@@@internal@tbb@@CAAEAHAEDW4do_once_state@12@@Z 0000000180000000     cache_aligned_allocator.obj
 0004:fff75000       $pdata$??$to_bits_ref@$$CDW4do_once_state@internal@tbb@@@?$atomic_impl@W4do_once_state@internal@tbb@@@internal@tbb@@CAAEAHAEDW4do_once_state@12@@Z 0000000180000000     cache_aligned_allocator.obj
 0002:fffa9000       ??$to_value@W4do_once_state@internal@tbb@@@?$atomic_impl@W4do_once_state@internal@tbb@@@internal@tbb@@CA?AW4do_once_state@12@H@Z$rtcName$0 0000000180000000     cache_aligned_allocator.obj
 0002:fffa9000       $unwind$??$as_atomic@W4kind_type@task_group_context@tbb@@@internal@tbb@@YAAEAU?$atomic@W4kind_type@task_group_context@tbb@@@1@AEAW4kind_type@task_group_context@1@@Z 0000000180000000     scheduler.obj
 0004:fff75000       $pdata$??$__TBB_load_relaxed@W4kind_type@task_group_context@tbb@@@internal@tbb@@YA?AW4kind_type@task_group_context@1@AEDW4231@@Z 0000000180000000     scheduler.obj
 0002:fffa9000       $unwind$??$to_value@W4do_once_state@internal@tbb@@@?$atomic_impl@W4do_once_state@internal@tbb@@@internal@tbb@@CA?AW4do_once_state@12@H@Z 0000000180000000     cache_aligned_allocator.obj
 0004:fff75000       $pdata$??$to_value@W4do_once_state@internal@tbb@@@?$atomic_impl@W4do_once_state@internal@tbb@@@internal@tbb@@CA?AW4do_once_state@12@H@Z 0000000180000000     cache_aligned_allocator.obj
 0002:fffa9000       $unwind$??$compare_and_swap@$0A@@?$atomic_impl@W4do_once_state@internal@tbb@@@internal@tbb@@QEAA?AW4do_once_state@12@W4312@0@Z 0000000180000000     cache_aligned_allocator.obj
 0004:fff75000       $pdata$??$compare_and_swap@$0A@@?$atomic_impl@W4do_once_state@internal@tbb@@@internal@tbb@@QEAA?AW4do_once_state@12@W4312@0@Z 0000000180000000     cache_aligned_allocator.obj
 0002:fffa9000       $unwind$??0?$ptr_converter@PEDW4do_once_state@internal@tbb@@@?$atomic_impl@W4do_once_state@internal@tbb@@@internal@tbb@@QEAA@PEDW4do_once_state@23@@Z 0000000180000000     cache_aligned_allocator.obj
 0004:fff75000       $pdata$??0?$ptr_converter@PEDW4do_once_state@internal@tbb@@@?$atomic_impl@W4do_once_state@internal@tbb@@@internal@tbb@@QEAA@PEDW4do_once_state@23@@Z 0000000180000000     cache_aligned_allocator.obj
 0002:fffa9000       $unwind$?compare_and_swap@?$atomic_traits@$03$0A@@internal@tbb@@SAHPECXHH@Z 0000000180000000     cache_aligned_allocator.obj
 0004:fff75000       $pdata$?compare_and_swap@?$atomic_traits@$03$0A@@internal@tbb@@SAHPECXHH@Z 0000000180000000     cache_aligned_allocator.obj
 0002:fffa9000       $unwind$??0spin_mutex@tbb@@QEAA@XZ 0000000180000000     pipeline.obj
 0004:fff75000       $pdata$??0spin_mutex@tbb@@QEAA@XZ 0000000180000000     pipeline.obj
 0002:fffa9000       $unwind$??0scoped_lock@spin_mutex@tbb@@QEAA@AEAV12@@Z 0000000180000000     pipeline.obj
 0004:fff75000       $pdata$??0scoped_lock@spin_mutex@tbb@@QEAA@AEAV12@@Z 0000000180000000     pipeline.obj
 0002:fffa9000       $unwind$??1scoped_lock@spin_mutex@tbb@@QEAA@XZ 0000000180000000     pipeline.obj
 0004:fff75000       $pdata$??1scoped_lock@spin_mutex@tbb@@QEAA@XZ 0000000180000000     pipeline.obj
 0002:fffa9000       $cppxdata$??1scoped_lock@spin_mutex@tbb@@QEAA@XZ 0000000180000000     pipeline.obj
 0002:fffa9000       $ip2state$??1scoped_lock@spin_mutex@tbb@@QEAA@XZ 0000000180000000     pipeline.obj
 0002:fffa9000       $unwind$??$suppress_unused_warning@E@internal@tbb@@YAXAEBE@Z 0000000180000000     pipeline.obj
 0004:fff75000       $pdata$??$suppress_unused_warning@E@internal@tbb@@YAXAEBE@Z 0000000180000000     pipeline.obj
 0002:fffa9000       $unwind$??$__TBB_store_with_release@HH@internal@tbb@@YAXAECHH@Z 0000000180000000     pipeline.obj
 0004:fff75000       $pdata$??$__TBB_store_with_release@HH@internal@tbb@@YAXAECHH@Z 0000000180000000     pipeline.obj
 0002:fffa9000       $unwind$??$__TBB_load_with_acquire@H@internal@tbb@@YAHAEDH@Z 0000000180000000     pipeline.obj
 0004:fff75000       $pdata$??$__TBB_load_with_acquire@H@internal@tbb@@YAHAEDH@Z 0000000180000000     pipeline.obj
 0002:fffa9000       $unwind$?load_with_acquire@?$machine_load_store@H$03@internal@tbb@@SAHAEDH@Z 0000000180000000     pipeline.obj
 0004:fff75000       $pdata$?load_with_acquire@?$machine_load_store@H$03@internal@tbb@@SAHAEDH@Z 0000000180000000     pipeline.obj
 0002:fffa9000       $unwind$?store_with_release@?$machine_load_store@H$03@internal@tbb@@SAXAECHH@Z 0000000180000000     pipeline.obj
 0004:fff75000       $pdata$?store_with_release@?$machine_load_store@H$03@internal@tbb@@SAXAECHH@Z 0000000180000000     pipeline.obj
 0002:fffa9000       $unwind$?fetch_and_add@?$atomic_traits@$03$0A@@internal@tbb@@SAHPECXH@Z 0000000180000000     pipeline.obj
 0004:fff75000       $pdata$?fetch_and_add@?$atomic_traits@$03$0A@@internal@tbb@@SAHPECXH@Z 0000000180000000     pipeline.obj
 0002:fffa9000       $unwind$??0atomic_backoff@internal@tbb@@QEAA@XZ 0000000180000000     queuing_mutex.obj
 0004:fff75000       $pdata$??0atomic_backoff@internal@tbb@@QEAA@XZ 0000000180000000     queuing_mutex.obj
 0002:fffa9000       $unwind$?pause@atomic_backoff@internal@tbb@@QEAAXXZ 0000000180000000     queuing_mutex.obj
 0004:fff75000       $pdata$?pause@atomic_backoff@internal@tbb@@QEAAXXZ 0000000180000000     queuing_mutex.obj
 0002:fffa9000       $unwind$??0atomic_backoff@internal@tbb@@QEAA@XZ 0000000180000000     queuing_rw_mutex.obj
 0004:fff75000       $pdata$??0atomic_backoff@internal@tbb@@QEAA@XZ 0000000180000000     queuing_rw_mutex.obj
 0002:fffa9000       $unwind$?pause@atomic_backoff@internal@tbb@@QEAAXXZ 0000000180000000     queuing_rw_mutex.obj
 0004:fff75000       $pdata$?pause@atomic_backoff@internal@tbb@@QEAAXXZ 0000000180000000     queuing_rw_mutex.obj
 0002:fffa9000       $unwind$??$__TBB_store_with_release@CC@internal@tbb@@YAXAECCC@Z 0000000180000000     queuing_rw_mutex.obj
 0004:fff75000       $pdata$??$__TBB_store_with_release@CC@internal@tbb@@YAXAECCC@Z 0000000180000000     queuing_rw_mutex.obj
 0002:fffa9000       $unwind$??$__TBB_load_with_acquire@C@internal@tbb@@YACAEDC@Z 0000000180000000     queuing_rw_mutex.obj
 0004:fff75000       $pdata$??$__TBB_load_with_acquire@C@internal@tbb@@YACAEDC@Z 0000000180000000     queuing_rw_mutex.obj
 0002:fffa9000       $unwind$?compare_and_swap@?$atomic_traits@$07$01@internal@tbb@@SA_JPECX_J1@Z 0000000180000000     queuing_rw_mutex.obj
 0004:fff75000       $pdata$?compare_and_swap@?$atomic_traits@$07$01@internal@tbb@@SA_JPECX_J1@Z 0000000180000000     queuing_rw_mutex.obj
 0002:fffa9000       $unwind$?fetch_and_store@?$atomic_traits@$07$01@internal@tbb@@SA_JPECX_J@Z 0000000180000000     queuing_rw_mutex.obj
 0004:fff75000       $pdata$?fetch_and_store@?$atomic_traits@$07$01@internal@tbb@@SA_JPECX_J@Z 0000000180000000     queuing_rw_mutex.obj
 0002:fffa9000       $unwind$?fetch_and_add@?$atomic_traits@$07$00@internal@tbb@@SA_JPECX_J@Z 0000000180000000     queuing_rw_mutex.obj
 0004:fff75000       $pdata$?fetch_and_add@?$atomic_traits@$07$00@internal@tbb@@SA_JPECX_J@Z 0000000180000000     queuing_rw_mutex.obj
 0002:fffa9000       $unwind$?load_with_acquire@?$machine_load_store@_J$07@internal@tbb@@SA_JAED_J@Z 0000000180000000     queuing_rw_mutex.obj
 0004:fff75000       $pdata$?load_with_acquire@?$machine_load_store@_J$07@internal@tbb@@SA_JAED_J@Z 0000000180000000     queuing_rw_mutex.obj
 0002:fffa9000       $unwind$?load_with_acquire@?$machine_load_store@C$00@internal@tbb@@SACAEDC@Z 0000000180000000     queuing_rw_mutex.obj
 0004:fff75000       $pdata$?load_with_acquire@?$machine_load_store@C$00@internal@tbb@@SACAEDC@Z 0000000180000000     queuing_rw_mutex.obj
 0002:fffa9000       $unwind$?store_with_release@?$machine_load_store@C$00@internal@tbb@@SAXAECCC@Z 0000000180000000     queuing_rw_mutex.obj
 0004:fff75000       $pdata$?store_with_release@?$machine_load_store@C$00@internal@tbb@@SAXAECCC@Z 0000000180000000     queuing_rw_mutex.obj
 0002:fffa9000       $unwind$??$load@_J@?$atomic_load_store_traits@$02@internal@tbb@@SA_JAED_J@Z 0000000180000000     queuing_rw_mutex.obj
 0004:fff75000       $pdata$??$load@_J@?$atomic_load_store_traits@$02@internal@tbb@@SA_JAED_J@Z 0000000180000000     queuing_rw_mutex.obj
 0002:fffa9000       $unwind$??$__TBB_load_relaxed@_J@internal@tbb@@YA_JAED_J@Z 0000000180000000     queuing_rw_mutex.obj
 0004:fff75000       $pdata$??$__TBB_load_relaxed@_J@internal@tbb@@YA_JAED_J@Z 0000000180000000     queuing_rw_mutex.obj
 0002:fffa9000       $unwind$?load@?$machine_load_store_relaxed@_J$07@internal@tbb@@SA_JAED_J@Z 0000000180000000     queuing_rw_mutex.obj
 0004:fff75000       $pdata$?load@?$machine_load_store_relaxed@_J$07@internal@tbb@@SA_JAED_J@Z 0000000180000000     queuing_rw_mutex.obj
 0002:fffa9000       $unwind$?__empty_global_delete@@YAXPEAX@Z 0000000180000000     reader_writer_lock.obj
 0004:fff75000       $pdata$?__empty_global_delete@@YAXPEAX@Z 0000000180000000     reader_writer_lock.obj
 0002:fffa9000       $unwind$?__empty_global_delete@@YAXPEAX_K@Z 0000000180000000     reader_writer_lock.obj
 0004:fff75000       $pdata$?__empty_global_delete@@YAXPEAX_K@Z 0000000180000000     reader_writer_lock.obj
 0002:fffa9000       $unwind$??0atomic_backoff@internal@tbb@@QEAA@XZ 0000000180000000     reader_writer_lock.obj
 0004:fff75000       $pdata$??0atomic_backoff@internal@tbb@@QEAA@XZ 0000000180000000     reader_writer_lock.obj
 0002:fffa9000       $unwind$?pause@atomic_backoff@internal@tbb@@QEAAXXZ 0000000180000000     reader_writer_lock.obj
 0004:fff75000       $pdata$?pause@atomic_backoff@internal@tbb@@QEAAXXZ 0000000180000000     reader_writer_lock.obj
 0002:fffa9000       $unwind$?compare_and_swap@?$atomic_impl@_K@internal@tbb@@QEAA_K_K0@Z 0000000180000000     reader_writer_lock.obj
 0004:fff75000       $pdata$?compare_and_swap@?$atomic_impl@_K@internal@tbb@@QEAA_K_K0@Z 0000000180000000     reader_writer_lock.obj
 0002:fffa9000       $unwind$??B?$atomic_impl@_K@internal@tbb@@QEDA_KXZ 0000000180000000     reader_writer_lock.obj
 0004:fff75000       $pdata$??B?$atomic_impl@_K@internal@tbb@@QEDA_KXZ 0000000180000000     reader_writer_lock.obj
 0002:fffa9000       $unwind$?store_with_release@?$atomic_impl@_K@internal@tbb@@IEAA_K_K@Z 0000000180000000     reader_writer_lock.obj
 0004:fff75000       $pdata$?store_with_release@?$atomic_impl@_K@internal@tbb@@IEAA_K_K@Z 0000000180000000     reader_writer_lock.obj
 0002:fffa9000       $unwind$?fetch_and_add@?$atomic_impl_with_arithmetic@_K_KD@internal@tbb@@QEAA_K_K@Z 0000000180000000     reader_writer_lock.obj
 0000:fff6a000       .debug$S                   0000000180000000     tbb_debug.exp
 0004:fff75000       $pdata$?fetch_and_add@?$atomic_impl_with_arithmetic@_K_KD@internal@tbb@@QEAA_K_K@Z 0000000180000000     reader_writer_lock.obj
 0000:fff6a000       .debug$S                   0000000180000000     kernel32:KERNEL32.dll
 0000:fff6a000       .debug$S                   0000000180000000     kernel32:KERNEL32.dll
 0000:fff6a000       .debug$S                   0000000180000000     kernel32:KERNEL32.dll
 0000:fff6a000       .debug$S                   0000000180000000     kernel32:KERNEL32.dll
 0000:fff6a000       .debug$S                   0000000180000000     kernel32:KERNEL32.dll
 0000:fff6a000       .debug$S                   0000000180000000     kernel32:KERNEL32.dll
 0000:fff6a000       .debug$S                   0000000180000000     kernel32:KERNEL32.dll
 0000:fff6a000       .debug$S                   0000000180000000     kernel32:KERNEL32.dll
 0000:fff6a000       .debug$S                   0000000180000000     kernel32:KERNEL32.dll
 0000:fff6a000       .debug$S                   0000000180000000     kernel32:KERNEL32.dll
 0000:fff6a000       .debug$S                   0000000180000000     kernel32:KERNEL32.dll
 0000:fff6a000       .debug$S                   0000000180000000     kernel32:KERNEL32.dll
 0000:fff6a000       .debug$S                   0000000180000000     kernel32:KERNEL32.dll
 0000:fff6a000       .debug$S                   0000000180000000     kernel32:KERNEL32.dll
 0000:fff6a000       .debug$S                   0000000180000000     kernel32:KERNEL32.dll
 0000:fff6a000       .debug$S                   0000000180000000     kernel32:KERNEL32.dll
 0000:fff6a000       .debug$S                   0000000180000000     kernel32:KERNEL32.dll
 0000:fff6a000       .debug$S                   0000000180000000     kernel32:KERNEL32.dll
 0000:fff6a000       .debug$S                   0000000180000000     kernel32:KERNEL32.dll
 0000:fff6a000       .debug$S                   0000000180000000     kernel32:KERNEL32.dll
 0002:fffa9000       $unwind$??Y?$atomic_impl_with_arithmetic@_K_KD@internal@tbb@@QEAA_K_K@Z 0000000180000000     reader_writer_lock.obj
 0000:fff6a000       .debug$S                   0000000180000000     ucrtd:ucrtbased.dll
 0000:fff6a000       .debug$S                   0000000180000000     ucrtd:ucrtbased.dll
 0000:fff6a000       .debug$S                   0000000180000000     ucrtd:ucrtbased.dll
 0000:fff6a000       .debug$S                   0000000180000000     ucrtd:ucrtbased.dll
 0000:fff6a000       .debug$S                   0000000180000000     ucrtd:ucrtbased.dll
 0000:fff6a000       .debug$S                   0000000180000000     ucrtd:ucrtbased.dll
 0000:fff6a000       .debug$S                   0000000180000000     ucrtd:ucrtbased.dll
 0000:fff6a000       .debug$S                   0000000180000000     ucrtd:ucrtbased.dll
 0000:fff6a000       .debug$S                   0000000180000000     ucrtd:ucrtbased.dll
 0000:fff6a000       .debug$S                   0000000180000000     ucrtd:ucrtbased.dll
 0000:fff6a000       .debug$S                   0000000180000000     ucrtd:ucrtbased.dll
 0000:fff6a000       .debug$S                   0000000180000000     ucrtd:ucrtbased.dll
 0000:fff6a000       .debug$S                   0000000180000000     ucrtd:ucrtbased.dll
 0000:fff6a000       .debug$S                   0000000180000000     ucrtd:ucrtbased.dll
 0000:fff6a000       .debug$S                   0000000180000000     ucrtd:ucrtbased.dll
 0000:fff6a000       .debug$S                   0000000180000000     ucrtd:ucrtbased.dll
 0000:fff6a000       .debug$S                   0000000180000000     ucrtd:ucrtbased.dll
 0000:fff6a000       .debug$S                   0000000180000000     ucrtd:ucrtbased.dll
 0000:fff6a000       .debug$S                   0000000180000000     ucrtd:ucrtbased.dll
 0000:fff6a000       .debug$S                   0000000180000000     ucrtd:ucrtbased.dll
 0000:fff6a000       .debug$S                   0000000180000000     ucrtd:ucrtbased.dll
 0000:fff6a000       .debug$S                   0000000180000000     ucrtd:ucrtbased.dll
 0000:fff6a000       .debug$S                   0000000180000000     ucrtd:ucrtbased.dll
 0000:fff6a000       .debug$S                   0000000180000000     ucrtd:ucrtbased.dll
 0000:fff6a000       .debug$S                   0000000180000000     ucrtd:ucrtbased.dll
 0000:fff6a000       .debug$S                   0000000180000000     ucrtd:ucrtbased.dll
 0000:fff6a000       .debug$S                   0000000180000000     ucrtd:ucrtbased.dll
 0000:fff6a000       .debug$S                   0000000180000000     ucrtd:ucrtbased.dll
 0000:fff6a000       .debug$S                   0000000180000000     ucrtd:ucrtbased.dll
 0000:fff6a000       .debug$S                   0000000180000000     ucrtd:ucrtbased.dll
 0000:fff6a000       .debug$S                   0000000180000000     ucrtd:ucrtbased.dll
 0000:fff6a000       .debug$S                   0000000180000000     ucrtd:ucrtbased.dll
 0000:fff6a000       .debug$S                   0000000180000000     ucrtd:ucrtbased.dll
 0000:fff6a000       .debug$S                   0000000180000000     ucrtd:ucrtbased.dll
 0000:fff6a000       .debug$S                   0000000180000000     ucrtd:ucrtbased.dll
 0000:fff6a000       .debug$S                   0000000180000000     ucrtd:ucrtbased.dll
 0000:fff6a000       .debug$S                   0000000180000000     ucrtd:ucrtbased.dll
 0000:fff6a000       .debug$S                   0000000180000000     ucrtd:ucrtbased.dll
 0000:fff6a000       .debug$S                   0000000180000000     ucrtd:ucrtbased.dll
 0000:fff6a000       .debug$S                   0000000180000000     ucrtd:ucrtbased.dll
 0000:fff6a000       .debug$S                   0000000180000000     ucrtd:ucrtbased.dll
 0000:fff6a000       .debug$S                   0000000180000000     ucrtd:ucrtbased.dll
 0000:fff6a000       .debug$S                   0000000180000000     ucrtd:ucrtbased.dll
 0004:fff75000       $pdata$??Y?$atomic_impl_with_arithmetic@_K_KD@internal@tbb@@QEAA_K_K@Z 0000000180000000     reader_writer_lock.obj
 0000:fff6a000       .debug$S                   0000000180000000     vcruntimed:VCRUNTIME140D.dll
 0000:fff6a000       .debug$S                   0000000180000000     vcruntimed:VCRUNTIME140D.dll
 0000:fff6a000       .debug$S                   0000000180000000     vcruntimed:VCRUNTIME140D.dll
 0000:fff6a000       .debug$S                   0000000180000000     vcruntimed:VCRUNTIME140D.dll
 0000:fff6a000       .debug$S                   0000000180000000     vcruntimed:VCRUNTIME140D.dll
 0000:fff6a000       .debug$S                   0000000180000000     vcruntimed:VCRUNTIME140D.dll
 0000:fff6a000       .debug$S                   0000000180000000     vcruntimed:VCRUNTIME140D.dll
 0000:fff6a000       .debug$S                   0000000180000000     vcruntimed:VCRUNTIME140D.dll
 0000:fff6a000       .debug$S                   0000000180000000     vcruntimed:VCRUNTIME140D.dll
 0000:fff6a000       .debug$S                   0000000180000000     vcruntimed:VCRUNTIME140D.dll
 0000:fff6a000       .debug$S                   0000000180000000     vcruntimed:VCRUNTIME140D.dll
 0000:fff6a000       .debug$S                   0000000180000000     vcruntimed:VCRUNTIME140D.dll
 0000:fff6a000       .debug$S                   0000000180000000     vcruntimed:VCRUNTIME140D.dll
 0000:fff6a000       .debug$S                   0000000180000000     vcruntimed:VCRUNTIME140D.dll
 0000:fff6a000       .debug$S                   0000000180000000     vcruntimed:VCRUNTIME140D.dll
 0000:fff6a000       .debug$S                   0000000180000000     vcruntimed:VCRUNTIME140D.dll
 0000:fff6a000       .debug$S                   0000000180000000     vcruntimed:VCRUNTIME140D.dll
 0002:fffa9000       $unwind$??4?$atomic@_K@tbb@@QEAA_K_K@Z 0000000180000000     reader_writer_lock.obj
 0004:fff75000       $pdata$??4?$atomic@_K@tbb@@QEAA_K_K@Z 0000000180000000     reader_writer_lock.obj
 0002:fffa9000       $unwind$?throw_exception@internal@tbb@@YAXW4exception_id@12@@Z 0000000180000000     reader_writer_lock.obj
 0004:fff75000       $pdata$?throw_exception@internal@tbb@@YAXW4exception_id@12@@Z 0000000180000000     reader_writer_lock.obj
 0002:fffa9000       $unwind$??$__TBB_load_with_acquire@_J@internal@tbb@@YA_JAED_J@Z 0000000180000000     reader_writer_lock.obj
 0004:fff75000       $pdata$??$__TBB_load_with_acquire@_J@internal@tbb@@YA_JAED_J@Z 0000000180000000     reader_writer_lock.obj
 0002:fffa9000       $unwind$??$__TBB_load_with_acquire@H@internal@tbb@@YAHAEDH@Z 0000000180000000     reader_writer_lock.obj
 0004:fff75000       $pdata$??$__TBB_load_with_acquire@H@internal@tbb@@YAHAEDH@Z 0000000180000000     reader_writer_lock.obj
 0002:fffa9000       $unwind$??$__TBB_store_with_release@_J_J@internal@tbb@@YAXAEC_J_J@Z 0000000180000000     reader_writer_lock.obj
 0004:fff75000       $pdata$??$__TBB_store_with_release@_J_J@internal@tbb@@YAXAEC_J_J@Z 0000000180000000     reader_writer_lock.obj
 0002:fffa9000       $unwind$??$__TBB_store_with_release@HH@internal@tbb@@YAXAECHH@Z 0000000180000000     reader_writer_lock.obj
 0004:fff75000       $pdata$??$__TBB_store_with_release@HH@internal@tbb@@YAXAECHH@Z 0000000180000000     reader_writer_lock.obj
 0002:fffa9000       $unwind$??0?$converter@_K@?$atomic_impl@_K@internal@tbb@@QEAA@XZ 0000000180000000     reader_writer_lock.obj
 0004:fff75000       $pdata$??0?$converter@_K@?$atomic_impl@_K@internal@tbb@@QEAA@XZ 0000000180000000     reader_writer_lock.obj
 0002:fffa9000       $unwind$??0?$converter@_K@?$atomic_impl@_K@internal@tbb@@QEAA@_K@Z 0000000180000000     reader_writer_lock.obj
 0004:fff75000       $pdata$??0?$converter@_K@?$atomic_impl@_K@internal@tbb@@QEAA@_K@Z 0000000180000000     reader_writer_lock.obj
 0002:fffa9000       $unwind$??$to_bits_ref@_K@?$atomic_impl@_K@internal@tbb@@CAAEA_JAEA_K@Z 0000000180000000     reader_writer_lock.obj
 0004:fff75000       $pdata$??$to_bits_ref@_K@?$atomic_impl@_K@internal@tbb@@CAAEA_JAEA_K@Z 0000000180000000     reader_writer_lock.obj
 0002:fffa9000       $unwind$??$to_bits@_K@?$atomic_impl@_K@internal@tbb@@CA_J_K@Z 0000000180000000     reader_writer_lock.obj
 0004:fff75000       $pdata$??$to_bits@_K@?$atomic_impl@_K@internal@tbb@@CA_J_K@Z 0000000180000000     reader_writer_lock.obj
 0002:fffa9000       $unwind$??$to_bits_ref@$$CD_K@?$atomic_impl@_K@internal@tbb@@CAAEA_JAED_K@Z 0000000180000000     reader_writer_lock.obj
 0004:fff75000       $pdata$??$to_bits_ref@$$CD_K@?$atomic_impl@_K@internal@tbb@@CAAEA_JAED_K@Z 0000000180000000     reader_writer_lock.obj
 0002:fffa9000       ??$to_value@_K@?$atomic_impl@_K@internal@tbb@@CA_K_J@Z$rtcName$0 0000000180000000     reader_writer_lock.obj
 0002:fffa9000       $unwind$??$__TBB_load_relaxed@W4kind_type@task_group_context@tbb@@@internal@tbb@@YA?AW4kind_type@task_group_context@1@AEDW4231@@Z 0000000180000000     scheduler.obj
 0004:fff75000       $pdata$??$load@$02@?$atomic_impl@_K@internal@tbb@@QEBA_KXZ 0000000180000000     scheduler.obj
 0002:fffa9000       $unwind$??$to_value@_K@?$atomic_impl@_K@internal@tbb@@CA_K_J@Z 0000000180000000     reader_writer_lock.obj
 0004:fff75000       $pdata$??$to_value@_K@?$atomic_impl@_K@internal@tbb@@CA_K_J@Z 0000000180000000     reader_writer_lock.obj
 0002:fffa9000       $unwind$??$compare_and_swap@$0A@@?$atomic_impl@_K@internal@tbb@@QEAA_K_K0@Z 0000000180000000     reader_writer_lock.obj
 0004:fff75000       $pdata$??$compare_and_swap@$0A@@?$atomic_impl@_K@internal@tbb@@QEAA_K_K0@Z 0000000180000000     reader_writer_lock.obj
 0002:fffa9000       $unwind$??$fetch_and_add@$0A@@?$atomic_impl_with_arithmetic@_K_KD@internal@tbb@@QEAA_K_K@Z 0000000180000000     reader_writer_lock.obj
 0004:fff75000       $pdata$??$fetch_and_add@$0A@@?$atomic_impl_with_arithmetic@_K_KD@internal@tbb@@QEAA_K_K@Z 0000000180000000     reader_writer_lock.obj
 0002:fffa9000       $unwind$?load_with_acquire@?$machine_load_store@_J$07@internal@tbb@@SA_JAED_J@Z 0000000180000000     reader_writer_lock.obj
 0004:fff75000       $pdata$?load_with_acquire@?$machine_load_store@_J$07@internal@tbb@@SA_JAED_J@Z 0000000180000000     reader_writer_lock.obj
 0002:fffa9000       $unwind$?store_with_release@?$machine_load_store@_J$07@internal@tbb@@SAXAEC_J_J@Z 0000000180000000     reader_writer_lock.obj
 0004:fff75000       $pdata$?store_with_release@?$machine_load_store@_J$07@internal@tbb@@SAXAEC_J_J@Z 0000000180000000     reader_writer_lock.obj
 0002:fffa9000       $unwind$?compare_and_swap@?$atomic_traits@$07$0A@@internal@tbb@@SA_JPECX_J1@Z 0000000180000000     reader_writer_lock.obj
 0004:fff75000       $pdata$?compare_and_swap@?$atomic_traits@$07$0A@@internal@tbb@@SA_JPECX_J1@Z 0000000180000000     reader_writer_lock.obj
 0002:fffa9000       $unwind$?fetch_and_add@?$atomic_traits@$07$0A@@internal@tbb@@SA_JPECX_J@Z 0000000180000000     reader_writer_lock.obj
 0004:fff75000       $pdata$?fetch_and_add@?$atomic_traits@$07$0A@@internal@tbb@@SA_JPECX_J@Z 0000000180000000     reader_writer_lock.obj
 0002:fffa9000       $unwind$?load_with_acquire@?$machine_load_store@H$03@internal@tbb@@SAHAEDH@Z 0000000180000000     reader_writer_lock.obj
 0004:fff75000       $pdata$?load_with_acquire@?$machine_load_store@H$03@internal@tbb@@SAHAEDH@Z 0000000180000000     reader_writer_lock.obj
 0002:fffa9000       $unwind$?store_with_release@?$machine_load_store@H$03@internal@tbb@@SAXAECHH@Z 0000000180000000     reader_writer_lock.obj
 0004:fff75000       $pdata$?store_with_release@?$machine_load_store@H$03@internal@tbb@@SAXAECHH@Z 0000000180000000     reader_writer_lock.obj
 0002:fffa9000       __guard_fids___scrt_set_unhandled_exception_filter 0000000180000000     MSVCRTD:utility_desktop.obj
 0002:fffa9000       $unwind$??0?$ptr_converter@PEA_K@?$atomic_impl@_K@internal@tbb@@QEAA@PEA_K@Z 0000000180000000     reader_writer_lock.obj
 0004:fff75000       $pdata$??0?$ptr_converter@PEA_K@?$atomic_impl@_K@internal@tbb@@QEAA@PEA_K@Z 0000000180000000     reader_writer_lock.obj
 0002:fffa9000       $unwind$??0?$ptr_converter@PED_K@?$atomic_impl@_K@internal@tbb@@QEAA@PED_K@Z 0000000180000000     reader_writer_lock.obj
 0004:fff75000       $pdata$??0?$ptr_converter@PED_K@?$atomic_impl@_K@internal@tbb@@QEAA@PED_K@Z 0000000180000000     reader_writer_lock.obj
 0002:fffa9000       $unwind$??0atomic_backoff@internal@tbb@@QEAA@XZ 0000000180000000     spin_rw_mutex.obj
 0004:fff75000       $pdata$??0atomic_backoff@internal@tbb@@QEAA@XZ 0000000180000000     spin_rw_mutex.obj
 0002:fffa9000       __guard_fids__             0000000180000000     MSVCRTD:throw_bad_alloc.obj
 0002:fffa9000       __guard_fids__             0000000180000000     MSVCRTD:throw_bad_alloc.obj
 0002:fffa9000       __guard_fids__             0000000180000000     MSVCRTD:throw_bad_alloc.obj
 0002:fffa9000       $unwind$?pause@atomic_backoff@internal@tbb@@QEAAXXZ 0000000180000000     spin_rw_mutex.obj
 0004:fff75000       $pdata$?pause@atomic_backoff@internal@tbb@@QEAAXXZ 0000000180000000     spin_rw_mutex.obj
 0002:fffa9000       $unwind$?compare_and_swap@?$atomic_traits@$07$0A@@internal@tbb@@SA_JPECX_J1@Z 0000000180000000     spin_rw_mutex.obj
 0004:fff75000       $pdata$?compare_and_swap@?$atomic_traits@$07$0A@@internal@tbb@@SA_JPECX_J1@Z 0000000180000000     spin_rw_mutex.obj
 0002:fffa9000       $unwind$??0atomic_backoff@internal@tbb@@QEAA@XZ 0000000180000000     x86_rtm_rw_mutex.obj
 0004:fff75000       $pdata$??0atomic_backoff@internal@tbb@@QEAA@XZ 0000000180000000     x86_rtm_rw_mutex.obj
 0002:fffa9000       $unwind$?pause@atomic_backoff@internal@tbb@@QEAAXXZ 0000000180000000     x86_rtm_rw_mutex.obj
 0004:fff75000       $pdata$?pause@atomic_backoff@internal@tbb@@QEAAXXZ 0000000180000000     x86_rtm_rw_mutex.obj
 0002:fffa9000       $unwind$??B?$atomic_impl@_N@internal@tbb@@QEDA_NXZ 0000000180000000     x86_rtm_rw_mutex.obj
 0004:fff75000       $pdata$??B?$atomic_impl@_N@internal@tbb@@QEDA_NXZ 0000000180000000     x86_rtm_rw_mutex.obj
 0002:fffa9000       $unwind$?store_with_release@?$atomic_impl@_N@internal@tbb@@IEAA_N_N@Z 0000000180000000     x86_rtm_rw_mutex.obj
 0004:fff75000       $pdata$?store_with_release@?$atomic_impl@_N@internal@tbb@@IEAA_N_N@Z 0000000180000000     x86_rtm_rw_mutex.obj
 0004:fff75000       $pdata$??_Gbad_alloc@std@@UEAAPEAXI@Z 0000000180000000     MSVCRTD:throw_bad_alloc.obj
 0002:fffa9000       $unwind$??_Gbad_alloc@std@@UEAAPEAXI@Z 0000000180000000     MSVCRTD:throw_bad_alloc.obj
 0004:fff75000       $pdata$??0bad_alloc@std@@QEAA@AEBV01@@Z 0000000180000000     MSVCRTD:throw_bad_alloc.obj
 0002:fffa9000       $unwind$??0bad_alloc@std@@QEAA@AEBV01@@Z 0000000180000000     MSVCRTD:throw_bad_alloc.obj
 0004:fff75000       $pdata$??1bad_alloc@std@@UEAA@XZ 0000000180000000     MSVCRTD:throw_bad_alloc.obj
 0002:fffa9000       $unwind$??1bad_alloc@std@@UEAA@XZ 0000000180000000     MSVCRTD:throw_bad_alloc.obj
 0002:fffa9000       $unwind$??4?$atomic@_N@tbb@@QEAA_N_N@Z 0000000180000000     x86_rtm_rw_mutex.obj
 0004:fff75000       $pdata$??4?$atomic@_N@tbb@@QEAA_N_N@Z 0000000180000000     x86_rtm_rw_mutex.obj
 0004:fff75000       $pdata$??0bad_alloc@std@@QEAA@XZ 0000000180000000     MSVCRTD:throw_bad_alloc.obj
 0002:fffa9000       $unwind$??0bad_alloc@std@@QEAA@XZ 0000000180000000     MSVCRTD:throw_bad_alloc.obj
 0004:fff75000       $pdata$??_Gexception@std@@UEAAPEAXI@Z 0000000180000000     MSVCRTD:throw_bad_alloc.obj
 0002:fffa9000       $unwind$??_Gexception@std@@UEAAPEAXI@Z 0000000180000000     MSVCRTD:throw_bad_alloc.obj
 0004:fff75000       $pdata$?what@exception@std@@UEBAPEBDXZ 0000000180000000     MSVCRTD:throw_bad_alloc.obj
 0002:fffa9000       $unwind$?what@exception@std@@UEBAPEBDXZ 0000000180000000     MSVCRTD:throw_bad_alloc.obj
 0004:fff75000       $pdata$??1exception@std@@UEAA@XZ 0000000180000000     MSVCRTD:throw_bad_alloc.obj
 0002:fffa9000       $unwind$??1exception@std@@UEAA@XZ 0000000180000000     MSVCRTD:throw_bad_alloc.obj
 0004:fff75000       $pdata$??0exception@std@@QEAA@AEBV01@@Z 0000000180000000     MSVCRTD:throw_bad_alloc.obj
 0002:fffa9000       $unwind$??0exception@std@@QEAA@AEBV01@@Z 0000000180000000     MSVCRTD:throw_bad_alloc.obj
 0004:fff75000       $pdata$??0exception@std@@QEAA@QEBDH@Z 0000000180000000     MSVCRTD:throw_bad_alloc.obj
 0002:fffa9000       $unwind$??0exception@std@@QEAA@QEBDH@Z 0000000180000000     MSVCRTD:throw_bad_alloc.obj
 0002:fffa9000       $unwind$??$to_bits_ref@$$CD_N@?$atomic_impl@_N@internal@tbb@@CAAEACAED_N@Z 0000000180000000     x86_rtm_rw_mutex.obj
 0004:fff75000       $pdata$??$to_bits_ref@$$CD_N@?$atomic_impl@_N@internal@tbb@@CAAEACAED_N@Z 0000000180000000     x86_rtm_rw_mutex.obj
 0002:fffa9000       __guard_fids__guard_icall_checks_enforced 0000000180000000     MSVCRTD:guard_support.obj
 0002:fffa9000       $unwind$??$__TBB_load_with_acquire@C@internal@tbb@@YACAEDC@Z 0000000180000000     x86_rtm_rw_mutex.obj
 0004:fff75000       $pdata$??$__TBB_load_with_acquire@C@internal@tbb@@YACAEDC@Z 0000000180000000     x86_rtm_rw_mutex.obj
 0002:fffa9000       $unwind$??0?$converter@_N@?$atomic_impl@_N@internal@tbb@@QEAA@XZ 0000000180000000     x86_rtm_rw_mutex.obj
 0004:fff75000       $pdata$??0?$converter@_N@?$atomic_impl@_N@internal@tbb@@QEAA@XZ 0000000180000000     x86_rtm_rw_mutex.obj
 0002:fffa9000       __guard_fids__             0000000180000000     MSVCRTD:guard_support.obj
 0002:fffa9000       $unwind$??0?$converter@_N@?$atomic_impl@_N@internal@tbb@@QEAA@_N@Z 0000000180000000     x86_rtm_rw_mutex.obj
 0004:fff75000       $pdata$??0?$converter@_N@?$atomic_impl@_N@internal@tbb@@QEAA@_N@Z 0000000180000000     x86_rtm_rw_mutex.obj
 0002:fffa9000       ??$to_value@_N@?$atomic_impl@_N@internal@tbb@@CA_NC@Z$rtcName$0 0000000180000000     x86_rtm_rw_mutex.obj
 0002:fffa9000       $unwind$??$load@$02@?$atomic_impl@_K@internal@tbb@@QEBA_KXZ 0000000180000000     scheduler.obj
 0004:fff75000       $pdata$??$store@$02@?$atomic_impl@_K@internal@tbb@@QEAAX_K@Z 0000000180000000     scheduler.obj
 0002:fffa9000       $unwind$??$to_value@_N@?$atomic_impl@_N@internal@tbb@@CA_NC@Z 0000000180000000     x86_rtm_rw_mutex.obj
 0004:fff75000       $pdata$??$to_value@_N@?$atomic_impl@_N@internal@tbb@@CA_NC@Z 0000000180000000     x86_rtm_rw_mutex.obj
 0002:fffa9000       $unwind$??$__TBB_store_with_release@CC@internal@tbb@@YAXAECCC@Z 0000000180000000     x86_rtm_rw_mutex.obj
 0004:fff75000       $pdata$??$__TBB_store_with_release@CC@internal@tbb@@YAXAECCC@Z 0000000180000000     x86_rtm_rw_mutex.obj
 0002:fffa9000       $unwind$??$to_bits_ref@_N@?$atomic_impl@_N@internal@tbb@@CAAEACAEA_N@Z 0000000180000000     x86_rtm_rw_mutex.obj
 0004:fff75000       $pdata$??$to_bits_ref@_N@?$atomic_impl@_N@internal@tbb@@CAAEACAEA_N@Z 0000000180000000     x86_rtm_rw_mutex.obj
 0002:fffa9000       $unwind$??$to_bits@_N@?$atomic_impl@_N@internal@tbb@@CAC_N@Z 0000000180000000     x86_rtm_rw_mutex.obj
 0004:fff75000       $pdata$??$to_bits@_N@?$atomic_impl@_N@internal@tbb@@CAC_N@Z 0000000180000000     x86_rtm_rw_mutex.obj
 0002:fffa9000       $unwind$??0?$ptr_converter@PED_N@?$atomic_impl@_N@internal@tbb@@QEAA@PED_N@Z 0000000180000000     x86_rtm_rw_mutex.obj
 0004:fff75000       $pdata$??0?$ptr_converter@PED_N@?$atomic_impl@_N@internal@tbb@@QEAA@PED_N@Z 0000000180000000     x86_rtm_rw_mutex.obj
 0002:fffa9000       $unwind$?load_with_acquire@?$machine_load_store@C$00@internal@tbb@@SACAEDC@Z 0000000180000000     x86_rtm_rw_mutex.obj
 0004:fff75000       $pdata$?load_with_acquire@?$machine_load_store@C$00@internal@tbb@@SACAEDC@Z 0000000180000000     x86_rtm_rw_mutex.obj
 0002:fffa9000       $unwind$?store_with_release@?$machine_load_store@C$00@internal@tbb@@SAXAECCC@Z 0000000180000000     x86_rtm_rw_mutex.obj
 0004:fff75000       $pdata$?store_with_release@?$machine_load_store@C$00@internal@tbb@@SAXAECCC@Z 0000000180000000     x86_rtm_rw_mutex.obj
 0002:fffa9000       $unwind$??0?$ptr_converter@PEA_N@?$atomic_impl@_N@internal@tbb@@QEAA@PEA_N@Z 0000000180000000     x86_rtm_rw_mutex.obj
 0004:fff75000       $pdata$??0?$ptr_converter@PEA_N@?$atomic_impl@_N@internal@tbb@@QEAA@PEA_N@Z 0000000180000000     x86_rtm_rw_mutex.obj
 0002:fffa9000       $unwind$??0atomic_backoff@internal@tbb@@QEAA@XZ 0000000180000000     spin_mutex.obj
 0004:fff75000       $pdata$??0atomic_backoff@internal@tbb@@QEAA@XZ 0000000180000000     spin_mutex.obj
 0002:fffa9000       $unwind$?pause@atomic_backoff@internal@tbb@@QEAAXXZ 0000000180000000     spin_mutex.obj
 0004:fff75000       $pdata$?pause@atomic_backoff@internal@tbb@@QEAAXXZ 0000000180000000     spin_mutex.obj
 0002:fffa9000       $unwind$??$__TBB_store_with_release@EH@internal@tbb@@YAXAECEH@Z 0000000180000000     spin_mutex.obj
 0004:fff75000       $pdata$??$__TBB_store_with_release@EH@internal@tbb@@YAXAECEH@Z 0000000180000000     spin_mutex.obj
 0002:fffa9000       $unwind$?store_with_release@?$machine_load_store@E$00@internal@tbb@@SAXAECEE@Z 0000000180000000     spin_mutex.obj
 0004:fff75000       $pdata$?store_with_release@?$machine_load_store@E$00@internal@tbb@@SAXAECEE@Z 0000000180000000     spin_mutex.obj
 0002:fffa9000       $unwind$?__empty_global_delete@@YAXPEAX@Z 0000000180000000     critical_section.obj
 0004:fff75000       $pdata$?__empty_global_delete@@YAXPEAX@Z 0000000180000000     critical_section.obj
 0002:fffa9000       $unwind$?__empty_global_delete@@YAXPEAX_K@Z 0000000180000000     critical_section.obj
 0004:fff75000       $pdata$?__empty_global_delete@@YAXPEAX_K@Z 0000000180000000     critical_section.obj
 0002:fffa9000       $unwind$?inlineInitializeCriticalSectionEx@@YAHPEAU_RTL_CRITICAL_SECTION@@KK@Z 0000000180000000     recursive_mutex.obj
 0004:fff75000       $pdata$?inlineInitializeCriticalSectionEx@@YAHPEAU_RTL_CRITICAL_SECTION@@KK@Z 0000000180000000     recursive_mutex.obj
 0002:fffa9000       $unwind$?__empty_global_delete@@YAXPEAX@Z 0000000180000000     condition_variable.obj
 0004:fff75000       $pdata$?__empty_global_delete@@YAXPEAX@Z 0000000180000000     condition_variable.obj
 0002:fffa9000       $unwind$?__empty_global_delete@@YAXPEAX_K@Z 0000000180000000     condition_variable.obj
 0004:fff75000       $pdata$?__empty_global_delete@@YAXPEAX_K@Z 0000000180000000     condition_variable.obj
 0002:fffa9000       $unwind$?inlineInitializeCriticalSectionEx@@YAHPEAU_RTL_CRITICAL_SECTION@@KK@Z 0000000180000000     condition_variable.obj
 0004:fff75000       $pdata$?inlineInitializeCriticalSectionEx@@YAHPEAU_RTL_CRITICAL_SECTION@@KK@Z 0000000180000000     condition_variable.obj
 0002:fffa9000       $unwind$??0atomic_backoff@internal@tbb@@QEAA@XZ 0000000180000000     condition_variable.obj
 0004:fff75000       $pdata$??0atomic_backoff@internal@tbb@@QEAA@XZ 0000000180000000     condition_variable.obj
 0002:fffa9000       $unwind$?pause@atomic_backoff@internal@tbb@@QEAAXXZ 0000000180000000     condition_variable.obj
 0004:fff75000       $pdata$?pause@atomic_backoff@internal@tbb@@QEAAXXZ 0000000180000000     condition_variable.obj
 0002:fffa9000       $unwind$?run_initializer@internal@tbb@@YAXP6AXXZAEAU?$atomic@W4do_once_state@internal@tbb@@@2@@Z 0000000180000000     condition_variable.obj
 0004:fff75000       $pdata$?run_initializer@internal@tbb@@YAXP6AXXZAEAU?$atomic@W4do_once_state@internal@tbb@@@2@@Z 0000000180000000     condition_variable.obj
 0002:fffa9000       $unwind$?compare_and_swap@?$atomic_impl@W4do_once_state@internal@tbb@@@internal@tbb@@QEAA?AW4do_once_state@23@W4423@0@Z 0000000180000000     condition_variable.obj
 0004:fff75000       $pdata$?compare_and_swap@?$atomic_impl@W4do_once_state@internal@tbb@@@internal@tbb@@QEAA?AW4do_once_state@23@W4423@0@Z 0000000180000000     condition_variable.obj
 0002:fffa9000       $unwind$??B?$atomic_impl@W4do_once_state@internal@tbb@@@internal@tbb@@QEDA?AW4do_once_state@12@XZ 0000000180000000     condition_variable.obj
 0004:fff75000       $pdata$??B?$atomic_impl@W4do_once_state@internal@tbb@@@internal@tbb@@QEDA?AW4do_once_state@12@XZ 0000000180000000     condition_variable.obj
 0002:fffa9000       $unwind$?store_with_release@?$atomic_impl@W4do_once_state@internal@tbb@@@internal@tbb@@IEAA?AW4do_once_state@23@W4423@@Z 0000000180000000     condition_variable.obj
 0004:fff75000       $pdata$?store_with_release@?$atomic_impl@W4do_once_state@internal@tbb@@@internal@tbb@@IEAA?AW4do_once_state@23@W4423@@Z 0000000180000000     condition_variable.obj
 0002:fffa9000       __guard_fids_?dllmain_dispatch@@YAHQEAUHINSTANCE__@@KQEAX@Z 0000000180000000     MSVCRTD:dll_dllmain.obj
 0002:fffa9000       $unwind$??4?$atomic@W4do_once_state@internal@tbb@@@tbb@@QEAA?AW4do_once_state@internal@1@W4231@@Z 0000000180000000     condition_variable.obj
 0004:fff75000       $pdata$??4?$atomic@W4do_once_state@internal@tbb@@@tbb@@QEAA?AW4do_once_state@internal@1@W4231@@Z 0000000180000000     condition_variable.obj
 0002:fffa9000       $unwind$??$atomic_do_once@P6AXXZ@internal@tbb@@YAXAEBQ6AXXZAEAU?$atomic@W4do_once_state@internal@tbb@@@1@@Z 0000000180000000     condition_variable.obj
 0004:fff75000       $pdata$??$atomic_do_once@P6AXXZ@internal@tbb@@YAXAEBQ6AXXZAEAU?$atomic@W4do_once_state@internal@tbb@@@1@@Z 0000000180000000     condition_variable.obj
 0002:fffa9000       $unwind$??$__TBB_store_with_release@HH@internal@tbb@@YAXAECHH@Z 0000000180000000     condition_variable.obj
 0004:fff75000       $pdata$??$__TBB_store_with_release@HH@internal@tbb@@YAXAECHH@Z 0000000180000000     condition_variable.obj
 0002:fffa9000       $unwind$??$__TBB_load_with_acquire@H@internal@tbb@@YAHAEDH@Z 0000000180000000     condition_variable.obj
 0004:fff75000       $pdata$??$__TBB_load_with_acquire@H@internal@tbb@@YAHAEDH@Z 0000000180000000     condition_variable.obj
 0002:fffa9000       $unwind$??0?$converter@W4do_once_state@internal@tbb@@@?$atomic_impl@W4do_once_state@internal@tbb@@@internal@tbb@@QEAA@XZ 0000000180000000     condition_variable.obj
 0004:fff75000       $pdata$??0?$converter@W4do_once_state@internal@tbb@@@?$atomic_impl@W4do_once_state@internal@tbb@@@internal@tbb@@QEAA@XZ 0000000180000000     condition_variable.obj
 0002:fffa9000       $unwind$??0?$converter@W4do_once_state@internal@tbb@@@?$atomic_impl@W4do_once_state@internal@tbb@@@internal@tbb@@QEAA@W4do_once_state@23@@Z 0000000180000000     condition_variable.obj
 0004:fff75000       $pdata$??0?$converter@W4do_once_state@internal@tbb@@@?$atomic_impl@W4do_once_state@internal@tbb@@@internal@tbb@@QEAA@W4do_once_state@23@@Z 0000000180000000     condition_variable.obj
 0002:fffa9000       $unwind$??$to_bits_ref@W4do_once_state@internal@tbb@@@?$atomic_impl@W4do_once_state@internal@tbb@@@internal@tbb@@CAAEAHAEAW4do_once_state@12@@Z 0000000180000000     condition_variable.obj
 0004:fff75000       $pdata$??$to_bits_ref@W4do_once_state@internal@tbb@@@?$atomic_impl@W4do_once_state@internal@tbb@@@internal@tbb@@CAAEAHAEAW4do_once_state@12@@Z 0000000180000000     condition_variable.obj
 0002:fffa9000       $unwind$??$to_bits@W4do_once_state@internal@tbb@@@?$atomic_impl@W4do_once_state@internal@tbb@@@internal@tbb@@CAHW4do_once_state@12@@Z 0000000180000000     condition_variable.obj
 0004:fff75000       $pdata$??$to_bits@W4do_once_state@internal@tbb@@@?$atomic_impl@W4do_once_state@internal@tbb@@@internal@tbb@@CAHW4do_once_state@12@@Z 0000000180000000     condition_variable.obj
 0002:fffa9000       ??$spin_wait_while_eq@U?$atomic@W4do_once_state@internal@tbb@@@tbb@@W4do_once_state@internal@2@@internal@tbb@@YAXAEDU?$atomic@W4do_once_state@internal@tbb@@@1@W4do_once_state@01@@Z$rtcName$0 0000000180000000     condition_variable.obj
 0002:fffa9000       $unwind$??$store@$02@?$atomic_impl@_K@internal@tbb@@QEAAX_K@Z 0000000180000000     scheduler.obj
 0004:fff75000       $pdata$??$free_task@$02@generic_scheduler@internal@tbb@@QEAAXAEAVtask@2@@Z 0000000180000000     scheduler.obj
 0002:fffa9000       $unwind$??$spin_wait_while_eq@U?$atomic@W4do_once_state@internal@tbb@@@tbb@@W4do_once_state@internal@2@@internal@tbb@@YAXAEDU?$atomic@W4do_once_state@internal@tbb@@@1@W4do_once_state@01@@Z 0000000180000000     condition_variable.obj
 0004:fff75000       $pdata$??$spin_wait_while_eq@U?$atomic@W4do_once_state@internal@tbb@@@tbb@@W4do_once_state@internal@2@@internal@tbb@@YAXAEDU?$atomic@W4do_once_state@internal@tbb@@@1@W4do_once_state@01@@Z 0000000180000000     condition_variable.obj
 0002:fffa9000       $unwind$?load_with_acquire@?$machine_load_store@H$03@internal@tbb@@SAHAEDH@Z 0000000180000000     condition_variable.obj
 0004:fff75000       $pdata$?load_with_acquire@?$machine_load_store@H$03@internal@tbb@@SAHAEDH@Z 0000000180000000     condition_variable.obj
 0002:fffa9000       $unwind$?store_with_release@?$machine_load_store@H$03@internal@tbb@@SAXAECHH@Z 0000000180000000     condition_variable.obj
 0004:fff75000       $pdata$?store_with_release@?$machine_load_store@H$03@internal@tbb@@SAXAECHH@Z 0000000180000000     condition_variable.obj
 0002:fffa9000       $unwind$?compare_and_swap@?$atomic_traits@$03$0A@@internal@tbb@@SAHPECXHH@Z 0000000180000000     condition_variable.obj
 0004:fff75000       $pdata$?compare_and_swap@?$atomic_traits@$03$0A@@internal@tbb@@SAHPECXHH@Z 0000000180000000     condition_variable.obj
 0002:fffa9000       $unwind$??0?$ptr_converter@PEAW4do_once_state@internal@tbb@@@?$atomic_impl@W4do_once_state@internal@tbb@@@internal@tbb@@QEAA@PEAW4do_once_state@23@@Z 0000000180000000     condition_variable.obj
 0004:fff75000       $pdata$??0?$ptr_converter@PEAW4do_once_state@internal@tbb@@@?$atomic_impl@W4do_once_state@internal@tbb@@@internal@tbb@@QEAA@PEAW4do_once_state@23@@Z 0000000180000000     condition_variable.obj
 0002:fffa9000       $unwind$??$to_bits_ref@$$CDW4do_once_state@internal@tbb@@@?$atomic_impl@W4do_once_state@internal@tbb@@@internal@tbb@@CAAEAHAEDW4do_once_state@12@@Z 0000000180000000     condition_variable.obj
 0004:fff75000       $pdata$??$to_bits_ref@$$CDW4do_once_state@internal@tbb@@@?$atomic_impl@W4do_once_state@internal@tbb@@@internal@tbb@@CAAEAHAEDW4do_once_state@12@@Z 0000000180000000     condition_variable.obj
 0002:fffa9000       ??$to_value@W4do_once_state@internal@tbb@@@?$atomic_impl@W4do_once_state@internal@tbb@@@internal@tbb@@CA?AW4do_once_state@12@H@Z$rtcName$0 0000000180000000     condition_variable.obj
 0002:fffa9000       $unwind$??$free_task@$02@generic_scheduler@internal@tbb@@QEAAXAEAVtask@2@@Z 0000000180000000     scheduler.obj
 0004:fff75000       $pdata$?prefix@auto_empty_task@internal@tbb@@QEAAAEAVtask_prefix@23@XZ 0000000180000000     scheduler.obj
 0002:fffa9000       $unwind$??$to_value@W4do_once_state@internal@tbb@@@?$atomic_impl@W4do_once_state@internal@tbb@@@internal@tbb@@CA?AW4do_once_state@12@H@Z 0000000180000000     condition_variable.obj
 0004:fff75000       $pdata$??$to_value@W4do_once_state@internal@tbb@@@?$atomic_impl@W4do_once_state@internal@tbb@@@internal@tbb@@CA?AW4do_once_state@12@H@Z 0000000180000000     condition_variable.obj
 0002:fffa9000       $unwind$??$compare_and_swap@$0A@@?$atomic_impl@W4do_once_state@internal@tbb@@@internal@tbb@@QEAA?AW4do_once_state@12@W4312@0@Z 0000000180000000     condition_variable.obj
 0004:fff75000       $pdata$??$compare_and_swap@$0A@@?$atomic_impl@W4do_once_state@internal@tbb@@@internal@tbb@@QEAA?AW4do_once_state@12@W4312@0@Z 0000000180000000     condition_variable.obj
 0002:fffa9000       $unwind$??0?$ptr_converter@PEDW4do_once_state@internal@tbb@@@?$atomic_impl@W4do_once_state@internal@tbb@@@internal@tbb@@QEAA@PEDW4do_once_state@23@@Z 0000000180000000     condition_variable.obj
 0004:fff75000       $pdata$??0?$ptr_converter@PEDW4do_once_state@internal@tbb@@@?$atomic_impl@W4do_once_state@internal@tbb@@@internal@tbb@@QEAA@PEDW4do_once_state@23@@Z 0000000180000000     condition_variable.obj
 0002:fffa9000       $unwind$?__empty_global_delete@@YAXPEAX@Z 0000000180000000     tbb_thread.obj
 0004:fff75000       $pdata$?__empty_global_delete@@YAXPEAX@Z 0000000180000000     tbb_thread.obj
 0002:fffa9000       $unwind$?__empty_global_delete@@YAXPEAX_K@Z 0000000180000000     tbb_thread.obj
 0004:fff75000       $pdata$?__empty_global_delete@@YAXPEAX_K@Z 0000000180000000     tbb_thread.obj
 0002:fffa9000       $unwind$?seconds@interval_t@tick_count@tbb@@QEBANXZ 0000000180000000     tbb_thread.obj
 0004:fff75000       $pdata$?seconds@interval_t@tick_count@tbb@@QEBANXZ 0000000180000000     tbb_thread.obj
 0002:fffa9000       ?ticks_per_second@interval_t@tick_count@tbb@@CA_JXZ$rtcName$0 0000000180000000     tbb_thread.obj
 0002:fffa9000       $unwind$?prefix@auto_empty_task@internal@tbb@@QEAAAEAVtask_prefix@23@XZ 0000000180000000     scheduler.obj
 0004:fff75000       $pdata$??Iauto_empty_task@internal@tbb@@QEAAPEAVtask@2@XZ 0000000180000000     scheduler.obj
 0002:fffa9000       $unwind$?ticks_per_second@interval_t@tick_count@tbb@@CA_JXZ 0000000180000000     tbb_thread.obj
 0004:fff75000       $pdata$?ticks_per_second@interval_t@tick_count@tbb@@CA_JXZ 0000000180000000     tbb_thread.obj
 0002:fffa9000       $unwind$?resolution@tick_count@tbb@@SANXZ 0000000180000000     tbb_thread.obj
 0004:fff75000       $pdata$?resolution@tick_count@tbb@@SANXZ 0000000180000000     tbb_thread.obj
 0002:fffa9000       $unwind$??8internal@tbb@@YA_NVid@tbb_thread_v3@01@0@Z 0000000180000000     tbb_thread.obj
 0004:fff75000       $pdata$??8internal@tbb@@YA_NVid@tbb_thread_v3@01@0@Z 0000000180000000     tbb_thread.obj
 0002:fffa9000       $unwind$?get_id@this_tbb_thread@tbb@@YA?AVid@tbb_thread_v3@internal@2@XZ 0000000180000000     tbb_thread.obj
 0004:fff75000       $pdata$?get_id@this_tbb_thread@tbb@@YA?AVid@tbb_thread_v3@internal@2@XZ 0000000180000000     tbb_thread.obj
 0002:fffa9000       $unwind$?__empty_global_delete@@YAXPEAX@Z 0000000180000000     concurrent_monitor.obj
 0004:fff75000       $pdata$?__empty_global_delete@@YAXPEAX@Z 0000000180000000     concurrent_monitor.obj
 0002:fffa9000       $unwind$?__empty_global_delete@@YAXPEAX_K@Z 0000000180000000     concurrent_monitor.obj
 0004:fff75000       $pdata$?__empty_global_delete@@YAXPEAX_K@Z 0000000180000000     concurrent_monitor.obj
 0002:fffa9000       $unwind$??2@YAPEAX_KPEAX@Z 0000000180000000     concurrent_monitor.obj
 0004:fff75000       $pdata$??2@YAPEAX_KPEAX@Z  0000000180000000     concurrent_monitor.obj
 0002:fffa9000       $unwind$?atomic_fence@tbb@@YAXXZ 0000000180000000     concurrent_monitor.obj
 0004:fff75000       $pdata$?atomic_fence@tbb@@YAXXZ 0000000180000000     concurrent_monitor.obj
 0002:fffa9000       $unwind$?__TBB_store_relaxed@internal@tbb@@YAXAEC_K_K@Z 0000000180000000     concurrent_monitor.obj
 0004:fff75000       $pdata$?__TBB_store_relaxed@internal@tbb@@YAXAEC_K_K@Z 0000000180000000     concurrent_monitor.obj
 0002:fffa9000       $unwind$?load@?$machine_load_store_relaxed@_K$07@internal@tbb@@SA_KAED_K@Z 0000000180000000     concurrent_monitor.obj
 0004:fff75000       $pdata$?load@?$machine_load_store_relaxed@_K$07@internal@tbb@@SA_KAED_K@Z 0000000180000000     concurrent_monitor.obj
 0002:fffa9000       $unwind$?store@?$machine_load_store_relaxed@_K$07@internal@tbb@@SAXAEC_K_K@Z 0000000180000000     concurrent_monitor.obj
 0004:fff75000       $pdata$?store@?$machine_load_store_relaxed@_K$07@internal@tbb@@SAXAEC_K_K@Z 0000000180000000     concurrent_monitor.obj
 0002:fffa9000       $unwind$??0scoped_lock@spin_mutex@tbb@@QEAA@AEAV12@@Z 0000000180000000     concurrent_monitor.obj
 0004:fff75000       $pdata$??0scoped_lock@spin_mutex@tbb@@QEAA@AEAV12@@Z 0000000180000000     concurrent_monitor.obj
 0002:fffa9000       $unwind$??1scoped_lock@spin_mutex@tbb@@QEAA@XZ 0000000180000000     concurrent_monitor.obj
 0004:fff75000       $pdata$??1scoped_lock@spin_mutex@tbb@@QEAA@XZ 0000000180000000     concurrent_monitor.obj
 0002:fffa9000       $cppxdata$??1scoped_lock@spin_mutex@tbb@@QEAA@XZ 0000000180000000     concurrent_monitor.obj
 0002:fffa9000       $ip2state$??1scoped_lock@spin_mutex@tbb@@QEAA@XZ 0000000180000000     concurrent_monitor.obj
 0002:fffa9000       $unwind$??$suppress_unused_warning@E@internal@tbb@@YAXAEBE@Z 0000000180000000     concurrent_monitor.obj
 0004:fff75000       $pdata$??$suppress_unused_warning@E@internal@tbb@@YAXAEBE@Z 0000000180000000     concurrent_monitor.obj
 0002:fffa9000       $unwind$?inlineCreateEventEx@@YAPEAXPEAU_SECURITY_ATTRIBUTES@@PEBDKK@Z 0000000180000000     concurrent_monitor.obj
 0004:fff75000       $pdata$?inlineCreateEventEx@@YAPEAXPEAU_SECURITY_ATTRIBUTES@@PEBDKK@Z 0000000180000000     concurrent_monitor.obj
 0002:fffa9000       $unwind$?P@binary_semaphore@internal@tbb@@QEAAXXZ 0000000180000000     concurrent_monitor.obj
 0004:fff75000       $pdata$?P@binary_semaphore@internal@tbb@@QEAAXXZ 0000000180000000     concurrent_monitor.obj
 0002:fffa9000       $unwind$?V@binary_semaphore@internal@tbb@@QEAAXXZ 0000000180000000     concurrent_monitor.obj
 0004:fff75000       $pdata$?V@binary_semaphore@internal@tbb@@QEAAXXZ 0000000180000000     concurrent_monitor.obj
 0002:fffa9000       $unwind$??0node_t@circular_doubly_linked_list_with_sentinel@internal@tbb@@QEAA@XZ 0000000180000000     concurrent_monitor.obj
 0004:fff75000       $pdata$??0node_t@circular_doubly_linked_list_with_sentinel@internal@tbb@@QEAA@XZ 0000000180000000     concurrent_monitor.obj
 0002:fffa9000       $unwind$??0circular_doubly_linked_list_with_sentinel@internal@tbb@@QEAA@XZ 0000000180000000     concurrent_monitor.obj
 0004:fff75000       $pdata$??0circular_doubly_linked_list_with_sentinel@internal@tbb@@QEAA@XZ 0000000180000000     concurrent_monitor.obj
 0002:fffa9000       $unwind$??1circular_doubly_linked_list_with_sentinel@internal@tbb@@QEAA@XZ 0000000180000000     concurrent_monitor.obj
 0004:fff75000       $pdata$??1circular_doubly_linked_list_with_sentinel@internal@tbb@@QEAA@XZ 0000000180000000     concurrent_monitor.obj
 0002:fffa9000       $cppxdata$??1circular_doubly_linked_list_with_sentinel@internal@tbb@@QEAA@XZ 0000000180000000     concurrent_monitor.obj
 0002:fffa9000       $ip2state$??1circular_doubly_linked_list_with_sentinel@internal@tbb@@QEAA@XZ 0000000180000000     concurrent_monitor.obj
 0002:fffa9000       $unwind$?size@circular_doubly_linked_list_with_sentinel@internal@tbb@@QEBA_KXZ 0000000180000000     concurrent_monitor.obj
 0004:fff75000       $pdata$?size@circular_doubly_linked_list_with_sentinel@internal@tbb@@QEBA_KXZ 0000000180000000     concurrent_monitor.obj
 0002:fffa9000       $unwind$?empty@circular_doubly_linked_list_with_sentinel@internal@tbb@@QEBA_NXZ 0000000180000000     concurrent_monitor.obj
 0004:fff75000       $pdata$?empty@circular_doubly_linked_list_with_sentinel@internal@tbb@@QEBA_NXZ 0000000180000000     concurrent_monitor.obj
 0002:fffa9000       $unwind$?front@circular_doubly_linked_list_with_sentinel@internal@tbb@@QEBAPEAUnode_t@123@XZ 0000000180000000     concurrent_monitor.obj
 0004:fff75000       $pdata$?front@circular_doubly_linked_list_with_sentinel@internal@tbb@@QEBAPEAUnode_t@123@XZ 0000000180000000     concurrent_monitor.obj
 0002:fffa9000       __guard_fids_?__scrt_initialize_thread_safe_statics@@YAHXZ 0000000180000000     MSVCRTD:thread_safe_statics.obj
 0002:fffa9000       $unwind$?end@circular_doubly_linked_list_with_sentinel@internal@tbb@@QEBAPEBUnode_t@123@XZ 0000000180000000     concurrent_monitor.obj
 0004:fff75000       $pdata$?end@circular_doubly_linked_list_with_sentinel@internal@tbb@@QEBAPEBUnode_t@123@XZ 0000000180000000     concurrent_monitor.obj
 0002:fffa9000       $unwind$?add@circular_doubly_linked_list_with_sentinel@internal@tbb@@QEAAXPEAUnode_t@123@@Z 0000000180000000     concurrent_monitor.obj
 0004:fff75000       $pdata$?add@circular_doubly_linked_list_with_sentinel@internal@tbb@@QEAAXPEAUnode_t@123@@Z 0000000180000000     concurrent_monitor.obj
 0002:fffa9000       $unwind$?remove@circular_doubly_linked_list_with_sentinel@internal@tbb@@QEAAXAEAUnode_t@123@@Z 0000000180000000     concurrent_monitor.obj
 0004:fff75000       $pdata$?remove@circular_doubly_linked_list_with_sentinel@internal@tbb@@QEAAXAEAUnode_t@123@@Z 0000000180000000     concurrent_monitor.obj
 0002:fffa9000       $unwind$?clear@circular_doubly_linked_list_with_sentinel@internal@tbb@@QEAAXXZ 0000000180000000     concurrent_monitor.obj
 0004:fff75000       $pdata$?clear@circular_doubly_linked_list_with_sentinel@internal@tbb@@QEAAXXZ 0000000180000000     concurrent_monitor.obj
 0002:fffa9000       $unwind$??$__TBB_load_relaxed@_K@internal@tbb@@YA_KAED_K@Z 0000000180000000     concurrent_monitor.obj
 0004:fff75000       $pdata$??$__TBB_load_relaxed@_K@internal@tbb@@YA_KAED_K@Z 0000000180000000     concurrent_monitor.obj
 0002:fffa9000       $unwind$??$__TBB_store_relaxed@_KH@internal@tbb@@YAXAEC_KH@Z 0000000180000000     concurrent_monitor.obj
 0004:fff75000       $pdata$??$__TBB_store_relaxed@_KH@internal@tbb@@YAXAEC_KH@Z 0000000180000000     concurrent_monitor.obj
 0002:fffa9000       $unwind$?semaphore@thread_context@concurrent_monitor@internal@tbb@@QEAAAEAVbinary_semaphore@34@XZ 0000000180000000     concurrent_monitor.obj
 0004:fff75000       $pdata$?semaphore@thread_context@concurrent_monitor@internal@tbb@@QEAAAEAVbinary_semaphore@34@XZ 0000000180000000     concurrent_monitor.obj
 0002:fffa9000       $unwind$?begin@?$aligned_space@Vbinary_semaphore@internal@tbb@@$00@tbb@@QEBAPEAVbinary_semaphore@internal@2@XZ 0000000180000000     concurrent_monitor.obj
 0004:fff75000       $pdata$?begin@?$aligned_space@Vbinary_semaphore@internal@tbb@@$00@tbb@@QEBAPEAVbinary_semaphore@internal@2@XZ 0000000180000000     concurrent_monitor.obj
 0002:fffa9000       $unwind$??B?$atomic_impl@_N@internal@tbb@@QEDA_NXZ 0000000180000000     concurrent_monitor.obj
 0004:fff75000       $pdata$??B?$atomic_impl@_N@internal@tbb@@QEDA_NXZ 0000000180000000     concurrent_monitor.obj
 0002:fffa9000       $unwind$?store_with_release@?$atomic_impl@_N@internal@tbb@@IEAA_N_N@Z 0000000180000000     concurrent_monitor.obj
 0004:fff75000       $pdata$?store_with_release@?$atomic_impl@_N@internal@tbb@@IEAA_N_N@Z 0000000180000000     concurrent_monitor.obj
 0002:fffa9000       $unwind$??4?$atomic@_N@tbb@@QEAA_N_N@Z 0000000180000000     concurrent_monitor.obj
 0004:fff75000       $pdata$??4?$atomic@_N@tbb@@QEAA_N_N@Z 0000000180000000     concurrent_monitor.obj
 0002:fffa9000       $unwind$?abort_all@concurrent_monitor@internal@tbb@@QEAAXXZ 0000000180000000     concurrent_monitor.obj
 0004:fff75000       $pdata$?abort_all@concurrent_monitor@internal@tbb@@QEAAXXZ 0000000180000000     concurrent_monitor.obj
 0002:fffa9000       $unwind$?to_thread_context@concurrent_monitor@internal@tbb@@AEAAPEAVthread_context@123@PEAUnode_t@circular_doubly_linked_list_with_sentinel@23@@Z 0000000180000000     concurrent_monitor.obj
 0004:fff75000       $pdata$?to_thread_context@concurrent_monitor@internal@tbb@@AEAAPEAVthread_context@123@PEAUnode_t@circular_doubly_linked_list_with_sentinel@23@@Z 0000000180000000     concurrent_monitor.obj
 0002:fffa9000       $unwind$??$__TBB_load_relaxed@I@internal@tbb@@YAIAEDI@Z 0000000180000000     concurrent_monitor.obj
 0004:fff75000       $pdata$??$__TBB_load_relaxed@I@internal@tbb@@YAIAEDI@Z 0000000180000000     concurrent_monitor.obj
 0002:fffa9000       $unwind$??$__TBB_store_relaxed@II@internal@tbb@@YAXAECII@Z 0000000180000000     concurrent_monitor.obj
 0004:fff75000       $pdata$??$__TBB_store_relaxed@II@internal@tbb@@YAXAECII@Z 0000000180000000     concurrent_monitor.obj
 0002:fffa9000       __guard_fids__             0000000180000000     MSVCRTD:thread_safe_statics.obj
 0002:fffa9000       $unwind$??$to_bits_ref@$$CD_N@?$atomic_impl@_N@internal@tbb@@CAAEACAED_N@Z 0000000180000000     concurrent_monitor.obj
 0004:fff75000       $pdata$??$to_bits_ref@$$CD_N@?$atomic_impl@_N@internal@tbb@@CAAEACAED_N@Z 0000000180000000     concurrent_monitor.obj
 0002:fffa9000       $unwind$??$__TBB_load_with_acquire@C@internal@tbb@@YACAEDC@Z 0000000180000000     concurrent_monitor.obj
 0004:fff75000       $pdata$??$__TBB_load_with_acquire@C@internal@tbb@@YACAEDC@Z 0000000180000000     concurrent_monitor.obj
 0002:fffa9000       $unwind$??0?$converter@_N@?$atomic_impl@_N@internal@tbb@@QEAA@XZ 0000000180000000     concurrent_monitor.obj
 0004:fff75000       $pdata$??0?$converter@_N@?$atomic_impl@_N@internal@tbb@@QEAA@XZ 0000000180000000     concurrent_monitor.obj
 0002:fffa9000       $unwind$??0?$converter@_N@?$atomic_impl@_N@internal@tbb@@QEAA@_N@Z 0000000180000000     concurrent_monitor.obj
 0004:fff75000       $pdata$??0?$converter@_N@?$atomic_impl@_N@internal@tbb@@QEAA@_N@Z 0000000180000000     concurrent_monitor.obj
 0002:fffa9000       ??$to_value@_N@?$atomic_impl@_N@internal@tbb@@CA_NC@Z$rtcName$0 0000000180000000     concurrent_monitor.obj
 0002:fffa9000       $unwind$??Iauto_empty_task@internal@tbb@@QEAAPEAVtask@2@XZ 0000000180000000     scheduler.obj
 0004:fff75000       $pdata$??Bauto_empty_task@internal@tbb@@QEAAAEAVtask@2@XZ 0000000180000000     scheduler.obj
 0002:fffa9000       $unwind$??$to_value@_N@?$atomic_impl@_N@internal@tbb@@CA_NC@Z 0000000180000000     concurrent_monitor.obj
 0004:fff75000       $pdata$??$to_value@_N@?$atomic_impl@_N@internal@tbb@@CA_NC@Z 0000000180000000     concurrent_monitor.obj
 0002:fffa9000       $unwind$??$punned_cast@PEAVbinary_semaphore@internal@tbb@@$$CBV?$aligned_space@Vbinary_semaphore@internal@tbb@@$00@3@@internal@tbb@@YAPEAVbinary_semaphore@01@PEBV?$aligned_space@Vbinary_semaphore@internal@tbb@@$00@1@@Z 0000000180000000     concurrent_monitor.obj
 0004:fff75000       $pdata$??$punned_cast@PEAVbinary_semaphore@internal@tbb@@$$CBV?$aligned_space@Vbinary_semaphore@internal@tbb@@$00@3@@internal@tbb@@YAPEAVbinary_semaphore@01@PEBV?$aligned_space@Vbinary_semaphore@internal@tbb@@$00@1@@Z 0000000180000000     concurrent_monitor.obj
 0002:fffa9000       $unwind$??$__TBB_store_with_release@CC@internal@tbb@@YAXAECCC@Z 0000000180000000     concurrent_monitor.obj
 0004:fff75000       $pdata$??$__TBB_store_with_release@CC@internal@tbb@@YAXAECCC@Z 0000000180000000     concurrent_monitor.obj
 0002:fffa9000       $unwind$??$to_bits_ref@_N@?$atomic_impl@_N@internal@tbb@@CAAEACAEA_N@Z 0000000180000000     concurrent_monitor.obj
 0004:fff75000       $pdata$??$to_bits_ref@_N@?$atomic_impl@_N@internal@tbb@@CAAEACAEA_N@Z 0000000180000000     concurrent_monitor.obj
 0002:fffa9000       $unwind$??$to_bits@_N@?$atomic_impl@_N@internal@tbb@@CAC_N@Z 0000000180000000     concurrent_monitor.obj
 0004:fff75000       $pdata$??$to_bits@_N@?$atomic_impl@_N@internal@tbb@@CAC_N@Z 0000000180000000     concurrent_monitor.obj
 0002:fffa9000       $unwind$?load@?$machine_load_store_relaxed@I$03@internal@tbb@@SAIAEDI@Z 0000000180000000     concurrent_monitor.obj
 0004:fff75000       $pdata$?load@?$machine_load_store_relaxed@I$03@internal@tbb@@SAIAEDI@Z 0000000180000000     concurrent_monitor.obj
 0002:fffa9000       $unwind$?store@?$machine_load_store_relaxed@I$03@internal@tbb@@SAXAECII@Z 0000000180000000     concurrent_monitor.obj
 0004:fff75000       $pdata$?store@?$machine_load_store_relaxed@I$03@internal@tbb@@SAXAECII@Z 0000000180000000     concurrent_monitor.obj
 0002:fffa9000       $unwind$??0?$ptr_converter@PED_N@?$atomic_impl@_N@internal@tbb@@QEAA@PED_N@Z 0000000180000000     concurrent_monitor.obj
 0004:fff75000       $pdata$??0?$ptr_converter@PED_N@?$atomic_impl@_N@internal@tbb@@QEAA@PED_N@Z 0000000180000000     concurrent_monitor.obj
 0002:fffa9000       $unwind$?load_with_acquire@?$machine_load_store@C$00@internal@tbb@@SACAEDC@Z 0000000180000000     concurrent_monitor.obj
 0004:fff75000       $pdata$?load_with_acquire@?$machine_load_store@C$00@internal@tbb@@SACAEDC@Z 0000000180000000     concurrent_monitor.obj
 0002:fffa9000       $unwind$?store_with_release@?$machine_load_store@C$00@internal@tbb@@SAXAECCC@Z 0000000180000000     concurrent_monitor.obj
 0004:fff75000       $pdata$?store_with_release@?$machine_load_store@C$00@internal@tbb@@SAXAECCC@Z 0000000180000000     concurrent_monitor.obj
 0002:fffa9000       $unwind$??0?$ptr_converter@PEA_N@?$atomic_impl@_N@internal@tbb@@QEAA@PEA_N@Z 0000000180000000     concurrent_monitor.obj
 0004:fff75000       $pdata$??0?$ptr_converter@PEA_N@?$atomic_impl@_N@internal@tbb@@QEAA@PEA_N@Z 0000000180000000     concurrent_monitor.obj
 0002:fffa9000       $unwind$?__empty_global_delete@@YAXPEAX@Z 0000000180000000     private_server.obj
 0004:fff75000       $pdata$?__empty_global_delete@@YAXPEAX@Z 0000000180000000     private_server.obj
 0002:fffa9000       $unwind$?__empty_global_delete@@YAXPEAX_K@Z 0000000180000000     private_server.obj
 0004:fff75000       $pdata$?__empty_global_delete@@YAXPEAX_K@Z 0000000180000000     private_server.obj
 0002:fffa9000       $unwind$??2@YAPEAX_KPEAX@Z 0000000180000000     private_server.obj
 0004:fff75000       $pdata$??2@YAPEAX_KPEAX@Z  0000000180000000     private_server.obj
 0002:fffa9000       $unwind$??B?$atomic_impl@_K@internal@tbb@@QEDA_KXZ 0000000180000000     private_server.obj
 0004:fff75000       $pdata$??B?$atomic_impl@_K@internal@tbb@@QEDA_KXZ 0000000180000000     private_server.obj
 0002:fffa9000       $unwind$?store_with_release@?$atomic_impl@_K@internal@tbb@@IEAA_K_K@Z 0000000180000000     private_server.obj
 0004:fff75000       $pdata$?store_with_release@?$atomic_impl@_K@internal@tbb@@IEAA_K_K@Z 0000000180000000     private_server.obj
 0002:fffa9000       $unwind$??4?$atomic@_K@tbb@@QEAA_K_K@Z 0000000180000000     private_server.obj
 0004:fff75000       $pdata$??4?$atomic@_K@tbb@@QEAA_K_K@Z 0000000180000000     private_server.obj
 0002:fffa9000       $unwind$??4?$atomic@_K@tbb@@QEAAAEAU01@AEBU01@@Z 0000000180000000     private_server.obj
 0004:fff75000       $pdata$??4?$atomic@_K@tbb@@QEAAAEAU01@AEBU01@@Z 0000000180000000     private_server.obj
 0002:fffa9000       $unwind$?inlineCreateEventEx@@YAPEAXPEAU_SECURITY_ATTRIBUTES@@PEBDKK@Z 0000000180000000     private_server.obj
 0002:fffa9000       __guard_fids__             0000000180000000     MSVCRTD:std_type_info_static.obj
 0004:fff75000       $pdata$?inlineCreateEventEx@@YAPEAXPEAU_SECURITY_ATTRIBUTES@@PEBDKK@Z 0000000180000000     private_server.obj
 0002:fffa9000       $unwind$??0binary_semaphore@internal@tbb@@QEAA@XZ 0000000180000000     private_server.obj
 0004:fff75000       $pdata$??0binary_semaphore@internal@tbb@@QEAA@XZ 0000000180000000     private_server.obj
 0002:fffa9000       $unwind$??1binary_semaphore@internal@tbb@@QEAA@XZ 0000000180000000     private_server.obj
 0004:fff75000       $pdata$??1binary_semaphore@internal@tbb@@QEAA@XZ 0000000180000000     private_server.obj
 0002:fffa9000       $unwind$?P@binary_semaphore@internal@tbb@@QEAAXXZ 0000000180000000     private_server.obj
 0004:fff75000       $pdata$?P@binary_semaphore@internal@tbb@@QEAAXXZ 0000000180000000     private_server.obj
 0002:fffa9000       $unwind$?V@binary_semaphore@internal@tbb@@QEAAXXZ 0000000180000000     private_server.obj
 0004:fff75000       $pdata$?V@binary_semaphore@internal@tbb@@QEAAXXZ 0000000180000000     private_server.obj
 0002:fffa9000       $unwind$?store_with_release@?$atomic_impl@_N@internal@tbb@@IEAA_N_N@Z 0000000180000000     private_server.obj
 0004:fff75000       $pdata$?store_with_release@?$atomic_impl@_N@internal@tbb@@IEAA_N_N@Z 0000000180000000     private_server.obj
 0002:fffa9000       $unwind$??4?$atomic@_N@tbb@@QEAA_N_N@Z 0000000180000000     private_server.obj
 0004:fff75000       $pdata$??4?$atomic@_N@tbb@@QEAA_N_N@Z 0000000180000000     private_server.obj
 0002:fffa9000       __guard_fids__CRT_RTC_INITW 0000000180000000     MSVCRTD:init.obj
